
firmware.elf:     file format elf32-littlearm


Disassembly of section .text:

08000000 <vector_table>:
 8000000:	20003ffc 	strdcs	r3, [r0], -ip
 8000004:	08000075 	stmdaeq	r0, {r0, r2, r4, r5, r6}
	...
 800002c:	08000ced 	stmdaeq	r0, {r0, r2, r3, r5, r6, r7, sl, fp}
	...
 8000038:	08000d89 	stmdaeq	r0, {r0, r3, r7, r8, sl, fp}
 800003c:	08000dc5 	stmdaeq	r0, {r0, r2, r6, r7, r8, sl, fp}

08000040 <task1>:
 8000040:	e7fe      	b.n	8000040 <task1>

08000042 <work>:
 8000042:	b51f      	push	{r0, r1, r2, r3, r4, lr}
 8000044:	2301      	movs	r3, #1
 8000046:	9300      	str	r3, [sp, #0]
 8000048:	4906      	ldr	r1, [pc, #24]	; (8000064 <work+0x22>)
 800004a:	3b01      	subs	r3, #1
 800004c:	2278      	movs	r2, #120	; 0x78
 800004e:	4806      	ldr	r0, [pc, #24]	; (8000068 <work+0x26>)
 8000050:	9301      	str	r3, [sp, #4]
 8000052:	9302      	str	r3, [sp, #8]
 8000054:	9303      	str	r3, [sp, #12]
 8000056:	f000 fb9f 	bl	8000798 <xTaskGenericCreate>
 800005a:	b005      	add	sp, #20
 800005c:	f85d eb04 	ldr.w	lr, [sp], #4
 8000060:	f000 bc58 	b.w	8000914 <vTaskStartScheduler>
 8000064:	080010cc 	stmdaeq	r0, {r2, r3, r6, r7, ip}
 8000068:	08000041 	stmdaeq	r0, {r0, r6}

0800006c <vApplicationStackOverflowHook>:
 800006c:	e7fe      	b.n	800006c <vApplicationStackOverflowHook>

0800006e <assert_failed>:
 800006e:	e7fe      	b.n	800006e <assert_failed>

08000070 <_sbrk_r>:
 8000070:	2000      	movs	r0, #0
 8000072:	4770      	bx	lr

08000074 <reset_handler>:
 8000074:	f7ff bfe5 	b.w	8000042 <work>

08000078 <vListInitialise>:
 8000078:	f100 0308 	add.w	r3, r0, #8
 800007c:	f04f 32ff 	mov.w	r2, #4294967295	; 0xffffffff
 8000080:	6082      	str	r2, [r0, #8]
 8000082:	6043      	str	r3, [r0, #4]
 8000084:	60c3      	str	r3, [r0, #12]
 8000086:	6103      	str	r3, [r0, #16]
 8000088:	2300      	movs	r3, #0
 800008a:	6003      	str	r3, [r0, #0]
 800008c:	4770      	bx	lr

0800008e <vListInitialiseItem>:
 800008e:	2300      	movs	r3, #0
 8000090:	6103      	str	r3, [r0, #16]
 8000092:	4770      	bx	lr

08000094 <vListInsertEnd>:
 8000094:	6843      	ldr	r3, [r0, #4]
 8000096:	685a      	ldr	r2, [r3, #4]
 8000098:	608b      	str	r3, [r1, #8]
 800009a:	604a      	str	r2, [r1, #4]
 800009c:	685a      	ldr	r2, [r3, #4]
 800009e:	6091      	str	r1, [r2, #8]
 80000a0:	6059      	str	r1, [r3, #4]
 80000a2:	6041      	str	r1, [r0, #4]
 80000a4:	6108      	str	r0, [r1, #16]
 80000a6:	6803      	ldr	r3, [r0, #0]
 80000a8:	3301      	adds	r3, #1
 80000aa:	6003      	str	r3, [r0, #0]
 80000ac:	4770      	bx	lr

080000ae <vListInsert>:
 80000ae:	680a      	ldr	r2, [r1, #0]
 80000b0:	b510      	push	{r4, lr}
 80000b2:	f1b2 3fff 	cmp.w	r2, #4294967295	; 0xffffffff
 80000b6:	d101      	bne.n	80000bc <vListInsert+0xe>
 80000b8:	6903      	ldr	r3, [r0, #16]
 80000ba:	e007      	b.n	80000cc <vListInsert+0x1e>
 80000bc:	f100 0308 	add.w	r3, r0, #8
 80000c0:	e000      	b.n	80000c4 <vListInsert+0x16>
 80000c2:	685b      	ldr	r3, [r3, #4]
 80000c4:	685c      	ldr	r4, [r3, #4]
 80000c6:	6824      	ldr	r4, [r4, #0]
 80000c8:	4294      	cmp	r4, r2
 80000ca:	d9fa      	bls.n	80000c2 <vListInsert+0x14>
 80000cc:	685a      	ldr	r2, [r3, #4]
 80000ce:	6108      	str	r0, [r1, #16]
 80000d0:	6091      	str	r1, [r2, #8]
 80000d2:	604a      	str	r2, [r1, #4]
 80000d4:	608b      	str	r3, [r1, #8]
 80000d6:	6059      	str	r1, [r3, #4]
 80000d8:	6803      	ldr	r3, [r0, #0]
 80000da:	3301      	adds	r3, #1
 80000dc:	6003      	str	r3, [r0, #0]
 80000de:	bd10      	pop	{r4, pc}

080000e0 <vListRemove>:
 80000e0:	6843      	ldr	r3, [r0, #4]
 80000e2:	6882      	ldr	r2, [r0, #8]
 80000e4:	609a      	str	r2, [r3, #8]
 80000e6:	6882      	ldr	r2, [r0, #8]
 80000e8:	6053      	str	r3, [r2, #4]
 80000ea:	6903      	ldr	r3, [r0, #16]
 80000ec:	6859      	ldr	r1, [r3, #4]
 80000ee:	4281      	cmp	r1, r0
 80000f0:	bf08      	it	eq
 80000f2:	605a      	streq	r2, [r3, #4]
 80000f4:	2200      	movs	r2, #0
 80000f6:	6102      	str	r2, [r0, #16]
 80000f8:	681a      	ldr	r2, [r3, #0]
 80000fa:	3a01      	subs	r2, #1
 80000fc:	601a      	str	r2, [r3, #0]
 80000fe:	4770      	bx	lr

08000100 <xCoRoutineCreate>:
 8000100:	e92d 4ff8 	stmdb	sp!, {r3, r4, r5, r6, r7, r8, r9, sl, fp, lr}
 8000104:	4604      	mov	r4, r0
 8000106:	2038      	movs	r0, #56	; 0x38
 8000108:	460d      	mov	r5, r1
 800010a:	4693      	mov	fp, r2
 800010c:	f000 fe6e 	bl	8000dec <pvPortMalloc>
 8000110:	4606      	mov	r6, r0
 8000112:	2800      	cmp	r0, #0
 8000114:	d048      	beq.n	80001a8 <xCoRoutineCreate+0xa8>
 8000116:	4f26      	ldr	r7, [pc, #152]	; (80001b0 <xCoRoutineCreate+0xb0>)
 8000118:	683b      	ldr	r3, [r7, #0]
 800011a:	f107 0804 	add.w	r8, r7, #4
 800011e:	b9cb      	cbnz	r3, 8000154 <xCoRoutineCreate+0x54>
 8000120:	6038      	str	r0, [r7, #0]
 8000122:	4640      	mov	r0, r8
 8000124:	f7ff ffa8 	bl	8000078 <vListInitialise>
 8000128:	f107 0a2c 	add.w	sl, r7, #44	; 0x2c
 800012c:	f107 0018 	add.w	r0, r7, #24
 8000130:	f7ff ffa2 	bl	8000078 <vListInitialise>
 8000134:	f107 0940 	add.w	r9, r7, #64	; 0x40
 8000138:	4650      	mov	r0, sl
 800013a:	f7ff ff9d 	bl	8000078 <vListInitialise>
 800013e:	4648      	mov	r0, r9
 8000140:	f7ff ff9a 	bl	8000078 <vListInitialise>
 8000144:	f107 0054 	add.w	r0, r7, #84	; 0x54
 8000148:	f7ff ff96 	bl	8000078 <vListInitialise>
 800014c:	f8c7 a068 	str.w	sl, [r7, #104]	; 0x68
 8000150:	f8c7 906c 	str.w	r9, [r7, #108]	; 0x6c
 8000154:	2d01      	cmp	r5, #1
 8000156:	bf34      	ite	cc
 8000158:	46a9      	movcc	r9, r5
 800015a:	f04f 0901 	movcs.w	r9, #1
 800015e:	4635      	mov	r5, r6
 8000160:	2300      	movs	r3, #0
 8000162:	f845 4b04 	str.w	r4, [r5], #4
 8000166:	86b3      	strh	r3, [r6, #52]	; 0x34
 8000168:	4628      	mov	r0, r5
 800016a:	f8c6 902c 	str.w	r9, [r6, #44]	; 0x2c
 800016e:	f8c6 b030 	str.w	fp, [r6, #48]	; 0x30
 8000172:	f7ff ff8c 	bl	800008e <vListInitialiseItem>
 8000176:	f106 0018 	add.w	r0, r6, #24
 800017a:	f7ff ff88 	bl	800008e <vListInitialiseItem>
 800017e:	f1c9 0305 	rsb	r3, r9, #5
 8000182:	6f3a      	ldr	r2, [r7, #112]	; 0x70
 8000184:	61b3      	str	r3, [r6, #24]
 8000186:	6af3      	ldr	r3, [r6, #44]	; 0x2c
 8000188:	6136      	str	r6, [r6, #16]
 800018a:	4293      	cmp	r3, r2
 800018c:	bf88      	it	hi
 800018e:	4a08      	ldrhi	r2, [pc, #32]	; (80001b0 <xCoRoutineCreate+0xb0>)
 8000190:	6276      	str	r6, [r6, #36]	; 0x24
 8000192:	bf88      	it	hi
 8000194:	6713      	strhi	r3, [r2, #112]	; 0x70
 8000196:	2014      	movs	r0, #20
 8000198:	fb00 8003 	mla	r0, r0, r3, r8
 800019c:	4629      	mov	r1, r5
 800019e:	f7ff ff79 	bl	8000094 <vListInsertEnd>
 80001a2:	2001      	movs	r0, #1
 80001a4:	e8bd 8ff8 	ldmia.w	sp!, {r3, r4, r5, r6, r7, r8, r9, sl, fp, pc}
 80001a8:	f04f 30ff 	mov.w	r0, #4294967295	; 0xffffffff
 80001ac:	e8bd 8ff8 	ldmia.w	sp!, {r3, r4, r5, r6, r7, r8, r9, sl, fp, pc}
 80001b0:	20000008 	andcs	r0, r0, r8

080001b4 <vCoRoutineAddToDelayedList>:
 80001b4:	b570      	push	{r4, r5, r6, lr}
 80001b6:	4c0d      	ldr	r4, [pc, #52]	; (80001ec <vCoRoutineAddToDelayedList+0x38>)
 80001b8:	460d      	mov	r5, r1
 80001ba:	6f66      	ldr	r6, [r4, #116]	; 0x74
 80001bc:	1986      	adds	r6, r0, r6
 80001be:	6820      	ldr	r0, [r4, #0]
 80001c0:	3004      	adds	r0, #4
 80001c2:	f7ff ff8d 	bl	80000e0 <vListRemove>
 80001c6:	6f63      	ldr	r3, [r4, #116]	; 0x74
 80001c8:	6821      	ldr	r1, [r4, #0]
 80001ca:	429e      	cmp	r6, r3
 80001cc:	bf34      	ite	cc
 80001ce:	6ee0      	ldrcc	r0, [r4, #108]	; 0x6c
 80001d0:	6ea0      	ldrcs	r0, [r4, #104]	; 0x68
 80001d2:	f841 6f04 	str.w	r6, [r1, #4]!
 80001d6:	f7ff ff6a 	bl	80000ae <vListInsert>
 80001da:	b135      	cbz	r5, 80001ea <vCoRoutineAddToDelayedList+0x36>
 80001dc:	6821      	ldr	r1, [r4, #0]
 80001de:	4628      	mov	r0, r5
 80001e0:	3118      	adds	r1, #24
 80001e2:	e8bd 4070 	ldmia.w	sp!, {r4, r5, r6, lr}
 80001e6:	f7ff bf62 	b.w	80000ae <vListInsert>
 80001ea:	bd70      	pop	{r4, r5, r6, pc}
 80001ec:	20000008 	andcs	r0, r0, r8

080001f0 <vCoRoutineSchedule>:
 80001f0:	b570      	push	{r4, r5, r6, lr}
 80001f2:	e01d      	b.n	8000230 <vCoRoutineSchedule+0x40>
 80001f4:	f04f 00bf 	mov.w	r0, #191	; 0xbf
 80001f8:	f380 8811 	msr	BASEPRI, r0
 80001fc:	6e2b      	ldr	r3, [r5, #96]	; 0x60
 80001fe:	68dc      	ldr	r4, [r3, #12]
 8000200:	f104 0018 	add.w	r0, r4, #24
 8000204:	f7ff ff6c 	bl	80000e0 <vListRemove>
 8000208:	f04f 0000 	mov.w	r0, #0
 800020c:	f380 8811 	msr	BASEPRI, r0
 8000210:	1d26      	adds	r6, r4, #4
 8000212:	4630      	mov	r0, r6
 8000214:	f7ff ff64 	bl	80000e0 <vListRemove>
 8000218:	6ae3      	ldr	r3, [r4, #44]	; 0x2c
 800021a:	6f2a      	ldr	r2, [r5, #112]	; 0x70
 800021c:	4631      	mov	r1, r6
 800021e:	4293      	cmp	r3, r2
 8000220:	4a37      	ldr	r2, [pc, #220]	; (8000300 <vCoRoutineSchedule+0x110>)
 8000222:	bf88      	it	hi
 8000224:	672b      	strhi	r3, [r5, #112]	; 0x70
 8000226:	2014      	movs	r0, #20
 8000228:	fb00 2003 	mla	r0, r0, r3, r2
 800022c:	f7ff ff32 	bl	8000094 <vListInsertEnd>
 8000230:	4d34      	ldr	r5, [pc, #208]	; (8000304 <vCoRoutineSchedule+0x114>)
 8000232:	6d6b      	ldr	r3, [r5, #84]	; 0x54
 8000234:	462c      	mov	r4, r5
 8000236:	2b00      	cmp	r3, #0
 8000238:	d1dc      	bne.n	80001f4 <vCoRoutineSchedule+0x4>
 800023a:	f000 fba5 	bl	8000988 <xTaskGetTickCount>
 800023e:	6feb      	ldr	r3, [r5, #124]	; 0x7c
 8000240:	1ac3      	subs	r3, r0, r3
 8000242:	67ab      	str	r3, [r5, #120]	; 0x78
 8000244:	e035      	b.n	80002b2 <vCoRoutineSchedule+0xc2>
 8000246:	6f59      	ldr	r1, [r3, #116]	; 0x74
 8000248:	3a01      	subs	r2, #1
 800024a:	3101      	adds	r1, #1
 800024c:	6759      	str	r1, [r3, #116]	; 0x74
 800024e:	679a      	str	r2, [r3, #120]	; 0x78
 8000250:	2900      	cmp	r1, #0
 8000252:	d12a      	bne.n	80002aa <vCoRoutineSchedule+0xba>
 8000254:	6e9a      	ldr	r2, [r3, #104]	; 0x68
 8000256:	6ed9      	ldr	r1, [r3, #108]	; 0x6c
 8000258:	66da      	str	r2, [r3, #108]	; 0x6c
 800025a:	6699      	str	r1, [r3, #104]	; 0x68
 800025c:	e025      	b.n	80002aa <vCoRoutineSchedule+0xba>
 800025e:	68db      	ldr	r3, [r3, #12]
 8000260:	68dd      	ldr	r5, [r3, #12]
 8000262:	4b28      	ldr	r3, [pc, #160]	; (8000304 <vCoRoutineSchedule+0x114>)
 8000264:	6f5a      	ldr	r2, [r3, #116]	; 0x74
 8000266:	686b      	ldr	r3, [r5, #4]
 8000268:	429a      	cmp	r2, r3
 800026a:	d322      	bcc.n	80002b2 <vCoRoutineSchedule+0xc2>
 800026c:	f04f 00bf 	mov.w	r0, #191	; 0xbf
 8000270:	f380 8811 	msr	BASEPRI, r0
 8000274:	1d2e      	adds	r6, r5, #4
 8000276:	4630      	mov	r0, r6
 8000278:	f7ff ff32 	bl	80000e0 <vListRemove>
 800027c:	6aab      	ldr	r3, [r5, #40]	; 0x28
 800027e:	b11b      	cbz	r3, 8000288 <vCoRoutineSchedule+0x98>
 8000280:	f105 0018 	add.w	r0, r5, #24
 8000284:	f7ff ff2c 	bl	80000e0 <vListRemove>
 8000288:	f04f 0000 	mov.w	r0, #0
 800028c:	f380 8811 	msr	BASEPRI, r0
 8000290:	6f22      	ldr	r2, [r4, #112]	; 0x70
 8000292:	6aeb      	ldr	r3, [r5, #44]	; 0x2c
 8000294:	4631      	mov	r1, r6
 8000296:	4293      	cmp	r3, r2
 8000298:	bf84      	itt	hi
 800029a:	4a1a      	ldrhi	r2, [pc, #104]	; (8000304 <vCoRoutineSchedule+0x114>)
 800029c:	6713      	strhi	r3, [r2, #112]	; 0x70
 800029e:	4a18      	ldr	r2, [pc, #96]	; (8000300 <vCoRoutineSchedule+0x110>)
 80002a0:	2014      	movs	r0, #20
 80002a2:	fb00 2003 	mla	r0, r0, r3, r2
 80002a6:	f7ff fef5 	bl	8000094 <vListInsertEnd>
 80002aa:	6ea3      	ldr	r3, [r4, #104]	; 0x68
 80002ac:	681a      	ldr	r2, [r3, #0]
 80002ae:	2a00      	cmp	r2, #0
 80002b0:	d1d5      	bne.n	800025e <vCoRoutineSchedule+0x6e>
 80002b2:	6fa2      	ldr	r2, [r4, #120]	; 0x78
 80002b4:	4b13      	ldr	r3, [pc, #76]	; (8000304 <vCoRoutineSchedule+0x114>)
 80002b6:	2a00      	cmp	r2, #0
 80002b8:	d1c5      	bne.n	8000246 <vCoRoutineSchedule+0x56>
 80002ba:	6f5a      	ldr	r2, [r3, #116]	; 0x74
 80002bc:	67da      	str	r2, [r3, #124]	; 0x7c
 80002be:	6f1b      	ldr	r3, [r3, #112]	; 0x70
 80002c0:	e003      	b.n	80002ca <vCoRoutineSchedule+0xda>
 80002c2:	b90b      	cbnz	r3, 80002c8 <vCoRoutineSchedule+0xd8>
 80002c4:	670b      	str	r3, [r1, #112]	; 0x70
 80002c6:	bd70      	pop	{r4, r5, r6, pc}
 80002c8:	3b01      	subs	r3, #1
 80002ca:	2014      	movs	r0, #20
 80002cc:	4358      	muls	r0, r3
 80002ce:	1822      	adds	r2, r4, r0
 80002d0:	6855      	ldr	r5, [r2, #4]
 80002d2:	490c      	ldr	r1, [pc, #48]	; (8000304 <vCoRoutineSchedule+0x114>)
 80002d4:	2d00      	cmp	r5, #0
 80002d6:	d0f4      	beq.n	80002c2 <vCoRoutineSchedule+0xd2>
 80002d8:	6895      	ldr	r5, [r2, #8]
 80002da:	670b      	str	r3, [r1, #112]	; 0x70
 80002dc:	686d      	ldr	r5, [r5, #4]
 80002de:	1809      	adds	r1, r1, r0
 80002e0:	310c      	adds	r1, #12
 80002e2:	6095      	str	r5, [r2, #8]
 80002e4:	428d      	cmp	r5, r1
 80002e6:	bf04      	itt	eq
 80002e8:	6869      	ldreq	r1, [r5, #4]
 80002ea:	6091      	streq	r1, [r2, #8]
 80002ec:	2214      	movs	r2, #20
 80002ee:	fb02 4303 	mla	r3, r2, r3, r4
 80002f2:	689b      	ldr	r3, [r3, #8]
 80002f4:	68d8      	ldr	r0, [r3, #12]
 80002f6:	6020      	str	r0, [r4, #0]
 80002f8:	6803      	ldr	r3, [r0, #0]
 80002fa:	6b01      	ldr	r1, [r0, #48]	; 0x30
 80002fc:	4798      	blx	r3
 80002fe:	bd70      	pop	{r4, r5, r6, pc}
 8000300:	2000000c 	andcs	r0, r0, ip
 8000304:	20000008 	andcs	r0, r0, r8

08000308 <xCoRoutineRemoveFromEventList>:
 8000308:	b570      	push	{r4, r5, r6, lr}
 800030a:	68c3      	ldr	r3, [r0, #12]
 800030c:	4d09      	ldr	r5, [pc, #36]	; (8000334 <xCoRoutineRemoveFromEventList+0x2c>)
 800030e:	68dc      	ldr	r4, [r3, #12]
 8000310:	f104 0618 	add.w	r6, r4, #24
 8000314:	4630      	mov	r0, r6
 8000316:	f7ff fee3 	bl	80000e0 <vListRemove>
 800031a:	f105 0054 	add.w	r0, r5, #84	; 0x54
 800031e:	4631      	mov	r1, r6
 8000320:	f7ff feb8 	bl	8000094 <vListInsertEnd>
 8000324:	682b      	ldr	r3, [r5, #0]
 8000326:	6ae0      	ldr	r0, [r4, #44]	; 0x2c
 8000328:	6adb      	ldr	r3, [r3, #44]	; 0x2c
 800032a:	4298      	cmp	r0, r3
 800032c:	bf34      	ite	cc
 800032e:	2000      	movcc	r0, #0
 8000330:	2001      	movcs	r0, #1
 8000332:	bd70      	pop	{r4, r5, r6, pc}
 8000334:	20000008 	andcs	r0, r0, r8

08000338 <prvCopyDataFromQueue>:
 8000338:	b530      	push	{r4, r5, lr}
 800033a:	6804      	ldr	r4, [r0, #0]
 800033c:	4603      	mov	r3, r0
 800033e:	b16c      	cbz	r4, 800035c <prvCopyDataFromQueue+0x24>
 8000340:	68c5      	ldr	r5, [r0, #12]
 8000342:	6c02      	ldr	r2, [r0, #64]	; 0x40
 8000344:	18ad      	adds	r5, r5, r2
 8000346:	60c5      	str	r5, [r0, #12]
 8000348:	6840      	ldr	r0, [r0, #4]
 800034a:	4285      	cmp	r5, r0
 800034c:	bf28      	it	cs
 800034e:	60dc      	strcs	r4, [r3, #12]
 8000350:	4608      	mov	r0, r1
 8000352:	68d9      	ldr	r1, [r3, #12]
 8000354:	e8bd 4030 	ldmia.w	sp!, {r4, r5, lr}
 8000358:	f000 bd76 	b.w	8000e48 <memcpy>
 800035c:	bd30      	pop	{r4, r5, pc}

0800035e <prvCopyDataToQueue>:
 800035e:	4613      	mov	r3, r2
 8000360:	6c02      	ldr	r2, [r0, #64]	; 0x40
 8000362:	b510      	push	{r4, lr}
 8000364:	4604      	mov	r4, r0
 8000366:	b1da      	cbz	r2, 80003a0 <prvCopyDataToQueue+0x42>
 8000368:	b963      	cbnz	r3, 8000384 <prvCopyDataToQueue+0x26>
 800036a:	6880      	ldr	r0, [r0, #8]
 800036c:	f000 fd6c 	bl	8000e48 <memcpy>
 8000370:	68a2      	ldr	r2, [r4, #8]
 8000372:	6c23      	ldr	r3, [r4, #64]	; 0x40
 8000374:	18d3      	adds	r3, r2, r3
 8000376:	6862      	ldr	r2, [r4, #4]
 8000378:	60a3      	str	r3, [r4, #8]
 800037a:	4293      	cmp	r3, r2
 800037c:	d310      	bcc.n	80003a0 <prvCopyDataToQueue+0x42>
 800037e:	6823      	ldr	r3, [r4, #0]
 8000380:	60a3      	str	r3, [r4, #8]
 8000382:	e00d      	b.n	80003a0 <prvCopyDataToQueue+0x42>
 8000384:	68c0      	ldr	r0, [r0, #12]
 8000386:	f000 fd5f 	bl	8000e48 <memcpy>
 800038a:	6c23      	ldr	r3, [r4, #64]	; 0x40
 800038c:	68e2      	ldr	r2, [r4, #12]
 800038e:	425b      	negs	r3, r3
 8000390:	6821      	ldr	r1, [r4, #0]
 8000392:	18d2      	adds	r2, r2, r3
 8000394:	428a      	cmp	r2, r1
 8000396:	60e2      	str	r2, [r4, #12]
 8000398:	d202      	bcs.n	80003a0 <prvCopyDataToQueue+0x42>
 800039a:	6862      	ldr	r2, [r4, #4]
 800039c:	18d3      	adds	r3, r2, r3
 800039e:	60e3      	str	r3, [r4, #12]
 80003a0:	6ba3      	ldr	r3, [r4, #56]	; 0x38
 80003a2:	3301      	adds	r3, #1
 80003a4:	63a3      	str	r3, [r4, #56]	; 0x38
 80003a6:	bd10      	pop	{r4, pc}

080003a8 <prvUnlockQueue>:
 80003a8:	b510      	push	{r4, lr}
 80003aa:	4604      	mov	r4, r0
 80003ac:	f000 fcd4 	bl	8000d58 <vPortEnterCritical>
 80003b0:	e00b      	b.n	80003ca <prvUnlockQueue+0x22>
 80003b2:	6a63      	ldr	r3, [r4, #36]	; 0x24
 80003b4:	b163      	cbz	r3, 80003d0 <prvUnlockQueue+0x28>
 80003b6:	f104 0024 	add.w	r0, r4, #36	; 0x24
 80003ba:	f000 fc17 	bl	8000bec <xTaskRemoveFromEventList>
 80003be:	b108      	cbz	r0, 80003c4 <prvUnlockQueue+0x1c>
 80003c0:	f000 fc74 	bl	8000cac <vTaskMissedYield>
 80003c4:	6ca3      	ldr	r3, [r4, #72]	; 0x48
 80003c6:	3b01      	subs	r3, #1
 80003c8:	64a3      	str	r3, [r4, #72]	; 0x48
 80003ca:	6ca3      	ldr	r3, [r4, #72]	; 0x48
 80003cc:	2b00      	cmp	r3, #0
 80003ce:	dcf0      	bgt.n	80003b2 <prvUnlockQueue+0xa>
 80003d0:	f04f 33ff 	mov.w	r3, #4294967295	; 0xffffffff
 80003d4:	64a3      	str	r3, [r4, #72]	; 0x48
 80003d6:	f000 fccb 	bl	8000d70 <vPortExitCritical>
 80003da:	f000 fcbd 	bl	8000d58 <vPortEnterCritical>
 80003de:	e00b      	b.n	80003f8 <prvUnlockQueue+0x50>
 80003e0:	6923      	ldr	r3, [r4, #16]
 80003e2:	b163      	cbz	r3, 80003fe <prvUnlockQueue+0x56>
 80003e4:	f104 0010 	add.w	r0, r4, #16
 80003e8:	f000 fc00 	bl	8000bec <xTaskRemoveFromEventList>
 80003ec:	b108      	cbz	r0, 80003f2 <prvUnlockQueue+0x4a>
 80003ee:	f000 fc5d 	bl	8000cac <vTaskMissedYield>
 80003f2:	6c63      	ldr	r3, [r4, #68]	; 0x44
 80003f4:	3b01      	subs	r3, #1
 80003f6:	6463      	str	r3, [r4, #68]	; 0x44
 80003f8:	6c63      	ldr	r3, [r4, #68]	; 0x44
 80003fa:	2b00      	cmp	r3, #0
 80003fc:	dcf0      	bgt.n	80003e0 <prvUnlockQueue+0x38>
 80003fe:	f04f 33ff 	mov.w	r3, #4294967295	; 0xffffffff
 8000402:	6463      	str	r3, [r4, #68]	; 0x44
 8000404:	e8bd 4010 	ldmia.w	sp!, {r4, lr}
 8000408:	f000 bcb2 	b.w	8000d70 <vPortExitCritical>

0800040c <xQueueGenericReset>:
 800040c:	2901      	cmp	r1, #1
 800040e:	b510      	push	{r4, lr}
 8000410:	4604      	mov	r4, r0
 8000412:	d003      	beq.n	800041c <xQueueGenericReset+0x10>
 8000414:	6a43      	ldr	r3, [r0, #36]	; 0x24
 8000416:	6900      	ldr	r0, [r0, #16]
 8000418:	b9d8      	cbnz	r0, 8000452 <xQueueGenericReset+0x46>
 800041a:	b9db      	cbnz	r3, 8000454 <xQueueGenericReset+0x48>
 800041c:	6823      	ldr	r3, [r4, #0]
 800041e:	6c22      	ldr	r2, [r4, #64]	; 0x40
 8000420:	6be1      	ldr	r1, [r4, #60]	; 0x3c
 8000422:	60a3      	str	r3, [r4, #8]
 8000424:	fb01 3002 	mla	r0, r1, r2, r3
 8000428:	3901      	subs	r1, #1
 800042a:	fb02 3301 	mla	r3, r2, r1, r3
 800042e:	6060      	str	r0, [r4, #4]
 8000430:	60e3      	str	r3, [r4, #12]
 8000432:	2000      	movs	r0, #0
 8000434:	f04f 33ff 	mov.w	r3, #4294967295	; 0xffffffff
 8000438:	63a0      	str	r0, [r4, #56]	; 0x38
 800043a:	6463      	str	r3, [r4, #68]	; 0x44
 800043c:	64a3      	str	r3, [r4, #72]	; 0x48
 800043e:	f104 0010 	add.w	r0, r4, #16
 8000442:	f7ff fe19 	bl	8000078 <vListInitialise>
 8000446:	f104 0024 	add.w	r0, r4, #36	; 0x24
 800044a:	f7ff fe15 	bl	8000078 <vListInitialise>
 800044e:	2001      	movs	r0, #1
 8000450:	bd10      	pop	{r4, pc}
 8000452:	2000      	movs	r0, #0
 8000454:	bd10      	pop	{r4, pc}

08000456 <xQueueGenericCreate>:
 8000456:	b5f8      	push	{r3, r4, r5, r6, r7, lr}
 8000458:	460f      	mov	r7, r1
 800045a:	4605      	mov	r5, r0
 800045c:	b1c0      	cbz	r0, 8000490 <xQueueGenericCreate+0x3a>
 800045e:	204c      	movs	r0, #76	; 0x4c
 8000460:	f000 fcc4 	bl	8000dec <pvPortMalloc>
 8000464:	4604      	mov	r4, r0
 8000466:	b1a0      	cbz	r0, 8000492 <xQueueGenericCreate+0x3c>
 8000468:	fb05 f007 	mul.w	r0, r5, r7
 800046c:	3001      	adds	r0, #1
 800046e:	f000 fcbd 	bl	8000dec <pvPortMalloc>
 8000472:	4606      	mov	r6, r0
 8000474:	6020      	str	r0, [r4, #0]
 8000476:	b130      	cbz	r0, 8000486 <xQueueGenericCreate+0x30>
 8000478:	63e5      	str	r5, [r4, #60]	; 0x3c
 800047a:	6427      	str	r7, [r4, #64]	; 0x40
 800047c:	4620      	mov	r0, r4
 800047e:	2101      	movs	r1, #1
 8000480:	f7ff ffc4 	bl	800040c <xQueueGenericReset>
 8000484:	e005      	b.n	8000492 <xQueueGenericCreate+0x3c>
 8000486:	4620      	mov	r0, r4
 8000488:	f000 fcce 	bl	8000e28 <vPortFree>
 800048c:	4634      	mov	r4, r6
 800048e:	e000      	b.n	8000492 <xQueueGenericCreate+0x3c>
 8000490:	4604      	mov	r4, r0
 8000492:	4620      	mov	r0, r4
 8000494:	bdf8      	pop	{r3, r4, r5, r6, r7, pc}

08000496 <xQueueGenericSend>:
 8000496:	e92d 41ff 	stmdb	sp!, {r0, r1, r2, r3, r4, r5, r6, r7, r8, lr}
 800049a:	4604      	mov	r4, r0
 800049c:	460d      	mov	r5, r1
 800049e:	9201      	str	r2, [sp, #4]
 80004a0:	461e      	mov	r6, r3
 80004a2:	f04f 0800 	mov.w	r8, #0
 80004a6:	e001      	b.n	80004ac <xQueueGenericSend+0x16>
 80004a8:	f04f 0801 	mov.w	r8, #1
 80004ac:	f000 fc54 	bl	8000d58 <vPortEnterCritical>
 80004b0:	6ba2      	ldr	r2, [r4, #56]	; 0x38
 80004b2:	6be3      	ldr	r3, [r4, #60]	; 0x3c
 80004b4:	429a      	cmp	r2, r3
 80004b6:	d212      	bcs.n	80004de <xQueueGenericSend+0x48>
 80004b8:	4620      	mov	r0, r4
 80004ba:	4629      	mov	r1, r5
 80004bc:	4632      	mov	r2, r6
 80004be:	f7ff ff4e 	bl	800035e <prvCopyDataToQueue>
 80004c2:	6a63      	ldr	r3, [r4, #36]	; 0x24
 80004c4:	b13b      	cbz	r3, 80004d6 <xQueueGenericSend+0x40>
 80004c6:	f104 0024 	add.w	r0, r4, #36	; 0x24
 80004ca:	f000 fb8f 	bl	8000bec <xTaskRemoveFromEventList>
 80004ce:	2801      	cmp	r0, #1
 80004d0:	d101      	bne.n	80004d6 <xQueueGenericSend+0x40>
 80004d2:	f000 fc3a 	bl	8000d4a <vPortYieldFromISR>
 80004d6:	f000 fc4b 	bl	8000d70 <vPortExitCritical>
 80004da:	2001      	movs	r0, #1
 80004dc:	e048      	b.n	8000570 <xQueueGenericSend+0xda>
 80004de:	9f01      	ldr	r7, [sp, #4]
 80004e0:	b91f      	cbnz	r7, 80004ea <xQueueGenericSend+0x54>
 80004e2:	f000 fc45 	bl	8000d70 <vPortExitCritical>
 80004e6:	4638      	mov	r0, r7
 80004e8:	e042      	b.n	8000570 <xQueueGenericSend+0xda>
 80004ea:	f1b8 0f00 	cmp.w	r8, #0
 80004ee:	d102      	bne.n	80004f6 <xQueueGenericSend+0x60>
 80004f0:	a802      	add	r0, sp, #8
 80004f2:	f000 fba9 	bl	8000c48 <vTaskSetTimeOutState>
 80004f6:	f000 fc3b 	bl	8000d70 <vPortExitCritical>
 80004fa:	f000 fa3b 	bl	8000974 <vTaskSuspendAll>
 80004fe:	f000 fc2b 	bl	8000d58 <vPortEnterCritical>
 8000502:	6c63      	ldr	r3, [r4, #68]	; 0x44
 8000504:	f1b3 3fff 	cmp.w	r3, #4294967295	; 0xffffffff
 8000508:	d101      	bne.n	800050e <xQueueGenericSend+0x78>
 800050a:	3301      	adds	r3, #1
 800050c:	6463      	str	r3, [r4, #68]	; 0x44
 800050e:	6ca3      	ldr	r3, [r4, #72]	; 0x48
 8000510:	f1b3 3fff 	cmp.w	r3, #4294967295	; 0xffffffff
 8000514:	d101      	bne.n	800051a <xQueueGenericSend+0x84>
 8000516:	3301      	adds	r3, #1
 8000518:	64a3      	str	r3, [r4, #72]	; 0x48
 800051a:	f000 fc29 	bl	8000d70 <vPortExitCritical>
 800051e:	a802      	add	r0, sp, #8
 8000520:	a901      	add	r1, sp, #4
 8000522:	f000 fb9b 	bl	8000c5c <xTaskCheckForTimeOut>
 8000526:	b9e8      	cbnz	r0, 8000564 <xQueueGenericSend+0xce>
 8000528:	f000 fc16 	bl	8000d58 <vPortEnterCritical>
 800052c:	f8d4 8038 	ldr.w	r8, [r4, #56]	; 0x38
 8000530:	6be7      	ldr	r7, [r4, #60]	; 0x3c
 8000532:	f000 fc1d 	bl	8000d70 <vPortExitCritical>
 8000536:	45b8      	cmp	r8, r7
 8000538:	d10e      	bne.n	8000558 <xQueueGenericSend+0xc2>
 800053a:	f104 0010 	add.w	r0, r4, #16
 800053e:	9901      	ldr	r1, [sp, #4]
 8000540:	f000 fb42 	bl	8000bc8 <vTaskPlaceOnEventList>
 8000544:	4620      	mov	r0, r4
 8000546:	f7ff ff2f 	bl	80003a8 <prvUnlockQueue>
 800054a:	f000 fa97 	bl	8000a7c <xTaskResumeAll>
 800054e:	2800      	cmp	r0, #0
 8000550:	d1aa      	bne.n	80004a8 <xQueueGenericSend+0x12>
 8000552:	f000 fbfa 	bl	8000d4a <vPortYieldFromISR>
 8000556:	e7a7      	b.n	80004a8 <xQueueGenericSend+0x12>
 8000558:	4620      	mov	r0, r4
 800055a:	f7ff ff25 	bl	80003a8 <prvUnlockQueue>
 800055e:	f000 fa8d 	bl	8000a7c <xTaskResumeAll>
 8000562:	e7a1      	b.n	80004a8 <xQueueGenericSend+0x12>
 8000564:	4620      	mov	r0, r4
 8000566:	f7ff ff1f 	bl	80003a8 <prvUnlockQueue>
 800056a:	f000 fa87 	bl	8000a7c <xTaskResumeAll>
 800056e:	2000      	movs	r0, #0
 8000570:	b004      	add	sp, #16
 8000572:	e8bd 81f0 	ldmia.w	sp!, {r4, r5, r6, r7, r8, pc}

08000576 <xQueueGenericSendFromISR>:
 8000576:	b538      	push	{r3, r4, r5, lr}
 8000578:	4604      	mov	r4, r0
 800057a:	4615      	mov	r5, r2
 800057c:	f04f 00bf 	mov.w	r0, #191	; 0xbf
 8000580:	f380 8811 	msr	BASEPRI, r0
 8000584:	6ba0      	ldr	r0, [r4, #56]	; 0x38
 8000586:	6be2      	ldr	r2, [r4, #60]	; 0x3c
 8000588:	4290      	cmp	r0, r2
 800058a:	d214      	bcs.n	80005b6 <xQueueGenericSendFromISR+0x40>
 800058c:	461a      	mov	r2, r3
 800058e:	4620      	mov	r0, r4
 8000590:	f7ff fee5 	bl	800035e <prvCopyDataToQueue>
 8000594:	6ca3      	ldr	r3, [r4, #72]	; 0x48
 8000596:	f1b3 3fff 	cmp.w	r3, #4294967295	; 0xffffffff
 800059a:	d109      	bne.n	80005b0 <xQueueGenericSendFromISR+0x3a>
 800059c:	6a63      	ldr	r3, [r4, #36]	; 0x24
 800059e:	b163      	cbz	r3, 80005ba <xQueueGenericSendFromISR+0x44>
 80005a0:	f104 0024 	add.w	r0, r4, #36	; 0x24
 80005a4:	f000 fb22 	bl	8000bec <xTaskRemoveFromEventList>
 80005a8:	2301      	movs	r3, #1
 80005aa:	b138      	cbz	r0, 80005bc <xQueueGenericSendFromISR+0x46>
 80005ac:	602b      	str	r3, [r5, #0]
 80005ae:	e005      	b.n	80005bc <xQueueGenericSendFromISR+0x46>
 80005b0:	3301      	adds	r3, #1
 80005b2:	64a3      	str	r3, [r4, #72]	; 0x48
 80005b4:	e001      	b.n	80005ba <xQueueGenericSendFromISR+0x44>
 80005b6:	2300      	movs	r3, #0
 80005b8:	e000      	b.n	80005bc <xQueueGenericSendFromISR+0x46>
 80005ba:	2301      	movs	r3, #1
 80005bc:	f04f 0000 	mov.w	r0, #0
 80005c0:	f380 8811 	msr	BASEPRI, r0
 80005c4:	4618      	mov	r0, r3
 80005c6:	bd38      	pop	{r3, r4, r5, pc}

080005c8 <xQueueGenericReceive>:
 80005c8:	e92d 41ff 	stmdb	sp!, {r0, r1, r2, r3, r4, r5, r6, r7, r8, lr}
 80005cc:	4604      	mov	r4, r0
 80005ce:	460d      	mov	r5, r1
 80005d0:	9201      	str	r2, [sp, #4]
 80005d2:	461f      	mov	r7, r3
 80005d4:	f04f 0800 	mov.w	r8, #0
 80005d8:	e001      	b.n	80005de <xQueueGenericReceive+0x16>
 80005da:	f04f 0801 	mov.w	r8, #1
 80005de:	f000 fbbb 	bl	8000d58 <vPortEnterCritical>
 80005e2:	6ba3      	ldr	r3, [r4, #56]	; 0x38
 80005e4:	b1fb      	cbz	r3, 8000626 <xQueueGenericReceive+0x5e>
 80005e6:	4620      	mov	r0, r4
 80005e8:	4629      	mov	r1, r5
 80005ea:	68e6      	ldr	r6, [r4, #12]
 80005ec:	f7ff fea4 	bl	8000338 <prvCopyDataFromQueue>
 80005f0:	b95f      	cbnz	r7, 800060a <xQueueGenericReceive+0x42>
 80005f2:	6ba3      	ldr	r3, [r4, #56]	; 0x38
 80005f4:	3b01      	subs	r3, #1
 80005f6:	63a3      	str	r3, [r4, #56]	; 0x38
 80005f8:	6923      	ldr	r3, [r4, #16]
 80005fa:	b183      	cbz	r3, 800061e <xQueueGenericReceive+0x56>
 80005fc:	f104 0010 	add.w	r0, r4, #16
 8000600:	f000 faf4 	bl	8000bec <xTaskRemoveFromEventList>
 8000604:	2801      	cmp	r0, #1
 8000606:	d10a      	bne.n	800061e <xQueueGenericReceive+0x56>
 8000608:	e007      	b.n	800061a <xQueueGenericReceive+0x52>
 800060a:	6a63      	ldr	r3, [r4, #36]	; 0x24
 800060c:	60e6      	str	r6, [r4, #12]
 800060e:	b133      	cbz	r3, 800061e <xQueueGenericReceive+0x56>
 8000610:	f104 0024 	add.w	r0, r4, #36	; 0x24
 8000614:	f000 faea 	bl	8000bec <xTaskRemoveFromEventList>
 8000618:	b108      	cbz	r0, 800061e <xQueueGenericReceive+0x56>
 800061a:	f000 fb96 	bl	8000d4a <vPortYieldFromISR>
 800061e:	f000 fba7 	bl	8000d70 <vPortExitCritical>
 8000622:	2001      	movs	r0, #1
 8000624:	e045      	b.n	80006b2 <xQueueGenericReceive+0xea>
 8000626:	9e01      	ldr	r6, [sp, #4]
 8000628:	b91e      	cbnz	r6, 8000632 <xQueueGenericReceive+0x6a>
 800062a:	f000 fba1 	bl	8000d70 <vPortExitCritical>
 800062e:	4630      	mov	r0, r6
 8000630:	e03f      	b.n	80006b2 <xQueueGenericReceive+0xea>
 8000632:	f1b8 0f00 	cmp.w	r8, #0
 8000636:	d102      	bne.n	800063e <xQueueGenericReceive+0x76>
 8000638:	a802      	add	r0, sp, #8
 800063a:	f000 fb05 	bl	8000c48 <vTaskSetTimeOutState>
 800063e:	f000 fb97 	bl	8000d70 <vPortExitCritical>
 8000642:	f000 f997 	bl	8000974 <vTaskSuspendAll>
 8000646:	f000 fb87 	bl	8000d58 <vPortEnterCritical>
 800064a:	6c63      	ldr	r3, [r4, #68]	; 0x44
 800064c:	f1b3 3fff 	cmp.w	r3, #4294967295	; 0xffffffff
 8000650:	d101      	bne.n	8000656 <xQueueGenericReceive+0x8e>
 8000652:	3301      	adds	r3, #1
 8000654:	6463      	str	r3, [r4, #68]	; 0x44
 8000656:	6ca3      	ldr	r3, [r4, #72]	; 0x48
 8000658:	f1b3 3fff 	cmp.w	r3, #4294967295	; 0xffffffff
 800065c:	d101      	bne.n	8000662 <xQueueGenericReceive+0x9a>
 800065e:	3301      	adds	r3, #1
 8000660:	64a3      	str	r3, [r4, #72]	; 0x48
 8000662:	f000 fb85 	bl	8000d70 <vPortExitCritical>
 8000666:	a802      	add	r0, sp, #8
 8000668:	a901      	add	r1, sp, #4
 800066a:	f000 faf7 	bl	8000c5c <xTaskCheckForTimeOut>
 800066e:	b9d0      	cbnz	r0, 80006a6 <xQueueGenericReceive+0xde>
 8000670:	f000 fb72 	bl	8000d58 <vPortEnterCritical>
 8000674:	6ba6      	ldr	r6, [r4, #56]	; 0x38
 8000676:	f000 fb7b 	bl	8000d70 <vPortExitCritical>
 800067a:	b976      	cbnz	r6, 800069a <xQueueGenericReceive+0xd2>
 800067c:	f104 0024 	add.w	r0, r4, #36	; 0x24
 8000680:	9901      	ldr	r1, [sp, #4]
 8000682:	f000 faa1 	bl	8000bc8 <vTaskPlaceOnEventList>
 8000686:	4620      	mov	r0, r4
 8000688:	f7ff fe8e 	bl	80003a8 <prvUnlockQueue>
 800068c:	f000 f9f6 	bl	8000a7c <xTaskResumeAll>
 8000690:	2800      	cmp	r0, #0
 8000692:	d1a2      	bne.n	80005da <xQueueGenericReceive+0x12>
 8000694:	f000 fb59 	bl	8000d4a <vPortYieldFromISR>
 8000698:	e79f      	b.n	80005da <xQueueGenericReceive+0x12>
 800069a:	4620      	mov	r0, r4
 800069c:	f7ff fe84 	bl	80003a8 <prvUnlockQueue>
 80006a0:	f000 f9ec 	bl	8000a7c <xTaskResumeAll>
 80006a4:	e799      	b.n	80005da <xQueueGenericReceive+0x12>
 80006a6:	4620      	mov	r0, r4
 80006a8:	f7ff fe7e 	bl	80003a8 <prvUnlockQueue>
 80006ac:	f000 f9e6 	bl	8000a7c <xTaskResumeAll>
 80006b0:	2000      	movs	r0, #0
 80006b2:	b004      	add	sp, #16
 80006b4:	e8bd 81f0 	ldmia.w	sp!, {r4, r5, r6, r7, r8, pc}

080006b8 <xQueueReceiveFromISR>:
 80006b8:	b538      	push	{r3, r4, r5, lr}
 80006ba:	4604      	mov	r4, r0
 80006bc:	4615      	mov	r5, r2
 80006be:	f04f 00bf 	mov.w	r0, #191	; 0xbf
 80006c2:	f380 8811 	msr	BASEPRI, r0
 80006c6:	6ba3      	ldr	r3, [r4, #56]	; 0x38
 80006c8:	b1b3      	cbz	r3, 80006f8 <xQueueReceiveFromISR+0x40>
 80006ca:	4620      	mov	r0, r4
 80006cc:	f7ff fe34 	bl	8000338 <prvCopyDataFromQueue>
 80006d0:	6ba3      	ldr	r3, [r4, #56]	; 0x38
 80006d2:	3b01      	subs	r3, #1
 80006d4:	63a3      	str	r3, [r4, #56]	; 0x38
 80006d6:	6c63      	ldr	r3, [r4, #68]	; 0x44
 80006d8:	f1b3 3fff 	cmp.w	r3, #4294967295	; 0xffffffff
 80006dc:	d109      	bne.n	80006f2 <xQueueReceiveFromISR+0x3a>
 80006de:	6923      	ldr	r3, [r4, #16]
 80006e0:	b14b      	cbz	r3, 80006f6 <xQueueReceiveFromISR+0x3e>
 80006e2:	f104 0010 	add.w	r0, r4, #16
 80006e6:	f000 fa81 	bl	8000bec <xTaskRemoveFromEventList>
 80006ea:	2301      	movs	r3, #1
 80006ec:	b120      	cbz	r0, 80006f8 <xQueueReceiveFromISR+0x40>
 80006ee:	602b      	str	r3, [r5, #0]
 80006f0:	e002      	b.n	80006f8 <xQueueReceiveFromISR+0x40>
 80006f2:	3301      	adds	r3, #1
 80006f4:	6463      	str	r3, [r4, #68]	; 0x44
 80006f6:	2301      	movs	r3, #1
 80006f8:	f04f 0000 	mov.w	r0, #0
 80006fc:	f380 8811 	msr	BASEPRI, r0
 8000700:	4618      	mov	r0, r3
 8000702:	bd38      	pop	{r3, r4, r5, pc}

08000704 <uxQueueMessagesWaiting>:
 8000704:	b510      	push	{r4, lr}
 8000706:	4604      	mov	r4, r0
 8000708:	f000 fb26 	bl	8000d58 <vPortEnterCritical>
 800070c:	6ba4      	ldr	r4, [r4, #56]	; 0x38
 800070e:	f000 fb2f 	bl	8000d70 <vPortExitCritical>
 8000712:	4620      	mov	r0, r4
 8000714:	bd10      	pop	{r4, pc}

08000716 <uxQueueMessagesWaitingFromISR>:
 8000716:	6b80      	ldr	r0, [r0, #56]	; 0x38
 8000718:	4770      	bx	lr

0800071a <vQueueDelete>:
 800071a:	b510      	push	{r4, lr}
 800071c:	4604      	mov	r4, r0
 800071e:	6800      	ldr	r0, [r0, #0]
 8000720:	f000 fb82 	bl	8000e28 <vPortFree>
 8000724:	4620      	mov	r0, r4
 8000726:	e8bd 4010 	ldmia.w	sp!, {r4, lr}
 800072a:	f000 bb7d 	b.w	8000e28 <vPortFree>

0800072e <xQueueIsQueueEmptyFromISR>:
 800072e:	6b80      	ldr	r0, [r0, #56]	; 0x38
 8000730:	f1d0 0001 	rsbs	r0, r0, #1
 8000734:	bf38      	it	cc
 8000736:	2000      	movcc	r0, #0
 8000738:	4770      	bx	lr

0800073a <xQueueIsQueueFullFromISR>:
 800073a:	6b82      	ldr	r2, [r0, #56]	; 0x38
 800073c:	6bc3      	ldr	r3, [r0, #60]	; 0x3c
 800073e:	1ad3      	subs	r3, r2, r3
 8000740:	4258      	negs	r0, r3
 8000742:	eb40 0003 	adc.w	r0, r0, r3
 8000746:	4770      	bx	lr

08000748 <prvAddCurrentTaskToDelayedList>:
 8000748:	4b0c      	ldr	r3, [pc, #48]	; (800077c <prvAddCurrentTaskToDelayedList+0x34>)
 800074a:	b510      	push	{r4, lr}
 800074c:	681a      	ldr	r2, [r3, #0]
 800074e:	4604      	mov	r4, r0
 8000750:	6050      	str	r0, [r2, #4]
 8000752:	685a      	ldr	r2, [r3, #4]
 8000754:	4290      	cmp	r0, r2
 8000756:	d206      	bcs.n	8000766 <prvAddCurrentTaskToDelayedList+0x1e>
 8000758:	6898      	ldr	r0, [r3, #8]
 800075a:	6819      	ldr	r1, [r3, #0]
 800075c:	3104      	adds	r1, #4
 800075e:	e8bd 4010 	ldmia.w	sp!, {r4, lr}
 8000762:	f7ff bca4 	b.w	80000ae <vListInsert>
 8000766:	68d8      	ldr	r0, [r3, #12]
 8000768:	6819      	ldr	r1, [r3, #0]
 800076a:	3104      	adds	r1, #4
 800076c:	f7ff fc9f 	bl	80000ae <vListInsert>
 8000770:	4b03      	ldr	r3, [pc, #12]	; (8000780 <prvAddCurrentTaskToDelayedList+0x38>)
 8000772:	681a      	ldr	r2, [r3, #0]
 8000774:	4294      	cmp	r4, r2
 8000776:	bf38      	it	cc
 8000778:	601c      	strcc	r4, [r3, #0]
 800077a:	bd10      	pop	{r4, pc}
 800077c:	20000088 	andcs	r0, r0, r8, lsl #1
 8000780:	20000000 	andcs	r0, r0, r0

08000784 <prvIdleTask>:
 8000784:	b508      	push	{r3, lr}
 8000786:	4b03      	ldr	r3, [pc, #12]	; (8000794 <prvIdleTask+0x10>)
 8000788:	691b      	ldr	r3, [r3, #16]
 800078a:	2b01      	cmp	r3, #1
 800078c:	d9fb      	bls.n	8000786 <prvIdleTask+0x2>
 800078e:	f000 fadc 	bl	8000d4a <vPortYieldFromISR>
 8000792:	e7f8      	b.n	8000786 <prvIdleTask+0x2>
 8000794:	20000088 	andcs	r0, r0, r8, lsl #1

08000798 <xTaskGenericCreate>:
 8000798:	e92d 4ff8 	stmdb	sp!, {r3, r4, r5, r6, r7, r8, r9, sl, fp, lr}
 800079c:	4682      	mov	sl, r0
 800079e:	2044      	movs	r0, #68	; 0x44
 80007a0:	460d      	mov	r5, r1
 80007a2:	4614      	mov	r4, r2
 80007a4:	4699      	mov	r9, r3
 80007a6:	9f0a      	ldr	r7, [sp, #40]	; 0x28
 80007a8:	f8dd 802c 	ldr.w	r8, [sp, #44]	; 0x2c
 80007ac:	f8dd b030 	ldr.w	fp, [sp, #48]	; 0x30
 80007b0:	f000 fb1c 	bl	8000dec <pvPortMalloc>
 80007b4:	4606      	mov	r6, r0
 80007b6:	2800      	cmp	r0, #0
 80007b8:	f000 80a0 	beq.w	80008fc <xTaskGenericCreate+0x164>
 80007bc:	f1bb 0f00 	cmp.w	fp, #0
 80007c0:	d103      	bne.n	80007ca <xTaskGenericCreate+0x32>
 80007c2:	00a0      	lsls	r0, r4, #2
 80007c4:	f000 fb12 	bl	8000dec <pvPortMalloc>
 80007c8:	4683      	mov	fp, r0
 80007ca:	f8c6 b030 	str.w	fp, [r6, #48]	; 0x30
 80007ce:	f1bb 0f00 	cmp.w	fp, #0
 80007d2:	d103      	bne.n	80007dc <xTaskGenericCreate+0x44>
 80007d4:	4630      	mov	r0, r6
 80007d6:	f000 fb27 	bl	8000e28 <vPortFree>
 80007da:	e08f      	b.n	80008fc <xTaskGenericCreate+0x164>
 80007dc:	00a2      	lsls	r2, r4, #2
 80007de:	4658      	mov	r0, fp
 80007e0:	21a5      	movs	r1, #165	; 0xa5
 80007e2:	f000 fbd9 	bl	8000f98 <memset>
 80007e6:	6b33      	ldr	r3, [r6, #48]	; 0x30
 80007e8:	4629      	mov	r1, r5
 80007ea:	2210      	movs	r2, #16
 80007ec:	3c01      	subs	r4, #1
 80007ee:	f106 0034 	add.w	r0, r6, #52	; 0x34
 80007f2:	eb03 0484 	add.w	r4, r3, r4, lsl #2
 80007f6:	2f04      	cmp	r7, #4
 80007f8:	bf34      	ite	cc
 80007fa:	46bb      	movcc	fp, r7
 80007fc:	f04f 0b04 	movcs.w	fp, #4
 8000800:	f000 fc24 	bl	800104c <strncpy>
 8000804:	1d35      	adds	r5, r6, #4
 8000806:	2300      	movs	r3, #0
 8000808:	f886 3043 	strb.w	r3, [r6, #67]	; 0x43
 800080c:	4628      	mov	r0, r5
 800080e:	f8c6 b02c 	str.w	fp, [r6, #44]	; 0x2c
 8000812:	f7ff fc3c 	bl	800008e <vListInitialiseItem>
 8000816:	f106 0018 	add.w	r0, r6, #24
 800081a:	f7ff fc38 	bl	800008e <vListInitialiseItem>
 800081e:	f024 0407 	bic.w	r4, r4, #7
 8000822:	f1cb 0305 	rsb	r3, fp, #5
 8000826:	6136      	str	r6, [r6, #16]
 8000828:	61b3      	str	r3, [r6, #24]
 800082a:	6276      	str	r6, [r6, #36]	; 0x24
 800082c:	4620      	mov	r0, r4
 800082e:	4651      	mov	r1, sl
 8000830:	464a      	mov	r2, r9
 8000832:	f000 fa4b 	bl	8000ccc <pxPortInitialiseStack>
 8000836:	6030      	str	r0, [r6, #0]
 8000838:	f1b8 0f00 	cmp.w	r8, #0
 800083c:	d001      	beq.n	8000842 <xTaskGenericCreate+0xaa>
 800083e:	f8c8 6000 	str.w	r6, [r8]
 8000842:	4c33      	ldr	r4, [pc, #204]	; (8000910 <xTaskGenericCreate+0x178>)
 8000844:	f000 fa88 	bl	8000d58 <vPortEnterCritical>
 8000848:	6f63      	ldr	r3, [r4, #116]	; 0x74
 800084a:	f104 0a10 	add.w	sl, r4, #16
 800084e:	3301      	adds	r3, #1
 8000850:	6763      	str	r3, [r4, #116]	; 0x74
 8000852:	6823      	ldr	r3, [r4, #0]
 8000854:	bb1b      	cbnz	r3, 800089e <xTaskGenericCreate+0x106>
 8000856:	6026      	str	r6, [r4, #0]
 8000858:	6f62      	ldr	r2, [r4, #116]	; 0x74
 800085a:	2a01      	cmp	r2, #1
 800085c:	d127      	bne.n	80008ae <xTaskGenericCreate+0x116>
 800085e:	4699      	mov	r9, r3
 8000860:	2014      	movs	r0, #20
 8000862:	fb00 a009 	mla	r0, r0, r9, sl
 8000866:	f109 0901 	add.w	r9, r9, #1
 800086a:	f7ff fc05 	bl	8000078 <vListInitialise>
 800086e:	f1b9 0f05 	cmp.w	r9, #5
 8000872:	f8df 809c 	ldr.w	r8, [pc, #156]	; 8000910 <xTaskGenericCreate+0x178>
 8000876:	d1f3      	bne.n	8000860 <xTaskGenericCreate+0xc8>
 8000878:	f108 0b78 	add.w	fp, r8, #120	; 0x78
 800087c:	4658      	mov	r0, fp
 800087e:	f108 098c 	add.w	r9, r8, #140	; 0x8c
 8000882:	f7ff fbf9 	bl	8000078 <vListInitialise>
 8000886:	4648      	mov	r0, r9
 8000888:	f7ff fbf6 	bl	8000078 <vListInitialise>
 800088c:	f108 00a0 	add.w	r0, r8, #160	; 0xa0
 8000890:	f7ff fbf2 	bl	8000078 <vListInitialise>
 8000894:	f8c8 b00c 	str.w	fp, [r8, #12]
 8000898:	f8c8 9008 	str.w	r9, [r8, #8]
 800089c:	e007      	b.n	80008ae <xTaskGenericCreate+0x116>
 800089e:	f8d4 30b4 	ldr.w	r3, [r4, #180]	; 0xb4
 80008a2:	b923      	cbnz	r3, 80008ae <xTaskGenericCreate+0x116>
 80008a4:	6823      	ldr	r3, [r4, #0]
 80008a6:	6adb      	ldr	r3, [r3, #44]	; 0x2c
 80008a8:	42bb      	cmp	r3, r7
 80008aa:	bf98      	it	ls
 80008ac:	6026      	strls	r6, [r4, #0]
 80008ae:	6af3      	ldr	r3, [r6, #44]	; 0x2c
 80008b0:	f8d4 20b8 	ldr.w	r2, [r4, #184]	; 0xb8
 80008b4:	4629      	mov	r1, r5
 80008b6:	4293      	cmp	r3, r2
 80008b8:	bf84      	itt	hi
 80008ba:	4a15      	ldrhi	r2, [pc, #84]	; (8000910 <xTaskGenericCreate+0x178>)
 80008bc:	f8c2 30b8 	strhi.w	r3, [r2, #184]	; 0xb8
 80008c0:	f8d4 20bc 	ldr.w	r2, [r4, #188]	; 0xbc
 80008c4:	3201      	adds	r2, #1
 80008c6:	f8c4 20bc 	str.w	r2, [r4, #188]	; 0xbc
 80008ca:	f8d4 20c0 	ldr.w	r2, [r4, #192]	; 0xc0
 80008ce:	4293      	cmp	r3, r2
 80008d0:	bf84      	itt	hi
 80008d2:	4a0f      	ldrhi	r2, [pc, #60]	; (8000910 <xTaskGenericCreate+0x178>)
 80008d4:	f8c2 30c0 	strhi.w	r3, [r2, #192]	; 0xc0
 80008d8:	2014      	movs	r0, #20
 80008da:	fb00 a003 	mla	r0, r0, r3, sl
 80008de:	f7ff fbd9 	bl	8000094 <vListInsertEnd>
 80008e2:	f000 fa45 	bl	8000d70 <vPortExitCritical>
 80008e6:	f8d4 30b4 	ldr.w	r3, [r4, #180]	; 0xb4
 80008ea:	b15b      	cbz	r3, 8000904 <xTaskGenericCreate+0x16c>
 80008ec:	4b08      	ldr	r3, [pc, #32]	; (8000910 <xTaskGenericCreate+0x178>)
 80008ee:	681b      	ldr	r3, [r3, #0]
 80008f0:	6adb      	ldr	r3, [r3, #44]	; 0x2c
 80008f2:	42bb      	cmp	r3, r7
 80008f4:	d209      	bcs.n	800090a <xTaskGenericCreate+0x172>
 80008f6:	f000 fa28 	bl	8000d4a <vPortYieldFromISR>
 80008fa:	e003      	b.n	8000904 <xTaskGenericCreate+0x16c>
 80008fc:	f04f 30ff 	mov.w	r0, #4294967295	; 0xffffffff
 8000900:	e8bd 8ff8 	ldmia.w	sp!, {r3, r4, r5, r6, r7, r8, r9, sl, fp, pc}
 8000904:	2001      	movs	r0, #1
 8000906:	e8bd 8ff8 	ldmia.w	sp!, {r3, r4, r5, r6, r7, r8, r9, sl, fp, pc}
 800090a:	2001      	movs	r0, #1
 800090c:	e8bd 8ff8 	ldmia.w	sp!, {r3, r4, r5, r6, r7, r8, r9, sl, fp, pc}
 8000910:	20000088 	andcs	r0, r0, r8, lsl #1

08000914 <vTaskStartScheduler>:
 8000914:	b51f      	push	{r0, r1, r2, r3, r4, lr}
 8000916:	2400      	movs	r4, #0
 8000918:	2278      	movs	r2, #120	; 0x78
 800091a:	4623      	mov	r3, r4
 800091c:	480c      	ldr	r0, [pc, #48]	; (8000950 <vTaskStartScheduler+0x3c>)
 800091e:	490d      	ldr	r1, [pc, #52]	; (8000954 <vTaskStartScheduler+0x40>)
 8000920:	9400      	str	r4, [sp, #0]
 8000922:	9401      	str	r4, [sp, #4]
 8000924:	9402      	str	r4, [sp, #8]
 8000926:	9403      	str	r4, [sp, #12]
 8000928:	f7ff ff36 	bl	8000798 <xTaskGenericCreate>
 800092c:	2801      	cmp	r0, #1
 800092e:	4603      	mov	r3, r0
 8000930:	d10c      	bne.n	800094c <vTaskStartScheduler+0x38>
 8000932:	f04f 00bf 	mov.w	r0, #191	; 0xbf
 8000936:	f380 8811 	msr	BASEPRI, r0
 800093a:	4a07      	ldr	r2, [pc, #28]	; (8000958 <vTaskStartScheduler+0x44>)
 800093c:	f8c2 30b4 	str.w	r3, [r2, #180]	; 0xb4
 8000940:	6054      	str	r4, [r2, #4]
 8000942:	b004      	add	sp, #16
 8000944:	e8bd 4010 	ldmia.w	sp!, {r4, lr}
 8000948:	f000 b9e0 	b.w	8000d0c <xPortStartScheduler>
 800094c:	b004      	add	sp, #16
 800094e:	bd10      	pop	{r4, pc}
 8000950:	08000785 	stmdaeq	r0, {r0, r2, r7, r8, r9, sl}
 8000954:	080010d2 	stmdaeq	r0, {r1, r4, r6, r7, ip}
 8000958:	20000088 	andcs	r0, r0, r8, lsl #1

0800095c <vTaskEndScheduler>:
 800095c:	f04f 00bf 	mov.w	r0, #191	; 0xbf
 8000960:	f380 8811 	msr	BASEPRI, r0
 8000964:	4b02      	ldr	r3, [pc, #8]	; (8000970 <vTaskEndScheduler+0x14>)
 8000966:	2200      	movs	r2, #0
 8000968:	f8c3 20b4 	str.w	r2, [r3, #180]	; 0xb4
 800096c:	f000 b9ec 	b.w	8000d48 <vPortEndScheduler>
 8000970:	20000088 	andcs	r0, r0, r8, lsl #1

08000974 <vTaskSuspendAll>:
 8000974:	4b03      	ldr	r3, [pc, #12]	; (8000984 <vTaskSuspendAll+0x10>)
 8000976:	f8d3 20c4 	ldr.w	r2, [r3, #196]	; 0xc4
 800097a:	3201      	adds	r2, #1
 800097c:	f8c3 20c4 	str.w	r2, [r3, #196]	; 0xc4
 8000980:	4770      	bx	lr
 8000982:	bf00      	nop
 8000984:	20000088 	andcs	r0, r0, r8, lsl #1

08000988 <xTaskGetTickCount>:
 8000988:	b510      	push	{r4, lr}
 800098a:	f000 f9e5 	bl	8000d58 <vPortEnterCritical>
 800098e:	4b03      	ldr	r3, [pc, #12]	; (800099c <xTaskGetTickCount+0x14>)
 8000990:	685c      	ldr	r4, [r3, #4]
 8000992:	f000 f9ed 	bl	8000d70 <vPortExitCritical>
 8000996:	4620      	mov	r0, r4
 8000998:	bd10      	pop	{r4, pc}
 800099a:	bf00      	nop
 800099c:	20000088 	andcs	r0, r0, r8, lsl #1

080009a0 <xTaskGetTickCountFromISR>:
 80009a0:	f04f 00bf 	mov.w	r0, #191	; 0xbf
 80009a4:	f380 8811 	msr	BASEPRI, r0
 80009a8:	4b03      	ldr	r3, [pc, #12]	; (80009b8 <xTaskGetTickCountFromISR+0x18>)
 80009aa:	685b      	ldr	r3, [r3, #4]
 80009ac:	f04f 0000 	mov.w	r0, #0
 80009b0:	f380 8811 	msr	BASEPRI, r0
 80009b4:	4618      	mov	r0, r3
 80009b6:	4770      	bx	lr
 80009b8:	20000088 	andcs	r0, r0, r8, lsl #1

080009bc <uxTaskGetNumberOfTasks>:
 80009bc:	4b01      	ldr	r3, [pc, #4]	; (80009c4 <uxTaskGetNumberOfTasks+0x8>)
 80009be:	6f58      	ldr	r0, [r3, #116]	; 0x74
 80009c0:	4770      	bx	lr
 80009c2:	bf00      	nop
 80009c4:	20000088 	andcs	r0, r0, r8, lsl #1

080009c8 <vTaskIncrementTick>:
 80009c8:	b5f8      	push	{r3, r4, r5, r6, r7, lr}
 80009ca:	4b29      	ldr	r3, [pc, #164]	; (8000a70 <vTaskIncrementTick+0xa8>)
 80009cc:	f8d3 20c4 	ldr.w	r2, [r3, #196]	; 0xc4
 80009d0:	461c      	mov	r4, r3
 80009d2:	2a00      	cmp	r2, #0
 80009d4:	d145      	bne.n	8000a62 <vTaskIncrementTick+0x9a>
 80009d6:	685b      	ldr	r3, [r3, #4]
 80009d8:	4d26      	ldr	r5, [pc, #152]	; (8000a74 <vTaskIncrementTick+0xac>)
 80009da:	3301      	adds	r3, #1
 80009dc:	6063      	str	r3, [r4, #4]
 80009de:	6863      	ldr	r3, [r4, #4]
 80009e0:	b993      	cbnz	r3, 8000a08 <vTaskIncrementTick+0x40>
 80009e2:	68e3      	ldr	r3, [r4, #12]
 80009e4:	68a2      	ldr	r2, [r4, #8]
 80009e6:	60e2      	str	r2, [r4, #12]
 80009e8:	60a3      	str	r3, [r4, #8]
 80009ea:	f8d4 30c8 	ldr.w	r3, [r4, #200]	; 0xc8
 80009ee:	3301      	adds	r3, #1
 80009f0:	f8c4 30c8 	str.w	r3, [r4, #200]	; 0xc8
 80009f4:	68e3      	ldr	r3, [r4, #12]
 80009f6:	681b      	ldr	r3, [r3, #0]
 80009f8:	b90b      	cbnz	r3, 80009fe <vTaskIncrementTick+0x36>
 80009fa:	3b01      	subs	r3, #1
 80009fc:	e003      	b.n	8000a06 <vTaskIncrementTick+0x3e>
 80009fe:	68e3      	ldr	r3, [r4, #12]
 8000a00:	68db      	ldr	r3, [r3, #12]
 8000a02:	68db      	ldr	r3, [r3, #12]
 8000a04:	685b      	ldr	r3, [r3, #4]
 8000a06:	602b      	str	r3, [r5, #0]
 8000a08:	6862      	ldr	r2, [r4, #4]
 8000a0a:	682b      	ldr	r3, [r5, #0]
 8000a0c:	429a      	cmp	r2, r3
 8000a0e:	d32d      	bcc.n	8000a6c <vTaskIncrementTick+0xa4>
 8000a10:	68e3      	ldr	r3, [r4, #12]
 8000a12:	4a17      	ldr	r2, [pc, #92]	; (8000a70 <vTaskIncrementTick+0xa8>)
 8000a14:	681b      	ldr	r3, [r3, #0]
 8000a16:	b90b      	cbnz	r3, 8000a1c <vTaskIncrementTick+0x54>
 8000a18:	3b01      	subs	r3, #1
 8000a1a:	e006      	b.n	8000a2a <vTaskIncrementTick+0x62>
 8000a1c:	68d3      	ldr	r3, [r2, #12]
 8000a1e:	68db      	ldr	r3, [r3, #12]
 8000a20:	68de      	ldr	r6, [r3, #12]
 8000a22:	6852      	ldr	r2, [r2, #4]
 8000a24:	6873      	ldr	r3, [r6, #4]
 8000a26:	429a      	cmp	r2, r3
 8000a28:	d201      	bcs.n	8000a2e <vTaskIncrementTick+0x66>
 8000a2a:	602b      	str	r3, [r5, #0]
 8000a2c:	bdf8      	pop	{r3, r4, r5, r6, r7, pc}
 8000a2e:	1d37      	adds	r7, r6, #4
 8000a30:	4638      	mov	r0, r7
 8000a32:	f7ff fb55 	bl	80000e0 <vListRemove>
 8000a36:	6ab3      	ldr	r3, [r6, #40]	; 0x28
 8000a38:	b11b      	cbz	r3, 8000a42 <vTaskIncrementTick+0x7a>
 8000a3a:	f106 0018 	add.w	r0, r6, #24
 8000a3e:	f7ff fb4f 	bl	80000e0 <vListRemove>
 8000a42:	f8d4 20c0 	ldr.w	r2, [r4, #192]	; 0xc0
 8000a46:	6af3      	ldr	r3, [r6, #44]	; 0x2c
 8000a48:	4639      	mov	r1, r7
 8000a4a:	4293      	cmp	r3, r2
 8000a4c:	bf84      	itt	hi
 8000a4e:	4a08      	ldrhi	r2, [pc, #32]	; (8000a70 <vTaskIncrementTick+0xa8>)
 8000a50:	f8c2 30c0 	strhi.w	r3, [r2, #192]	; 0xc0
 8000a54:	4a08      	ldr	r2, [pc, #32]	; (8000a78 <vTaskIncrementTick+0xb0>)
 8000a56:	2014      	movs	r0, #20
 8000a58:	fb00 2003 	mla	r0, r0, r3, r2
 8000a5c:	f7ff fb1a 	bl	8000094 <vListInsertEnd>
 8000a60:	e7d6      	b.n	8000a10 <vTaskIncrementTick+0x48>
 8000a62:	f8d3 20cc 	ldr.w	r2, [r3, #204]	; 0xcc
 8000a66:	3201      	adds	r2, #1
 8000a68:	f8c3 20cc 	str.w	r2, [r3, #204]	; 0xcc
 8000a6c:	bdf8      	pop	{r3, r4, r5, r6, r7, pc}
 8000a6e:	bf00      	nop
 8000a70:	20000088 	andcs	r0, r0, r8, lsl #1
 8000a74:	20000000 	andcs	r0, r0, r0
 8000a78:	20000098 	mulcs	r0, r8, r0

08000a7c <xTaskResumeAll>:
 8000a7c:	e92d 41f0 	stmdb	sp!, {r4, r5, r6, r7, r8, lr}
 8000a80:	4c2c      	ldr	r4, [pc, #176]	; (8000b34 <xTaskResumeAll+0xb8>)
 8000a82:	f000 f969 	bl	8000d58 <vPortEnterCritical>
 8000a86:	f8d4 30c4 	ldr.w	r3, [r4, #196]	; 0xc4
 8000a8a:	3b01      	subs	r3, #1
 8000a8c:	f8c4 30c4 	str.w	r3, [r4, #196]	; 0xc4
 8000a90:	f8d4 60c4 	ldr.w	r6, [r4, #196]	; 0xc4
 8000a94:	2e00      	cmp	r6, #0
 8000a96:	d145      	bne.n	8000b24 <xTaskResumeAll+0xa8>
 8000a98:	6f63      	ldr	r3, [r4, #116]	; 0x74
 8000a9a:	bb03      	cbnz	r3, 8000ade <xTaskResumeAll+0x62>
 8000a9c:	e044      	b.n	8000b28 <xTaskResumeAll+0xac>
 8000a9e:	f8d7 30ac 	ldr.w	r3, [r7, #172]	; 0xac
 8000aa2:	68dd      	ldr	r5, [r3, #12]
 8000aa4:	f105 0018 	add.w	r0, r5, #24
 8000aa8:	f105 0804 	add.w	r8, r5, #4
 8000aac:	f7ff fb18 	bl	80000e0 <vListRemove>
 8000ab0:	4640      	mov	r0, r8
 8000ab2:	f7ff fb15 	bl	80000e0 <vListRemove>
 8000ab6:	6aeb      	ldr	r3, [r5, #44]	; 0x2c
 8000ab8:	f8d7 20c0 	ldr.w	r2, [r7, #192]	; 0xc0
 8000abc:	4641      	mov	r1, r8
 8000abe:	4293      	cmp	r3, r2
 8000ac0:	4a1d      	ldr	r2, [pc, #116]	; (8000b38 <xTaskResumeAll+0xbc>)
 8000ac2:	bf88      	it	hi
 8000ac4:	f8c7 30c0 	strhi.w	r3, [r7, #192]	; 0xc0
 8000ac8:	2014      	movs	r0, #20
 8000aca:	fb00 2003 	mla	r0, r0, r3, r2
 8000ace:	f7ff fae1 	bl	8000094 <vListInsertEnd>
 8000ad2:	6823      	ldr	r3, [r4, #0]
 8000ad4:	6aea      	ldr	r2, [r5, #44]	; 0x2c
 8000ad6:	6adb      	ldr	r3, [r3, #44]	; 0x2c
 8000ad8:	429a      	cmp	r2, r3
 8000ada:	bf28      	it	cs
 8000adc:	2601      	movcs	r6, #1
 8000ade:	f8d4 30a0 	ldr.w	r3, [r4, #160]	; 0xa0
 8000ae2:	4f14      	ldr	r7, [pc, #80]	; (8000b34 <xTaskResumeAll+0xb8>)
 8000ae4:	2b00      	cmp	r3, #0
 8000ae6:	d1da      	bne.n	8000a9e <xTaskResumeAll+0x22>
 8000ae8:	f8d7 30cc 	ldr.w	r3, [r7, #204]	; 0xcc
 8000aec:	b93b      	cbnz	r3, 8000afe <xTaskResumeAll+0x82>
 8000aee:	e00c      	b.n	8000b0a <xTaskResumeAll+0x8e>
 8000af0:	f7ff ff6a 	bl	80009c8 <vTaskIncrementTick>
 8000af4:	f8d5 30cc 	ldr.w	r3, [r5, #204]	; 0xcc
 8000af8:	3b01      	subs	r3, #1
 8000afa:	f8c5 30cc 	str.w	r3, [r5, #204]	; 0xcc
 8000afe:	f8d4 30cc 	ldr.w	r3, [r4, #204]	; 0xcc
 8000b02:	4d0c      	ldr	r5, [pc, #48]	; (8000b34 <xTaskResumeAll+0xb8>)
 8000b04:	2b00      	cmp	r3, #0
 8000b06:	d1f3      	bne.n	8000af0 <xTaskResumeAll+0x74>
 8000b08:	e005      	b.n	8000b16 <xTaskResumeAll+0x9a>
 8000b0a:	2e01      	cmp	r6, #1
 8000b0c:	d003      	beq.n	8000b16 <xTaskResumeAll+0x9a>
 8000b0e:	f8d7 20d0 	ldr.w	r2, [r7, #208]	; 0xd0
 8000b12:	2a01      	cmp	r2, #1
 8000b14:	d108      	bne.n	8000b28 <xTaskResumeAll+0xac>
 8000b16:	2300      	movs	r3, #0
 8000b18:	f8c4 30d0 	str.w	r3, [r4, #208]	; 0xd0
 8000b1c:	f000 f915 	bl	8000d4a <vPortYieldFromISR>
 8000b20:	2401      	movs	r4, #1
 8000b22:	e002      	b.n	8000b2a <xTaskResumeAll+0xae>
 8000b24:	2400      	movs	r4, #0
 8000b26:	e000      	b.n	8000b2a <xTaskResumeAll+0xae>
 8000b28:	461c      	mov	r4, r3
 8000b2a:	f000 f921 	bl	8000d70 <vPortExitCritical>
 8000b2e:	4620      	mov	r0, r4
 8000b30:	e8bd 81f0 	ldmia.w	sp!, {r4, r5, r6, r7, r8, pc}
 8000b34:	20000088 	andcs	r0, r0, r8, lsl #1
 8000b38:	20000098 	mulcs	r0, r8, r0

08000b3c <vTaskDelay>:
 8000b3c:	b570      	push	{r4, r5, r6, lr}
 8000b3e:	4604      	mov	r4, r0
 8000b40:	b168      	cbz	r0, 8000b5e <vTaskDelay+0x22>
 8000b42:	f7ff ff17 	bl	8000974 <vTaskSuspendAll>
 8000b46:	4b08      	ldr	r3, [pc, #32]	; (8000b68 <vTaskDelay+0x2c>)
 8000b48:	685d      	ldr	r5, [r3, #4]
 8000b4a:	6818      	ldr	r0, [r3, #0]
 8000b4c:	3004      	adds	r0, #4
 8000b4e:	f7ff fac7 	bl	80000e0 <vListRemove>
 8000b52:	1960      	adds	r0, r4, r5
 8000b54:	f7ff fdf8 	bl	8000748 <prvAddCurrentTaskToDelayedList>
 8000b58:	f7ff ff90 	bl	8000a7c <xTaskResumeAll>
 8000b5c:	b918      	cbnz	r0, 8000b66 <vTaskDelay+0x2a>
 8000b5e:	e8bd 4070 	ldmia.w	sp!, {r4, r5, r6, lr}
 8000b62:	f000 b8f2 	b.w	8000d4a <vPortYieldFromISR>
 8000b66:	bd70      	pop	{r4, r5, r6, pc}
 8000b68:	20000088 	andcs	r0, r0, r8, lsl #1

08000b6c <vTaskSwitchContext>:
 8000b6c:	4b15      	ldr	r3, [pc, #84]	; (8000bc4 <vTaskSwitchContext+0x58>)
 8000b6e:	b530      	push	{r4, r5, lr}
 8000b70:	f8d3 10c4 	ldr.w	r1, [r3, #196]	; 0xc4
 8000b74:	461a      	mov	r2, r3
 8000b76:	b141      	cbz	r1, 8000b8a <vTaskSwitchContext+0x1e>
 8000b78:	2201      	movs	r2, #1
 8000b7a:	f8c3 20d0 	str.w	r2, [r3, #208]	; 0xd0
 8000b7e:	bd30      	pop	{r4, r5, pc}
 8000b80:	f8d3 10c0 	ldr.w	r1, [r3, #192]	; 0xc0
 8000b84:	3901      	subs	r1, #1
 8000b86:	f8c3 10c0 	str.w	r1, [r3, #192]	; 0xc0
 8000b8a:	f8d2 10c0 	ldr.w	r1, [r2, #192]	; 0xc0
 8000b8e:	2514      	movs	r5, #20
 8000b90:	fb05 2101 	mla	r1, r5, r1, r2
 8000b94:	6909      	ldr	r1, [r1, #16]
 8000b96:	4b0b      	ldr	r3, [pc, #44]	; (8000bc4 <vTaskSwitchContext+0x58>)
 8000b98:	2900      	cmp	r1, #0
 8000b9a:	d0f1      	beq.n	8000b80 <vTaskSwitchContext+0x14>
 8000b9c:	f8d3 40c0 	ldr.w	r4, [r3, #192]	; 0xc0
 8000ba0:	4365      	muls	r5, r4
 8000ba2:	1959      	adds	r1, r3, r5
 8000ba4:	6948      	ldr	r0, [r1, #20]
 8000ba6:	460b      	mov	r3, r1
 8000ba8:	6840      	ldr	r0, [r0, #4]
 8000baa:	3318      	adds	r3, #24
 8000bac:	6148      	str	r0, [r1, #20]
 8000bae:	4298      	cmp	r0, r3
 8000bb0:	bf04      	itt	eq
 8000bb2:	6843      	ldreq	r3, [r0, #4]
 8000bb4:	614b      	streq	r3, [r1, #20]
 8000bb6:	2314      	movs	r3, #20
 8000bb8:	fb03 2404 	mla	r4, r3, r4, r2
 8000bbc:	6963      	ldr	r3, [r4, #20]
 8000bbe:	68db      	ldr	r3, [r3, #12]
 8000bc0:	6013      	str	r3, [r2, #0]
 8000bc2:	bd30      	pop	{r4, r5, pc}
 8000bc4:	20000088 	andcs	r0, r0, r8, lsl #1

08000bc8 <vTaskPlaceOnEventList>:
 8000bc8:	b570      	push	{r4, r5, r6, lr}
 8000bca:	4c07      	ldr	r4, [pc, #28]	; (8000be8 <vTaskPlaceOnEventList+0x20>)
 8000bcc:	460d      	mov	r5, r1
 8000bce:	6821      	ldr	r1, [r4, #0]
 8000bd0:	3118      	adds	r1, #24
 8000bd2:	f7ff fa6c 	bl	80000ae <vListInsert>
 8000bd6:	6820      	ldr	r0, [r4, #0]
 8000bd8:	3004      	adds	r0, #4
 8000bda:	f7ff fa81 	bl	80000e0 <vListRemove>
 8000bde:	6860      	ldr	r0, [r4, #4]
 8000be0:	1828      	adds	r0, r5, r0
 8000be2:	e8bd 4070 	ldmia.w	sp!, {r4, r5, r6, lr}
 8000be6:	e5af      	b.n	8000748 <prvAddCurrentTaskToDelayedList>
 8000be8:	20000088 	andcs	r0, r0, r8, lsl #1

08000bec <xTaskRemoveFromEventList>:
 8000bec:	b570      	push	{r4, r5, r6, lr}
 8000bee:	68c3      	ldr	r3, [r0, #12]
 8000bf0:	4d13      	ldr	r5, [pc, #76]	; (8000c40 <xTaskRemoveFromEventList+0x54>)
 8000bf2:	68dc      	ldr	r4, [r3, #12]
 8000bf4:	f104 0618 	add.w	r6, r4, #24
 8000bf8:	4630      	mov	r0, r6
 8000bfa:	f7ff fa71 	bl	80000e0 <vListRemove>
 8000bfe:	f8d5 30c4 	ldr.w	r3, [r5, #196]	; 0xc4
 8000c02:	b97b      	cbnz	r3, 8000c24 <xTaskRemoveFromEventList+0x38>
 8000c04:	1d26      	adds	r6, r4, #4
 8000c06:	4630      	mov	r0, r6
 8000c08:	f7ff fa6a 	bl	80000e0 <vListRemove>
 8000c0c:	6ae3      	ldr	r3, [r4, #44]	; 0x2c
 8000c0e:	f8d5 20c0 	ldr.w	r2, [r5, #192]	; 0xc0
 8000c12:	4293      	cmp	r3, r2
 8000c14:	4a0b      	ldr	r2, [pc, #44]	; (8000c44 <xTaskRemoveFromEventList+0x58>)
 8000c16:	bf88      	it	hi
 8000c18:	f8c5 30c0 	strhi.w	r3, [r5, #192]	; 0xc0
 8000c1c:	2014      	movs	r0, #20
 8000c1e:	fb00 2003 	mla	r0, r0, r3, r2
 8000c22:	e001      	b.n	8000c28 <xTaskRemoveFromEventList+0x3c>
 8000c24:	f105 00a0 	add.w	r0, r5, #160	; 0xa0
 8000c28:	4631      	mov	r1, r6
 8000c2a:	f7ff fa33 	bl	8000094 <vListInsertEnd>
 8000c2e:	682b      	ldr	r3, [r5, #0]
 8000c30:	6ae0      	ldr	r0, [r4, #44]	; 0x2c
 8000c32:	6adb      	ldr	r3, [r3, #44]	; 0x2c
 8000c34:	4298      	cmp	r0, r3
 8000c36:	bf34      	ite	cc
 8000c38:	2000      	movcc	r0, #0
 8000c3a:	2001      	movcs	r0, #1
 8000c3c:	bd70      	pop	{r4, r5, r6, pc}
 8000c3e:	bf00      	nop
 8000c40:	20000088 	andcs	r0, r0, r8, lsl #1
 8000c44:	20000098 	mulcs	r0, r8, r0

08000c48 <vTaskSetTimeOutState>:
 8000c48:	4b03      	ldr	r3, [pc, #12]	; (8000c58 <vTaskSetTimeOutState+0x10>)
 8000c4a:	f8d3 20c8 	ldr.w	r2, [r3, #200]	; 0xc8
 8000c4e:	685b      	ldr	r3, [r3, #4]
 8000c50:	6002      	str	r2, [r0, #0]
 8000c52:	6043      	str	r3, [r0, #4]
 8000c54:	4770      	bx	lr
 8000c56:	bf00      	nop
 8000c58:	20000088 	andcs	r0, r0, r8, lsl #1

08000c5c <xTaskCheckForTimeOut>:
 8000c5c:	b538      	push	{r3, r4, r5, lr}
 8000c5e:	4604      	mov	r4, r0
 8000c60:	460d      	mov	r5, r1
 8000c62:	f000 f879 	bl	8000d58 <vPortEnterCritical>
 8000c66:	4b10      	ldr	r3, [pc, #64]	; (8000ca8 <xTaskCheckForTimeOut+0x4c>)
 8000c68:	6822      	ldr	r2, [r4, #0]
 8000c6a:	f8d3 10c8 	ldr.w	r1, [r3, #200]	; 0xc8
 8000c6e:	4291      	cmp	r1, r2
 8000c70:	461a      	mov	r2, r3
 8000c72:	d003      	beq.n	8000c7c <xTaskCheckForTimeOut+0x20>
 8000c74:	6859      	ldr	r1, [r3, #4]
 8000c76:	6863      	ldr	r3, [r4, #4]
 8000c78:	4299      	cmp	r1, r3
 8000c7a:	d20f      	bcs.n	8000c9c <xTaskCheckForTimeOut+0x40>
 8000c7c:	6851      	ldr	r1, [r2, #4]
 8000c7e:	6862      	ldr	r2, [r4, #4]
 8000c80:	682b      	ldr	r3, [r5, #0]
 8000c82:	1a89      	subs	r1, r1, r2
 8000c84:	4299      	cmp	r1, r3
 8000c86:	d209      	bcs.n	8000c9c <xTaskCheckForTimeOut+0x40>
 8000c88:	4907      	ldr	r1, [pc, #28]	; (8000ca8 <xTaskCheckForTimeOut+0x4c>)
 8000c8a:	4620      	mov	r0, r4
 8000c8c:	6849      	ldr	r1, [r1, #4]
 8000c8e:	2400      	movs	r4, #0
 8000c90:	1a52      	subs	r2, r2, r1
 8000c92:	18d3      	adds	r3, r2, r3
 8000c94:	602b      	str	r3, [r5, #0]
 8000c96:	f7ff ffd7 	bl	8000c48 <vTaskSetTimeOutState>
 8000c9a:	e000      	b.n	8000c9e <xTaskCheckForTimeOut+0x42>
 8000c9c:	2401      	movs	r4, #1
 8000c9e:	f000 f867 	bl	8000d70 <vPortExitCritical>
 8000ca2:	4620      	mov	r0, r4
 8000ca4:	bd38      	pop	{r3, r4, r5, pc}
 8000ca6:	bf00      	nop
 8000ca8:	20000088 	andcs	r0, r0, r8, lsl #1

08000cac <vTaskMissedYield>:
 8000cac:	4b02      	ldr	r3, [pc, #8]	; (8000cb8 <vTaskMissedYield+0xc>)
 8000cae:	2201      	movs	r2, #1
 8000cb0:	f8c3 20d0 	str.w	r2, [r3, #208]	; 0xd0
 8000cb4:	4770      	bx	lr
 8000cb6:	bf00      	nop
 8000cb8:	20000088 	andcs	r0, r0, r8, lsl #1

08000cbc <prvPortStartFirstTask>:
 8000cbc:	484a      	ldr	r0, [pc, #296]	; (8000de8 <xPortSysTickHandler+0x24>)
 8000cbe:	6800      	ldr	r0, [r0, #0]
 8000cc0:	6800      	ldr	r0, [r0, #0]
 8000cc2:	f380 8808 	msr	MSP, r0
 8000cc6:	b662      	cpsie	i
 8000cc8:	df00      	svc	0
 8000cca:	bf00      	nop

08000ccc <pxPortInitialiseStack>:
 8000ccc:	b510      	push	{r4, lr}
 8000cce:	1f03      	subs	r3, r0, #4
 8000cd0:	f04f 7480 	mov.w	r4, #16777216	; 0x1000000
 8000cd4:	f840 4c04 	str.w	r4, [r0, #-4]
 8000cd8:	f843 1c04 	str.w	r1, [r3, #-4]
 8000cdc:	2100      	movs	r1, #0
 8000cde:	f843 1c08 	str.w	r1, [r3, #-8]
 8000ce2:	f843 2c1c 	str.w	r2, [r3, #-28]
 8000ce6:	f1a3 003c 	sub.w	r0, r3, #60	; 0x3c
 8000cea:	bd10      	pop	{r4, pc}

08000cec <vPortSVCHandler>:
 8000cec:	4b06      	ldr	r3, [pc, #24]	; (8000d08 <pxCurrentTCBConst2>)
 8000cee:	6819      	ldr	r1, [r3, #0]
 8000cf0:	6808      	ldr	r0, [r1, #0]
 8000cf2:	e8b0 0ff0 	ldmia.w	r0!, {r4, r5, r6, r7, r8, r9, sl, fp}
 8000cf6:	f380 8809 	msr	PSP, r0
 8000cfa:	f04f 0000 	mov.w	r0, #0
 8000cfe:	f380 8811 	msr	BASEPRI, r0
 8000d02:	f04e 0e0d 	orr.w	lr, lr, #13
 8000d06:	4770      	bx	lr

08000d08 <pxCurrentTCBConst2>:
 8000d08:	20000088 	andcs	r0, r0, r8, lsl #1

08000d0c <xPortStartScheduler>:
 8000d0c:	4b0b      	ldr	r3, [pc, #44]	; (8000d3c <xPortStartScheduler+0x30>)
 8000d0e:	b510      	push	{r4, lr}
 8000d10:	681a      	ldr	r2, [r3, #0]
 8000d12:	2400      	movs	r4, #0
 8000d14:	f442 027f 	orr.w	r2, r2, #16711680	; 0xff0000
 8000d18:	601a      	str	r2, [r3, #0]
 8000d1a:	681a      	ldr	r2, [r3, #0]
 8000d1c:	f042 427f 	orr.w	r2, r2, #4278190080	; 0xff000000
 8000d20:	601a      	str	r2, [r3, #0]
 8000d22:	4b07      	ldr	r3, [pc, #28]	; (8000d40 <xPortStartScheduler+0x34>)
 8000d24:	f641 723f 	movw	r2, #7999	; 0x1f3f
 8000d28:	601a      	str	r2, [r3, #0]
 8000d2a:	2207      	movs	r2, #7
 8000d2c:	f843 2c04 	str.w	r2, [r3, #-4]
 8000d30:	4b04      	ldr	r3, [pc, #16]	; (8000d44 <xPortStartScheduler+0x38>)
 8000d32:	601c      	str	r4, [r3, #0]
 8000d34:	f7ff ffc2 	bl	8000cbc <prvPortStartFirstTask>
 8000d38:	4620      	mov	r0, r4
 8000d3a:	bd10      	pop	{r4, pc}
 8000d3c:	e000ed20 	and	lr, r0, r0, lsr #26
 8000d40:	e000e014 	and	lr, r0, r4, lsl r0
 8000d44:	20000004 	andcs	r0, r0, r4

08000d48 <vPortEndScheduler>:
 8000d48:	4770      	bx	lr

08000d4a <vPortYieldFromISR>:
 8000d4a:	4b02      	ldr	r3, [pc, #8]	; (8000d54 <vPortYieldFromISR+0xa>)
 8000d4c:	f04f 5280 	mov.w	r2, #268435456	; 0x10000000
 8000d50:	601a      	str	r2, [r3, #0]
 8000d52:	4770      	bx	lr
 8000d54:	e000ed04 	and	lr, r0, r4, lsl #26

08000d58 <vPortEnterCritical>:
 8000d58:	f04f 00bf 	mov.w	r0, #191	; 0xbf
 8000d5c:	f380 8811 	msr	BASEPRI, r0
 8000d60:	4b02      	ldr	r3, [pc, #8]	; (8000d6c <vPortEnterCritical+0x14>)
 8000d62:	681a      	ldr	r2, [r3, #0]
 8000d64:	3201      	adds	r2, #1
 8000d66:	601a      	str	r2, [r3, #0]
 8000d68:	4770      	bx	lr
 8000d6a:	bf00      	nop
 8000d6c:	20000004 	andcs	r0, r0, r4

08000d70 <vPortExitCritical>:
 8000d70:	4a04      	ldr	r2, [pc, #16]	; (8000d84 <vPortExitCritical+0x14>)
 8000d72:	6813      	ldr	r3, [r2, #0]
 8000d74:	3b01      	subs	r3, #1
 8000d76:	6013      	str	r3, [r2, #0]
 8000d78:	b91b      	cbnz	r3, 8000d82 <vPortExitCritical+0x12>
 8000d7a:	f04f 0000 	mov.w	r0, #0
 8000d7e:	f380 8811 	msr	BASEPRI, r0
 8000d82:	4770      	bx	lr
 8000d84:	20000004 	andcs	r0, r0, r4

08000d88 <xPortPendSVHandler>:
 8000d88:	f3ef 8009 	mrs	r0, PSP
 8000d8c:	4b0c      	ldr	r3, [pc, #48]	; (8000dc0 <pxCurrentTCBConst>)
 8000d8e:	681a      	ldr	r2, [r3, #0]
 8000d90:	e920 0ff0 	stmdb	r0!, {r4, r5, r6, r7, r8, r9, sl, fp}
 8000d94:	6010      	str	r0, [r2, #0]
 8000d96:	e92d 4008 	stmdb	sp!, {r3, lr}
 8000d9a:	f04f 00bf 	mov.w	r0, #191	; 0xbf
 8000d9e:	f380 8811 	msr	BASEPRI, r0
 8000da2:	f7ff fee3 	bl	8000b6c <vTaskSwitchContext>
 8000da6:	f04f 0000 	mov.w	r0, #0
 8000daa:	f380 8811 	msr	BASEPRI, r0
 8000dae:	e8bd 4008 	ldmia.w	sp!, {r3, lr}
 8000db2:	6819      	ldr	r1, [r3, #0]
 8000db4:	6808      	ldr	r0, [r1, #0]
 8000db6:	e8b0 0ff0 	ldmia.w	r0!, {r4, r5, r6, r7, r8, r9, sl, fp}
 8000dba:	f380 8809 	msr	PSP, r0
 8000dbe:	4770      	bx	lr

08000dc0 <pxCurrentTCBConst>:
 8000dc0:	20000088 	andcs	r0, r0, r8, lsl #1

08000dc4 <xPortSysTickHandler>:
 8000dc4:	b508      	push	{r3, lr}
 8000dc6:	4b07      	ldr	r3, [pc, #28]	; (8000de4 <xPortSysTickHandler+0x20>)
 8000dc8:	f04f 5280 	mov.w	r2, #268435456	; 0x10000000
 8000dcc:	601a      	str	r2, [r3, #0]
 8000dce:	f04f 00bf 	mov.w	r0, #191	; 0xbf
 8000dd2:	f380 8811 	msr	BASEPRI, r0
 8000dd6:	f7ff fdf7 	bl	80009c8 <vTaskIncrementTick>
 8000dda:	f04f 0000 	mov.w	r0, #0
 8000dde:	f380 8811 	msr	BASEPRI, r0
 8000de2:	bd08      	pop	{r3, pc}
 8000de4:	e000ed04 	and	lr, r0, r4, lsl #26
 8000de8:	e000ed08 	and	lr, r0, r8, lsl #26

08000dec <pvPortMalloc>:
 8000dec:	f010 0f07 	tst.w	r0, #7
 8000df0:	b538      	push	{r3, r4, r5, lr}
 8000df2:	4605      	mov	r5, r0
 8000df4:	bf1c      	itt	ne
 8000df6:	f020 0507 	bicne.w	r5, r0, #7
 8000dfa:	3508      	addne	r5, #8
 8000dfc:	f7ff fdba 	bl	8000974 <vTaskSuspendAll>
 8000e00:	4b08      	ldr	r3, [pc, #32]	; (8000e24 <pvPortMalloc+0x38>)
 8000e02:	681a      	ldr	r2, [r3, #0]
 8000e04:	18ad      	adds	r5, r5, r2
 8000e06:	f5b5 6f20 	cmp.w	r5, #2560	; 0xa00
 8000e0a:	d206      	bcs.n	8000e1a <pvPortMalloc+0x2e>
 8000e0c:	4295      	cmp	r5, r2
 8000e0e:	d904      	bls.n	8000e1a <pvPortMalloc+0x2e>
 8000e10:	f103 0408 	add.w	r4, r3, #8
 8000e14:	18a4      	adds	r4, r4, r2
 8000e16:	601d      	str	r5, [r3, #0]
 8000e18:	e000      	b.n	8000e1c <pvPortMalloc+0x30>
 8000e1a:	2400      	movs	r4, #0
 8000e1c:	f7ff fe2e 	bl	8000a7c <xTaskResumeAll>
 8000e20:	4620      	mov	r0, r4
 8000e22:	bd38      	pop	{r3, r4, r5, pc}
 8000e24:	20000160 	andcs	r0, r0, r0, ror #2

08000e28 <vPortFree>:
 8000e28:	4770      	bx	lr

08000e2a <vPortInitialiseBlocks>:
 8000e2a:	4b02      	ldr	r3, [pc, #8]	; (8000e34 <vPortInitialiseBlocks+0xa>)
 8000e2c:	2200      	movs	r2, #0
 8000e2e:	601a      	str	r2, [r3, #0]
 8000e30:	4770      	bx	lr
 8000e32:	bf00      	nop
 8000e34:	20000160 	andcs	r0, r0, r0, ror #2

08000e38 <xPortGetFreeHeapSize>:
 8000e38:	4b02      	ldr	r3, [pc, #8]	; (8000e44 <xPortGetFreeHeapSize+0xc>)
 8000e3a:	6818      	ldr	r0, [r3, #0]
 8000e3c:	f5c0 6020 	rsb	r0, r0, #2560	; 0xa00
 8000e40:	4770      	bx	lr
 8000e42:	bf00      	nop
 8000e44:	20000160 	andcs	r0, r0, r0, ror #2

08000e48 <memcpy>:
 8000e48:	2a03      	cmp	r2, #3
 8000e4a:	e92d 01f0 	stmdb	sp!, {r4, r5, r6, r7, r8}
 8000e4e:	d809      	bhi.n	8000e64 <memcpy+0x1c>
 8000e50:	b12a      	cbz	r2, 8000e5e <memcpy+0x16>
 8000e52:	2300      	movs	r3, #0
 8000e54:	5ccc      	ldrb	r4, [r1, r3]
 8000e56:	54c4      	strb	r4, [r0, r3]
 8000e58:	3301      	adds	r3, #1
 8000e5a:	4293      	cmp	r3, r2
 8000e5c:	d1fa      	bne.n	8000e54 <memcpy+0xc>
 8000e5e:	e8bd 01f0 	ldmia.w	sp!, {r4, r5, r6, r7, r8}
 8000e62:	4770      	bx	lr
 8000e64:	460b      	mov	r3, r1
 8000e66:	1882      	adds	r2, r0, r2
 8000e68:	4601      	mov	r1, r0
 8000e6a:	e003      	b.n	8000e74 <memcpy+0x2c>
 8000e6c:	7824      	ldrb	r4, [r4, #0]
 8000e6e:	3301      	adds	r3, #1
 8000e70:	f801 4b01 	strb.w	r4, [r1], #1
 8000e74:	f011 0f03 	tst.w	r1, #3
 8000e78:	461c      	mov	r4, r3
 8000e7a:	d1f7      	bne.n	8000e6c <memcpy+0x24>
 8000e7c:	f013 0503 	ands.w	r5, r3, #3
 8000e80:	d05d      	beq.n	8000f3e <memcpy+0xf6>
 8000e82:	426e      	negs	r6, r5
 8000e84:	f1c5 0c04 	rsb	ip, r5, #4
 8000e88:	00ed      	lsls	r5, r5, #3
 8000e8a:	599b      	ldr	r3, [r3, r6]
 8000e8c:	ea4f 0ccc 	mov.w	ip, ip, lsl #3
 8000e90:	e008      	b.n	8000ea4 <memcpy+0x5c>
 8000e92:	3404      	adds	r4, #4
 8000e94:	59a7      	ldr	r7, [r4, r6]
 8000e96:	463b      	mov	r3, r7
 8000e98:	fa07 f70c 	lsl.w	r7, r7, ip
 8000e9c:	ea48 0707 	orr.w	r7, r8, r7
 8000ea0:	f841 7b04 	str.w	r7, [r1], #4
 8000ea4:	1a57      	subs	r7, r2, r1
 8000ea6:	fa23 f805 	lsr.w	r8, r3, r5
 8000eaa:	2f03      	cmp	r7, #3
 8000eac:	dcf1      	bgt.n	8000e92 <memcpy+0x4a>
 8000eae:	e003      	b.n	8000eb8 <memcpy+0x70>
 8000eb0:	f814 3b01 	ldrb.w	r3, [r4], #1
 8000eb4:	f801 3b01 	strb.w	r3, [r1], #1
 8000eb8:	428a      	cmp	r2, r1
 8000eba:	d8f9      	bhi.n	8000eb0 <memcpy+0x68>
 8000ebc:	e7cf      	b.n	8000e5e <memcpy+0x16>
 8000ebe:	f853 4c40 	ldr.w	r4, [r3, #-64]
 8000ec2:	f841 4c40 	str.w	r4, [r1, #-64]
 8000ec6:	f853 4c3c 	ldr.w	r4, [r3, #-60]
 8000eca:	f841 4c3c 	str.w	r4, [r1, #-60]
 8000ece:	f853 4c38 	ldr.w	r4, [r3, #-56]
 8000ed2:	f841 4c38 	str.w	r4, [r1, #-56]
 8000ed6:	f853 4c34 	ldr.w	r4, [r3, #-52]
 8000eda:	f841 4c34 	str.w	r4, [r1, #-52]
 8000ede:	f853 4c30 	ldr.w	r4, [r3, #-48]
 8000ee2:	f841 4c30 	str.w	r4, [r1, #-48]
 8000ee6:	f853 4c2c 	ldr.w	r4, [r3, #-44]
 8000eea:	f841 4c2c 	str.w	r4, [r1, #-44]
 8000eee:	f853 4c28 	ldr.w	r4, [r3, #-40]
 8000ef2:	f841 4c28 	str.w	r4, [r1, #-40]
 8000ef6:	f853 4c24 	ldr.w	r4, [r3, #-36]
 8000efa:	f841 4c24 	str.w	r4, [r1, #-36]
 8000efe:	f853 4c20 	ldr.w	r4, [r3, #-32]
 8000f02:	f841 4c20 	str.w	r4, [r1, #-32]
 8000f06:	f853 4c1c 	ldr.w	r4, [r3, #-28]
 8000f0a:	f841 4c1c 	str.w	r4, [r1, #-28]
 8000f0e:	f853 4c18 	ldr.w	r4, [r3, #-24]
 8000f12:	f841 4c18 	str.w	r4, [r1, #-24]
 8000f16:	f853 4c14 	ldr.w	r4, [r3, #-20]
 8000f1a:	f841 4c14 	str.w	r4, [r1, #-20]
 8000f1e:	f853 4c10 	ldr.w	r4, [r3, #-16]
 8000f22:	f841 4c10 	str.w	r4, [r1, #-16]
 8000f26:	f853 4c0c 	ldr.w	r4, [r3, #-12]
 8000f2a:	f841 4c0c 	str.w	r4, [r1, #-12]
 8000f2e:	f853 4c08 	ldr.w	r4, [r3, #-8]
 8000f32:	f841 4c08 	str.w	r4, [r1, #-8]
 8000f36:	f853 4c04 	ldr.w	r4, [r3, #-4]
 8000f3a:	f841 4c04 	str.w	r4, [r1, #-4]
 8000f3e:	1a56      	subs	r6, r2, r1
 8000f40:	461d      	mov	r5, r3
 8000f42:	460c      	mov	r4, r1
 8000f44:	3340      	adds	r3, #64	; 0x40
 8000f46:	3140      	adds	r1, #64	; 0x40
 8000f48:	2e3f      	cmp	r6, #63	; 0x3f
 8000f4a:	dcb8      	bgt.n	8000ebe <memcpy+0x76>
 8000f4c:	462b      	mov	r3, r5
 8000f4e:	e00f      	b.n	8000f70 <memcpy+0x128>
 8000f50:	f853 1c10 	ldr.w	r1, [r3, #-16]
 8000f54:	f844 1c10 	str.w	r1, [r4, #-16]
 8000f58:	f853 1c0c 	ldr.w	r1, [r3, #-12]
 8000f5c:	f844 1c0c 	str.w	r1, [r4, #-12]
 8000f60:	f853 1c08 	ldr.w	r1, [r3, #-8]
 8000f64:	f844 1c08 	str.w	r1, [r4, #-8]
 8000f68:	f853 1c04 	ldr.w	r1, [r3, #-4]
 8000f6c:	f844 1c04 	str.w	r1, [r4, #-4]
 8000f70:	1b16      	subs	r6, r2, r4
 8000f72:	461d      	mov	r5, r3
 8000f74:	3310      	adds	r3, #16
 8000f76:	2e0f      	cmp	r6, #15
 8000f78:	4621      	mov	r1, r4
 8000f7a:	f104 0410 	add.w	r4, r4, #16
 8000f7e:	dce7      	bgt.n	8000f50 <memcpy+0x108>
 8000f80:	462b      	mov	r3, r5
 8000f82:	e002      	b.n	8000f8a <memcpy+0x142>
 8000f84:	6824      	ldr	r4, [r4, #0]
 8000f86:	f841 4b04 	str.w	r4, [r1], #4
 8000f8a:	1a55      	subs	r5, r2, r1
 8000f8c:	461c      	mov	r4, r3
 8000f8e:	2d03      	cmp	r5, #3
 8000f90:	f103 0304 	add.w	r3, r3, #4
 8000f94:	dcf6      	bgt.n	8000f84 <memcpy+0x13c>
 8000f96:	e78f      	b.n	8000eb8 <memcpy+0x70>

08000f98 <memset>:
 8000f98:	2a03      	cmp	r2, #3
 8000f9a:	b2c9      	uxtb	r1, r1
 8000f9c:	b470      	push	{r4, r5, r6}
 8000f9e:	d808      	bhi.n	8000fb2 <memset+0x1a>
 8000fa0:	b12a      	cbz	r2, 8000fae <memset+0x16>
 8000fa2:	4603      	mov	r3, r0
 8000fa4:	1812      	adds	r2, r2, r0
 8000fa6:	f803 1b01 	strb.w	r1, [r3], #1
 8000faa:	4293      	cmp	r3, r2
 8000fac:	d1fb      	bne.n	8000fa6 <memset+0xe>
 8000fae:	bc70      	pop	{r4, r5, r6}
 8000fb0:	4770      	bx	lr
 8000fb2:	1882      	adds	r2, r0, r2
 8000fb4:	4604      	mov	r4, r0
 8000fb6:	e001      	b.n	8000fbc <memset+0x24>
 8000fb8:	f804 1b01 	strb.w	r1, [r4], #1
 8000fbc:	f014 0f03 	tst.w	r4, #3
 8000fc0:	d1fa      	bne.n	8000fb8 <memset+0x20>
 8000fc2:	f04f 3301 	mov.w	r3, #16843009	; 0x1010101
 8000fc6:	fb03 f301 	mul.w	r3, r3, r1
 8000fca:	e01f      	b.n	800100c <memset+0x74>
 8000fcc:	f844 3c40 	str.w	r3, [r4, #-64]
 8000fd0:	f844 3c3c 	str.w	r3, [r4, #-60]
 8000fd4:	f844 3c38 	str.w	r3, [r4, #-56]
 8000fd8:	f844 3c34 	str.w	r3, [r4, #-52]
 8000fdc:	f844 3c30 	str.w	r3, [r4, #-48]
 8000fe0:	f844 3c2c 	str.w	r3, [r4, #-44]
 8000fe4:	f844 3c28 	str.w	r3, [r4, #-40]
 8000fe8:	f844 3c24 	str.w	r3, [r4, #-36]
 8000fec:	f844 3c20 	str.w	r3, [r4, #-32]
 8000ff0:	f844 3c1c 	str.w	r3, [r4, #-28]
 8000ff4:	f844 3c18 	str.w	r3, [r4, #-24]
 8000ff8:	f844 3c14 	str.w	r3, [r4, #-20]
 8000ffc:	f844 3c10 	str.w	r3, [r4, #-16]
 8001000:	f844 3c0c 	str.w	r3, [r4, #-12]
 8001004:	f844 3c08 	str.w	r3, [r4, #-8]
 8001008:	f844 3c04 	str.w	r3, [r4, #-4]
 800100c:	1b16      	subs	r6, r2, r4
 800100e:	4625      	mov	r5, r4
 8001010:	3440      	adds	r4, #64	; 0x40
 8001012:	2e3f      	cmp	r6, #63	; 0x3f
 8001014:	dcda      	bgt.n	8000fcc <memset+0x34>
 8001016:	462c      	mov	r4, r5
 8001018:	e007      	b.n	800102a <memset+0x92>
 800101a:	f844 3c10 	str.w	r3, [r4, #-16]
 800101e:	f844 3c0c 	str.w	r3, [r4, #-12]
 8001022:	f844 3c08 	str.w	r3, [r4, #-8]
 8001026:	f844 3c04 	str.w	r3, [r4, #-4]
 800102a:	1b16      	subs	r6, r2, r4
 800102c:	4625      	mov	r5, r4
 800102e:	3410      	adds	r4, #16
 8001030:	2e0f      	cmp	r6, #15
 8001032:	dcf2      	bgt.n	800101a <memset+0x82>
 8001034:	e001      	b.n	800103a <memset+0xa2>
 8001036:	f845 3b04 	str.w	r3, [r5], #4
 800103a:	1b54      	subs	r4, r2, r5
 800103c:	2c03      	cmp	r4, #3
 800103e:	dcfa      	bgt.n	8001036 <memset+0x9e>
 8001040:	e001      	b.n	8001046 <memset+0xae>
 8001042:	f805 1b01 	strb.w	r1, [r5], #1
 8001046:	4295      	cmp	r5, r2
 8001048:	d3fb      	bcc.n	8001042 <memset+0xaa>
 800104a:	e7b0      	b.n	8000fae <memset+0x16>

0800104c <strncpy>:
 800104c:	ea41 0300 	orr.w	r3, r1, r0
 8001050:	f013 0f03 	tst.w	r3, #3
 8001054:	4603      	mov	r3, r0
 8001056:	b470      	push	{r4, r5, r6}
 8001058:	bf14      	ite	ne
 800105a:	2500      	movne	r5, #0
 800105c:	2501      	moveq	r5, #1
 800105e:	2a03      	cmp	r2, #3
 8001060:	bf94      	ite	ls
 8001062:	2500      	movls	r5, #0
 8001064:	f005 0501 	andhi.w	r5, r5, #1
 8001068:	460c      	mov	r4, r1
 800106a:	4606      	mov	r6, r0
 800106c:	b9cd      	cbnz	r5, 80010a2 <strncpy+0x56>
 800106e:	b1b2      	cbz	r2, 800109e <strncpy+0x52>
 8001070:	780d      	ldrb	r5, [r1, #0]
 8001072:	4634      	mov	r4, r6
 8001074:	1e53      	subs	r3, r2, #1
 8001076:	f804 5b01 	strb.w	r5, [r4], #1
 800107a:	b155      	cbz	r5, 8001092 <strncpy+0x46>
 800107c:	1cb2      	adds	r2, r6, #2
 800107e:	b173      	cbz	r3, 800109e <strncpy+0x52>
 8001080:	f811 5f01 	ldrb.w	r5, [r1, #1]!
 8001084:	4614      	mov	r4, r2
 8001086:	3b01      	subs	r3, #1
 8001088:	f802 5c01 	strb.w	r5, [r2, #-1]
 800108c:	3201      	adds	r2, #1
 800108e:	2d00      	cmp	r5, #0
 8001090:	d1f5      	bne.n	800107e <strncpy+0x32>
 8001092:	b123      	cbz	r3, 800109e <strncpy+0x52>
 8001094:	2200      	movs	r2, #0
 8001096:	3b01      	subs	r3, #1
 8001098:	f804 2b01 	strb.w	r2, [r4], #1
 800109c:	d1fb      	bne.n	8001096 <strncpy+0x4a>
 800109e:	bc70      	pop	{r4, r5, r6}
 80010a0:	4770      	bx	lr
 80010a2:	4621      	mov	r1, r4
 80010a4:	f854 5b04 	ldr.w	r5, [r4], #4
 80010a8:	f1a5 3601 	sub.w	r6, r5, #16843009	; 0x1010101
 80010ac:	ea26 0605 	bic.w	r6, r6, r5
 80010b0:	f016 3f80 	tst.w	r6, #2155905152	; 0x80808080
 80010b4:	d105      	bne.n	80010c2 <strncpy+0x76>
 80010b6:	3a04      	subs	r2, #4
 80010b8:	f843 5b04 	str.w	r5, [r3], #4
 80010bc:	2a03      	cmp	r2, #3
 80010be:	4621      	mov	r1, r4
 80010c0:	d8ef      	bhi.n	80010a2 <strncpy+0x56>
 80010c2:	461e      	mov	r6, r3
 80010c4:	e7d3      	b.n	800106e <strncpy+0x22>
 80010c6:	bf00      	nop

080010c8 <ulKernelPriority>:
 80010c8:	000000ff 	strdeq	r0, [r0], -pc	; <UNPREDICTABLE>
 80010cc:	6b736154 	blvs	9cd9624 <__text_end+0x1cd854d>
 80010d0:	44490031 	strbmi	r0, [r9], #-49	; 0x31
 80010d4:	Address 0x00000000080010d4 is out of bounds.

