
firmware.elf:     file format elf32-littlearm


Disassembly of section .text:

08000000 <vector_table>:
 8000000:	20003ffc 	strdcs	r3, [r0], -ip
 8000004:	08000075 	stmdaeq	r0, {r0, r2, r4, r5, r6}
	...
 800002c:	08000ced 	stmdaeq	r0, {r0, r2, r3, r5, r6, r7, sl, fp}
	...
 8000038:	08000d89 	stmdaeq	r0, {r0, r3, r7, r8, sl, fp}
 800003c:	08000dc5 	stmdaeq	r0, {r0, r2, r6, r7, r8, sl, fp}

08000040 <task1>:
 8000040:	e7fe      	b.n	8000040 <task1>

08000042 <work>:
 8000042:	b51f      	push	{r0, r1, r2, r3, r4, lr}
 8000044:	2301      	movs	r3, #1
 8000046:	9300      	str	r3, [sp, #0]
 8000048:	4906      	ldr	r1, [pc, #24]	; (8000064 <work+0x22>)
 800004a:	3b01      	subs	r3, #1
 800004c:	2278      	movs	r2, #120	; 0x78
 800004e:	4806      	ldr	r0, [pc, #24]	; (8000068 <work+0x26>)
 8000050:	9301      	str	r3, [sp, #4]
 8000052:	9302      	str	r3, [sp, #8]
 8000054:	9303      	str	r3, [sp, #12]
 8000056:	f000 fb9f 	bl	8000798 <xTaskGenericCreate>
 800005a:	b005      	add	sp, #20
 800005c:	f85d eb04 	ldr.w	lr, [sp], #4
 8000060:	f000 bc58 	b.w	8000914 <vTaskStartScheduler>
 8000064:	080010cc 	stmdaeq	r0, {r2, r3, r6, r7, ip}
 8000068:	08000041 	stmdaeq	r0, {r0, r6}

0800006c <vApplicationStackOverflowHook>:
 800006c:	e7fe      	b.n	800006c <vApplicationStackOverflowHook>

0800006e <assert_failed>:
 800006e:	e7fe      	b.n	800006e <assert_failed>

08000070 <_sbrk_r>:
 8000070:	2000      	movs	r0, #0
 8000072:	4770      	bx	lr

08000074 <reset_handler>:
 8000074:	f7ff bfe5 	b.w	8000042 <work>

08000078 <vListInitialise>:
 8000078:	f100 0308 	add.w	r3, r0, #8
 800007c:	f04f 32ff 	mov.w	r2, #4294967295	; 0xffffffff
 8000080:	6082      	str	r2, [r0, #8]
 8000082:	6043      	str	r3, [r0, #4]
 8000084:	60c3      	str	r3, [r0, #12]
 8000086:	6103      	str	r3, [r0, #16]
 8000088:	2300      	movs	r3, #0
 800008a:	6003      	str	r3, [r0, #0]
 800008c:	4770      	bx	lr

0800008e <vListInitialiseItem>:
 800008e:	2300      	movs	r3, #0
 8000090:	6103      	str	r3, [r0, #16]
 8000092:	4770      	bx	lr

08000094 <vListInsertEnd>:
 8000094:	6843      	ldr	r3, [r0, #4]
 8000096:	685a      	ldr	r2, [r3, #4]
 8000098:	608b      	str	r3, [r1, #8]
 800009a:	604a      	str	r2, [r1, #4]
 800009c:	685a      	ldr	r2, [r3, #4]
 800009e:	6091      	str	r1, [r2, #8]
 80000a0:	6059      	str	r1, [r3, #4]
 80000a2:	6041      	str	r1, [r0, #4]
 80000a4:	6108      	str	r0, [r1, #16]
 80000a6:	6803      	ldr	r3, [r0, #0]
 80000a8:	3301      	adds	r3, #1
 80000aa:	6003      	str	r3, [r0, #0]
 80000ac:	4770      	bx	lr

080000ae <vListInsert>:
 80000ae:	680a      	ldr	r2, [r1, #0]
 80000b0:	b510      	push	{r4, lr}
 80000b2:	f1b2 3fff 	cmp.w	r2, #4294967295	; 0xffffffff
 80000b6:	d101      	bne.n	80000bc <vListInsert+0xe>
 80000b8:	6903      	ldr	r3, [r0, #16]
 80000ba:	e007      	b.n	80000cc <vListInsert+0x1e>
 80000bc:	f100 0308 	add.w	r3, r0, #8
 80000c0:	e000      	b.n	80000c4 <vListInsert+0x16>
 80000c2:	685b      	ldr	r3, [r3, #4]
 80000c4:	685c      	ldr	r4, [r3, #4]
 80000c6:	6824      	ldr	r4, [r4, #0]
 80000c8:	4294      	cmp	r4, r2
 80000ca:	d9fa      	bls.n	80000c2 <vListInsert+0x14>
 80000cc:	685a      	ldr	r2, [r3, #4]
 80000ce:	6108      	str	r0, [r1, #16]
 80000d0:	6091      	str	r1, [r2, #8]
 80000d2:	604a      	str	r2, [r1, #4]
 80000d4:	608b      	str	r3, [r1, #8]
 80000d6:	6059      	str	r1, [r3, #4]
 80000d8:	6803      	ldr	r3, [r0, #0]
 80000da:	3301      	adds	r3, #1
 80000dc:	6003      	str	r3, [r0, #0]
 80000de:	bd10      	pop	{r4, pc}

080000e0 <vListRemove>:
 80000e0:	6843      	ldr	r3, [r0, #4]
 80000e2:	6882      	ldr	r2, [r0, #8]
 80000e4:	609a      	str	r2, [r3, #8]
 80000e6:	6882      	ldr	r2, [r0, #8]
 80000e8:	6053      	str	r3, [r2, #4]
 80000ea:	6903      	ldr	r3, [r0, #16]
 80000ec:	6859      	ldr	r1, [r3, #4]
 80000ee:	4281      	cmp	r1, r0
 80000f0:	bf08      	it	eq
 80000f2:	605a      	streq	r2, [r3, #4]
 80000f4:	2200      	movs	r2, #0
 80000f6:	6102      	str	r2, [r0, #16]
 80000f8:	681a      	ldr	r2, [r3, #0]
 80000fa:	3a01      	subs	r2, #1
 80000fc:	601a      	str	r2, [r3, #0]
 80000fe:	4770      	bx	lr

08000100 <xCoRoutineCreate>:
 8000100:	e92d 4ff8 	stmdb	sp!, {r3, r4, r5, r6, r7, r8, r9, sl, fp, lr}
 8000104:	4604      	mov	r4, r0
 8000106:	2038      	movs	r0, #56	; 0x38
 8000108:	460d      	mov	r5, r1
 800010a:	4693      	mov	fp, r2
 800010c:	f000 fe6e 	bl	8000dec <pvPortMalloc>
 8000110:	4606      	mov	r6, r0
 8000112:	2800      	cmp	r0, #0
 8000114:	d048      	beq.n	80001a8 <xCoRoutineCreate+0xa8>
 8000116:	4f26      	ldr	r7, [pc, #152]	; (80001b0 <xCoRoutineCreate+0xb0>)
 8000118:	683b      	ldr	r3, [r7, #0]
 800011a:	f107 0804 	add.w	r8, r7, #4
 800011e:	b9cb      	cbnz	r3, 8000154 <xCoRoutineCreate+0x54>
 8000120:	6038      	str	r0, [r7, #0]
 8000122:	4640      	mov	r0, r8
 8000124:	f7ff ffa8 	bl	8000078 <vListInitialise>
 8000128:	f107 0a2c 	add.w	sl, r7, #44	; 0x2c
 800012c:	f107 0018 	add.w	r0, r7, #24
 8000130:	f7ff ffa2 	bl	8000078 <vListInitialise>
 8000134:	f107 0940 	add.w	r9, r7, #64	; 0x40
 8000138:	4650      	mov	r0, sl
 800013a:	f7ff ff9d 	bl	8000078 <vListInitialise>
 800013e:	4648      	mov	r0, r9
 8000140:	f7ff ff9a 	bl	8000078 <vListInitialise>
 8000144:	f107 0054 	add.w	r0, r7, #84	; 0x54
 8000148:	f7ff ff96 	bl	8000078 <vListInitialise>
 800014c:	f8c7 a068 	str.w	sl, [r7, #104]	; 0x68
 8000150:	f8c7 906c 	str.w	r9, [r7, #108]	; 0x6c
 8000154:	2d01      	cmp	r5, #1
 8000156:	bf34      	ite	cc
 8000158:	46a9      	movcc	r9, r5
 800015a:	f04f 0901 	movcs.w	r9, #1
 800015e:	4635      	mov	r5, r6
 8000160:	2300      	movs	r3, #0
 8000162:	f845 4b04 	str.w	r4, [r5], #4
 8000166:	86b3      	strh	r3, [r6, #52]	; 0x34
 8000168:	4628      	mov	r0, r5
 800016a:	f8c6 902c 	str.w	r9, [r6, #44]	; 0x2c
 800016e:	f8c6 b030 	str.w	fp, [r6, #48]	; 0x30
 8000172:	f7ff ff8c 	bl	800008e <vListInitialiseItem>
 8000176:	f106 0018 	add.w	r0, r6, #24
 800017a:	f7ff ff88 	bl	800008e <vListInitialiseItem>
 800017e:	f1c9 0305 	rsb	r3, r9, #5
 8000182:	6f3a      	ldr	r2, [r7, #112]	; 0x70
 8000184:	61b3      	str	r3, [r6, #24]
 8000186:	6af3      	ldr	r3, [r6, #44]	; 0x2c
 8000188:	6136      	str	r6, [r6, #16]
 800018a:	4293      	cmp	r3, r2
 800018c:	bf88      	it	hi
 800018e:	4a08      	ldrhi	r2, [pc, #32]	; (80001b0 <xCoRoutineCreate+0xb0>)
 8000190:	6276      	str	r6, [r6, #36]	; 0x24
 8000192:	bf88      	it	hi
 8000194:	6713      	strhi	r3, [r2, #112]	; 0x70
 8000196:	2014      	movs	r0, #20
 8000198:	fb00 8003 	mla	r0, r0, r3, r8
 800019c:	4629      	mov	r1, r5
 800019e:	f7ff ff79 	bl	8000094 <vListInsertEnd>
 80001a2:	2001      	movs	r0, #1
 80001a4:	e8bd 8ff8 	ldmia.w	sp!, {r3, r4, r5, r6, r7, r8, r9, sl, fp, pc}
 80001a8:	f04f 30ff 	mov.w	r0, #4294967295	; 0xffffffff
 80001ac:	e8bd 8ff8 	ldmia.w	sp!, {r3, r4, r5, r6, r7, r8, r9, sl, fp, pc}
 80001b0:	20000008 	andcs	r0, r0, r8

080001b4 <vCoRoutineAddToDelayedList>:
 80001b4:	b570      	push	{r4, r5, r6, lr}
 80001b6:	4c0d      	ldr	r4, [pc, #52]	; (80001ec <vCoRoutineAddToDelayedList+0x38>)
 80001b8:	460d      	mov	r5, r1
 80001ba:	6f66      	ldr	r6, [r4, #116]	; 0x74
 80001bc:	1986      	adds	r6, r0, r6
 80001be:	6820      	ldr	r0, [r4, #0]
 80001c0:	3004      	adds	r0, #4
 80001c2:	f7ff ff8d 	bl	80000e0 <vListRemove>
 80001c6:	6f63      	ldr	r3, [r4, #116]	; 0x74
 80001c8:	6821      	ldr	r1, [r4, #0]
 80001ca:	429e      	cmp	r6, r3
 80001cc:	bf34      	ite	cc
 80001ce:	6ee0      	ldrcc	r0, [r4, #108]	; 0x6c
 80001d0:	6ea0      	ldrcs	r0, [r4, #104]	; 0x68
 80001d2:	f841 6f04 	str.w	r6, [r1, #4]!
 80001d6:	f7ff ff6a 	bl	80000ae <vListInsert>
 80001da:	b135      	cbz	r5, 80001ea <vCoRoutineAddToDelayedList+0x36>
 80001dc:	6821      	ldr	r1, [r4, #0]
 80001de:	4628      	mov	r0, r5
 80001e0:	3118      	adds	r1, #24
 80001e2:	e8bd 4070 	ldmia.w	sp!, {r4, r5, r6, lr}
 80001e6:	f7ff bf62 	b.w	80000ae <vListInsert>
 80001ea:	bd70      	pop	{r4, r5, r6, pc}
 80001ec:	20000008 	andcs	r0, r0, r8

080001f0 <vCoRoutineSchedule>:
 80001f0:	b570      	push	{r4, r5, r6, lr}
 80001f2:	e01d      	b.n	8000230 <vCoRoutineSchedule+0x40>
 80001f4:	f04f 00bf 	mov.w	r0, #191	; 0xbf
 80001f8:	f380 8811 	msr	BASEPRI, r0
 80001fc:	6e2b      	ldr	r3, [r5, #96]	; 0x60
 80001fe:	68dc      	ldr	r4, [r3, #12]
 8000200:	f104 0018 	add.w	r0, r4, #24
 8000204:	f7ff ff6c 	bl	80000e0 <vListRemove>
 8000208:	f04f 0000 	mov.w	r0, #0
 800020c:	f380 8811 	msr	BASEPRI, r0
 8000210:	1d26      	adds	r6, r4, #4
 8000212:	4630      	mov	r0, r6
 8000214:	f7ff ff64 	bl	80000e0 <vListRemove>
 8000218:	6ae3      	ldr	r3, [r4, #44]	; 0x2c
 800021a:	6f2a      	ldr	r2, [r5, #112]	; 0x70
 800021c:	4631      	mov	r1, r6
 800021e:	4293      	cmp	r3, r2
 8000220:	4a37      	ldr	r2, [pc, #220]	; (8000300 <vCoRoutineSchedule+0x110>)
 8000222:	bf88      	it	hi
 8000224:	672b      	strhi	r3, [r5, #112]	; 0x70
 8000226:	2014      	movs	r0, #20
 8000228:	fb00 2003 	mla	r0, r0, r3, r2
 800022c:	f7ff ff32 	bl	8000094 <vListInsertEnd>
 8000230:	4d34      	ldr	r5, [pc, #208]	; (8000304 <vCoRoutineSchedule+0x114>)
 8000232:	6d6b      	ldr	r3, [r5, #84]	; 0x54
 8000234:	462c      	mov	r4, r5
 8000236:	2b00      	cmp	r3, #0
 8000238:	d1dc      	bne.n	80001f4 <vCoRoutineSchedule+0x4>
 800023a:	f000 fba5 	bl	8000988 <xTaskGetTickCount>
 800023e:	6feb      	ldr	r3, [r5, #124]	; 0x7c
 8000240:	1ac3      	subs	r3, r0, r3
 8000242:	67ab      	str	r3, [r5, #120]	; 0x78
 8000244:	e035      	b.n	80002b2 <vCoRoutineSchedule+0xc2>
 8000246:	6f59      	ldr	r1, [r3, #116]	; 0x74
 8000248:	3a01      	subs	r2, #1
 800024a:	3101      	adds	r1, #1
 800024c:	6759      	str	r1, [r3, #116]	; 0x74
 800024e:	679a      	str	r2, [r3, #120]	; 0x78
 8000250:	2900      	cmp	r1, #0
 8000252:	d12a      	bne.n	80002aa <vCoRoutineSchedule+0xba>
 8000254:	6e9a      	ldr	r2, [r3, #104]	; 0x68
 8000256:	6ed9      	ldr	r1, [r3, #108]	; 0x6c
 8000258:	66da      	str	r2, [r3, #108]	; 0x6c
 800025a:	6699      	str	r1, [r3, #104]	; 0x68
 800025c:	e025      	b.n	80002aa <vCoRoutineSchedule+0xba>
 800025e:	68db      	ldr	r3, [r3, #12]
 8000260:	68dd      	ldr	r5, [r3, #12]
 8000262:	4b28      	ldr	r3, [pc, #160]	; (8000304 <vCoRoutineSchedule+0x114>)
 8000264:	6f5a      	ldr	r2, [r3, #116]	; 0x74
 8000266:	686b      	ldr	r3, [r5, #4]
 8000268:	429a      	cmp	r2, r3
 800026a:	d322      	bcc.n	80002b2 <vCoRoutineSchedule+0xc2>
 800026c:	f04f 00bf 	mov.w	r0, #191	; 0xbf
 8000270:	f380 8811 	msr	BASEPRI, r0
 8000274:	1d2e      	adds	r6, r5, #4
 8000276:	4630      	mov	r0, r6
 8000278:	f7ff ff32 	bl	80000e0 <vListRemove>
 800027c:	6aab      	ldr	r3, [r5, #40]	; 0x28
 800027e:	b11b      	cbz	r3, 8000288 <vCoRoutineSchedule+0x98>
 8000280:	f105 0018 	add.w	r0, r5, #24
 8000284:	f7ff ff2c 	bl	80000e0 <vListRemove>
 8000288:	f04f 0000 	mov.w	r0, #0
 800028c:	f380 8811 	msr	BASEPRI, r0
 8000290:	6f22      	ldr	r2, [r4, #112]	; 0x70
 8000292:	6aeb      	ldr	r3, [r5, #44]	; 0x2c
 8000294:	4631      	mov	r1, r6
 8000296:	4293      	cmp	r3, r2
 8000298:	bf84      	itt	hi
 800029a:	4a1a      	ldrhi	r2, [pc, #104]	; (8000304 <vCoRoutineSchedule+0x114>)
 800029c:	6713      	strhi	r3, [r2, #112]	; 0x70
 800029e:	4a18      	ldr	r2, [pc, #96]	; (8000300 <vCoRoutineSchedule+0x110>)
 80002a0:	2014      	movs	r0, #20
 80002a2:	fb00 2003 	mla	r0, r0, r3, r2
 80002a6:	f7ff fef5 	bl	8000094 <vListInsertEnd>
 80002aa:	6ea3      	ldr	r3, [r4, #104]	; 0x68
 80002ac:	681a      	ldr	r2, [r3, #0]
 80002ae:	2a00      	cmp	r2, #0
 80002b0:	d1d5      	bne.n	800025e <vCoRoutineSchedule+0x6e>
 80002b2:	6fa2      	ldr	r2, [r4, #120]	; 0x78
 80002b4:	4b13      	ldr	r3, [pc, #76]	; (8000304 <vCoRoutineSchedule+0x114>)
 80002b6:	2a00      	cmp	r2, #0
 80002b8:	d1c5      	bne.n	8000246 <vCoRoutineSchedule+0x56>
 80002ba:	6f5a      	ldr	r2, [r3, #116]	; 0x74
 80002bc:	67da      	str	r2, [r3, #124]	; 0x7c
 80002be:	6f1b      	ldr	r3, [r3, #112]	; 0x70
 80002c0:	e003      	b.n	80002ca <vCoRoutineSchedule+0xda>
 80002c2:	b90b      	cbnz	r3, 80002c8 <vCoRoutineSchedule+0xd8>
 80002c4:	670b      	str	r3, [r1, #112]	; 0x70
 80002c6:	bd70      	pop	{r4, r5, r6, pc}
 80002c8:	3b01      	subs	r3, #1
 80002ca:	2014      	movs	r0, #20
 80002cc:	4358      	muls	r0, r3
 80002ce:	1822      	adds	r2, r4, r0
 80002d0:	6855      	ldr	r5, [r2, #4]
 80002d2:	490c      	ldr	r1, [pc, #48]	; (8000304 <vCoRoutineSchedule+0x114>)
 80002d4:	2d00      	cmp	r5, #0
 80002d6:	d0f4      	beq.n	80002c2 <vCoRoutineSchedule+0xd2>
 80002d8:	6895      	ldr	r5, [r2, #8]
 80002da:	670b      	str	r3, [r1, #112]	; 0x70
 80002dc:	686d      	ldr	r5, [r5, #4]
 80002de:	1809      	adds	r1, r1, r0
 80002e0:	310c      	adds	r1, #12
 80002e2:	6095      	str	r5, [r2, #8]
 80002e4:	428d      	cmp	r5, r1
 80002e6:	bf04      	itt	eq
 80002e8:	6869      	ldreq	r1, [r5, #4]
 80002ea:	6091      	streq	r1, [r2, #8]
 80002ec:	2214      	movs	r2, #20
 80002ee:	fb02 4303 	mla	r3, r2, r3, r4
 80002f2:	689b      	ldr	r3, [r3, #8]
 80002f4:	68d8      	ldr	r0, [r3, #12]
 80002f6:	6020      	str	r0, [r4, #0]
 80002f8:	6803      	ldr	r3, [r0, #0]
 80002fa:	6b01      	ldr	r1, [r0, #48]	; 0x30
 80002fc:	4798      	blx	r3
 80002fe:	bd70      	pop	{r4, r5, r6, pc}
 8000300:	2000000c 	andcs	r0, r0, ip
 8000304:	20000008 	andcs	r0, r0, r8

08000308 <xCoRoutineRemoveFromEventList>:
 8000308:	b570      	push	{r4, r5, r6, lr}
 800030a:	68c3      	ldr	r3, [r0, #12]
 800030c:	4d09      	ldr	r5, [pc, #36]	; (8000334 <xCoRoutineRemoveFromEventList+0x2c>)
 800030e:	68dc      	ldr	r4, [r3, #12]
 8000310:	f104 0618 	add.w	r6, r4, #24
 8000314:	4630      	mov	r0, r6
 8000316:	f7ff fee3 	bl	80000e0 <vListRemove>
 800031a:	f105 0054 	add.w	r0, r5, #84	; 0x54
 800031e:	4631      	mov	r1, r6
 8000320:	f7ff feb8 	bl	8000094 <vListInsertEnd>
 8000324:	682b      	ldr	r3, [r5, #0]
 8000326:	6ae0      	ldr	r0, [r4, #44]	; 0x2c
 8000328:	6adb      	ldr	r3, [r3, #44]	; 0x2c
 800032a:	4298      	cmp	r0, r3
 800032c:	bf34      	ite	cc
 800032e:	2000      	movcc	r0, #0
 8000330:	2001      	movcs	r0, #1
 8000332:	bd70      	pop	{r4, r5, r6, pc}
 8000334:	20000008 	andcs	r0, r0, r8

08000338 <prvCopyDataFromQueue>:
 8000338:	b530      	push	{r4, r5, lr}
 800033a:	6804      	ldr	r4, [r0, #0]
 800033c:	4603      	mov	r3, r0
 800033e:	b16c      	cbz	r4, 800035c <prvCopyDataFromQueue+0x24>
 8000340:	68c5      	ldr	r5, [r0, #12]
 8000342:	6c02      	ldr	r2, [r0, #64]	; 0x40
 8000344:	18ad      	adds	r5, r5, r2
 8000346:	60c5      	str	r5, [r0, #12]
 8000348:	6840      	ldr	r0, [r0, #4]
 800034a:	4285      	cmp	r5, r0
 800034c:	bf28      	it	cs
 800034e:	60dc      	strcs	r4, [r3, #12]
 8000350:	4608      	mov	r0, r1
 8000352:	68d9      	ldr	r1, [r3, #12]
 8000354:	e8bd 4030 	ldmia.w	sp!, {r4, r5, lr}
 8000358:	f000 bd76 	b.w	8000e48 <memcpy>
 800035c:	bd30      	pop	{r4, r5, pc}

0800035e <prvCopyDataToQueue>:
 800035e:	4613      	mov	r3, r2
 8000360:	6c02      	ldr	r2, [r0, #64]	; 0x40
 8000362:	b510      	push	{r4, lr}
 8000364:	4604      	mov	r4, r0
 8000366:	b1da      	cbz	r2, 80003a0 <prvCopyDataToQueue+0x42>
 8000368:	b963      	cbnz	r3, 8000384 <prvCopyDataToQueue+0x26>
 800036a:	6880      	ldr	r0, [r0, #8]
 800036c:	f000 fd6c 	bl	8000e48 <memcpy>
 8000370:	68a2      	ldr	r2, [r4, #8]
 8000372:	6c23      	ldr	r3, [r4, #64]	; 0x40
 8000374:	18d3      	adds	r3, r2, r3
 8000376:	6862      	ldr	r2, [r4, #4]
 8000378:	60a3      	str	r3, [r4, #8]
 800037a:	4293      	cmp	r3, r2
 800037c:	d310      	bcc.n	80003a0 <prvCopyDataToQueue+0x42>
 800037e:	6823      	ldr	r3, [r4, #0]
 8000380:	60a3      	str	r3, [r4, #8]
 8000382:	e00d      	b.n	80003a0 <prvCopyDataToQueue+0x42>
 8000384:	68c0      	ldr	r0, [r0, #12]
 8000386:	f000 fd5f 	bl	8000e48 <memcpy>
 800038a:	6c23      	ldr	r3, [r4, #64]	; 0x40
 800038c:	68e2      	ldr	r2, [r4, #12]
 800038e:	425b      	negs	r3, r3
 8000390:	6821      	ldr	r1, [r4, #0]
 8000392:	18d2      	adds	r2, r2, r3
 8000394:	428a      	cmp	r2, r1
 8000396:	60e2      	str	r2, [r4, #12]
 8000398:	d202      	bcs.n	80003a0 <prvCopyDataToQueue+0x42>
 800039a:	6862      	ldr	r2, [r4, #4]
 800039c:	18d3      	adds	r3, r2, r3
 800039e:	60e3      	str	r3, [r4, #12]
 80003a0:	6ba3      	ldr	r3, [r4, #56]	; 0x38
 80003a2:	3301      	adds	r3, #1
 80003a4:	63a3      	str	r3, [r4, #56]	; 0x38
 80003a6:	bd10      	pop	{r4, pc}

080003a8 <prvUnlockQueue>:
 80003a8:	b510      	push	{r4, lr}
 80003aa:	4604      	mov	r4, r0
 80003ac:	f000 fcd4 	bl	8000d58 <vPortEnterCritical>
 80003b0:	e00b      	b.n	80003ca <prvUnlockQueue+0x22>
 80003b2:	6a63      	ldr	r3, [r4, #36]	; 0x24
 80003b4:	b163      	cbz	r3, 80003d0 <prvUnlockQueue+0x28>
 80003b6:	f104 0024 	add.w	r0, r4, #36	; 0x24
 80003ba:	f000 fc17 	bl	8000bec <xTaskRemoveFromEventList>
 80003be:	b108      	cbz	r0, 80003c4 <prvUnlockQueue+0x1c>
 80003c0:	f000 fc74 	bl	8000cac <vTaskMissedYield>
 80003c4:	6ca3      	ldr	r3, [r4, #72]	; 0x48
 80003c6:	3b01      	subs	r3, #1
 80003c8:	64a3      	str	r3, [r4, #72]	; 0x48
 80003ca:	6ca3      	ldr	r3, [r4, #72]	; 0x48
 80003cc:	2b00      	cmp	r3, #0
 80003ce:	dcf0      	bgt.n	80003b2 <prvUnlockQueue+0xa>
 80003d0:	f04f 33ff 	mov.w	r3, #4294967295	; 0xffffffff
 80003d4:	64a3      	str	r3, [r4, #72]	; 0x48
 80003d6:	f000 fccb 	bl	8000d70 <vPortExitCritical>
 80003da:	f000 fcbd 	bl	8000d58 <vPortEnterCritical>
 80003de:	e00b      	b.n	80003f8 <prvUnlockQueue+0x50>
 80003e0:	6923      	ldr	r3, [r4, #16]
 80003e2:	b163      	cbz	r3, 80003fe <prvUnlockQueue+0x56>
 80003e4:	f104 0010 	add.w	r0, r4, #16
 80003e8:	f000 fc00 	bl	8000bec <xTaskRemoveFromEventList>
 80003ec:	b108      	cbz	r0, 80003f2 <prvUnlockQueue+0x4a>
 80003ee:	f000 fc5d 	bl	8000cac <vTaskMissedYield>
 80003f2:	6c63      	ldr	r3, [r4, #68]	; 0x44
 80003f4:	3b01      	subs	r3, #1
 80003f6:	6463      	str	r3, [r4, #68]	; 0x44
 80003f8:	6c63      	ldr	r3, [r4, #68]	; 0x44
 80003fa:	2b00      	cmp	r3, #0
 80003fc:	dcf0      	bgt.n	80003e0 <prvUnlockQueue+0x38>
 80003fe:	f04f 33ff 	mov.w	r3, #4294967295	; 0xffffffff
 8000402:	6463      	str	r3, [r4, #68]	; 0x44
 8000404:	e8bd 4010 	ldmia.w	sp!, {r4, lr}
 8000408:	f000 bcb2 	b.w	8000d70 <vPortExitCritical>

0800040c <xQueueGenericReset>:
 800040c:	2901      	cmp	r1, #1
 800040e:	b510      	push	{r4, lr}
 8000410:	4604      	mov	r4, r0
 8000412:	d003      	beq.n	800041c <xQueueGenericReset+0x10>
 8000414:	6a43      	ldr	r3, [r0, #36]	; 0x24
 8000416:	6900      	ldr	r0, [r0, #16]
 8000418:	b9d8      	cbnz	r0, 8000452 <xQueueGenericReset+0x46>
 800041a:	b9db      	cbnz	r3, 8000454 <xQueueGenericReset+0x48>
 800041c:	6823      	ldr	r3, [r4, #0]
 800041e:	6c22      	ldr	r2, [r4, #64]	; 0x40
 8000420:	6be1      	ldr	r1, [r4, #60]	; 0x3c
 8000422:	60a3      	str	r3, [r4, #8]
 8000424:	fb01 3002 	mla	r0, r1, r2, r3
 8000428:	3901      	subs	r1, #1
 800042a:	fb02 3301 	mla	r3, r2, r1, r3
 800042e:	6060      	str	r0, [r4, #4]
 8000430:	60e3      	str	r3, [r4, #12]
 8000432:	2000      	movs	r0, #0
 8000434:	f04f 33ff 	mov.w	r3, #4294967295	; 0xffffffff
 8000438:	63a0      	str	r0, [r4, #56]	; 0x38
 800043a:	6463      	str	r3, [r4, #68]	; 0x44
 800043c:	64a3      	str	r3, [r4, #72]	; 0x48
 800043e:	f104 0010 	add.w	r0, r4, #16
 8000442:	f7ff fe19 	bl	8000078 <vListInitialise>
 8000446:	f104 0024 	add.w	r0, r4, #36	; 0x24
 800044a:	f7ff fe15 	bl	8000078 <vListInitialise>
 800044e:	2001      	movs	r0, #1
 8000450:	bd10      	pop	{r4, pc}
 8000452:	2000      	movs	r0, #0
 8000454:	bd10      	pop	{r4, pc}

08000456 <xQueueGenericCreate>:
 8000456:	b5f8      	push	{r3, r4, r5, r6, r7, lr}
 8000458:	460f      	mov	r7, r1
 800045a:	4605      	mov	r5, r0
 800045c:	b1c0      	cbz	r0, 8000490 <xQueueGenericCreate+0x3a>
 800045e:	204c      	movs	r0, #76	; 0x4c
 8000460:	f000 fcc4 	bl	8000dec <pvPortMalloc>
 8000464:	4604      	mov	r4, r0
 8000466:	b1a0      	cbz	r0, 8000492 <xQueueGenericCreate+0x3c>
 8000468:	fb05 f007 	mul.w	r0, r5, r7
 800046c:	3001      	adds	r0, #1
 800046e:	f000 fcbd 	bl	8000dec <pvPortMalloc>
 8000472:	4606      	mov	r6, r0
 8000474:	6020      	str	r0, [r4, #0]
 8000476:	b130      	cbz	r0, 8000486 <xQueueGenericCreate+0x30>
 8000478:	63e5      	str	r5, [r4, #60]	; 0x3c
 800047a:	6427      	str	r7, [r4, #64]	; 0x40
 800047c:	4620      	mov	r0, r4
 800047e:	2101      	movs	r1, #1
 8000480:	f7ff ffc4 	bl	800040c <xQueueGenericReset>
 8000484:	e005      	b.n	8000492 <xQueueGenericCreate+0x3c>
 8000486:	4620      	mov	r0, r4
 8000488:	f000 fcce 	bl	8000e28 <vPortFree>
 800048c:	4634      	mov	r4, r6
 800048e:	e000      	b.n	8000492 <xQueueGenericCreate+0x3c>
 8000490:	4604      	mov	r4, r0
 8000492:	4620      	mov	r0, r4
 8000494:	bdf8      	pop	{r3, r4, r5, r6, r7, pc}

08000496 <xQueueGenericSend>:
 8000496:	e92d 41ff 	stmdb	sp!, {r0, r1, r2, r3, r4, r5, r6, r7, r8, lr}
 800049a:	4604      	mov	r4, r0
 800049c:	460d      	mov	r5, r1
 800049e:	9201      	str	r2, [sp, #4]
 80004a0:	461e      	mov	r6, r3
 80004a2:	f04f 0800 	mov.w	r8, #0
 80004a6:	e001      	b.n	80004ac <xQueueGenericSend+0x16>
 80004a8:	f04f 0801 	mov.w	r8, #1
 80004ac:	f000 fc54 	bl	8000d58 <vPortEnterCritical>
 80004b0:	6ba2      	ldr	r2, [r4, #56]	; 0x38
 80004b2:	6be3      	ldr	r3, [r4, #60]	; 0x3c
 80004b4:	429a      	cmp	r2, r3
 80004b6:	d212      	bcs.n	80004de <xQueueGenericSend+0x48>
 80004b8:	4620      	mov	r0, r4
 80004ba:	4629      	mov	r1, r5
 80004bc:	4632      	mov	r2, r6
 80004be:	f7ff ff4e 	bl	800035e <prvCopyDataToQueue>
 80004c2:	6a63      	ldr	r3, [r4, #36]	; 0x24
 80004c4:	b13b      	cbz	r3, 80004d6 <xQueueGenericSend+0x40>
 80004c6:	f104 0024 	add.w	r0, r4, #36	; 0x24
 80004ca:	f000 fb8f 	bl	8000bec <xTaskRemoveFromEventList>
 80004ce:	2801      	cmp	r0, #1
 80004d0:	d101      	bne.n	80004d6 <xQueueGenericSend+0x40>
 80004d2:	f000 fc3a 	bl	8000d4a <vPortYieldFromISR>
 80004d6:	f000 fc4b 	bl	8000d70 <vPortExitCritical>
 80004da:	2001      	movs	r0, #1
 80004dc:	e048      	b.n	8000570 <xQueueGenericSend+0xda>
 80004de:	9f01      	ldr	r7, [sp, #4]
 80004e0:	b91f      	cbnz	r7, 80004ea <xQueueGenericSend+0x54>
 80004e2:	f000 fc45 	bl	8000d70 <vPortExitCritical>
 80004e6:	4638      	mov	r0, r7
 80004e8:	e042      	b.n	8000570 <xQueueGenericSend+0xda>
 80004ea:	f1b8 0f00 	cmp.w	r8, #0
 80004ee:	d102      	bne.n	80004f6 <xQueueGenericSend+0x60>
 80004f0:	a802      	add	r0, sp, #8
 80004f2:	f000 fba9 	bl	8000c48 <vTaskSetTimeOutState>
 80004f6:	f000 fc3b 	bl	8000d70 <vPortExitCritical>
 80004fa:	f000 fa3b 	bl	8000974 <vTaskSuspendAll>
 80004fe:	f000 fc2b 	bl	8000d58 <vPortEnterCritical>
 8000502:	6c63      	ldr	r3, [r4, #68]	; 0x44
 8000504:	f1b3 3fff 	cmp.w	r3, #4294967295	; 0xffffffff
 8000508:	d101      	bne.n	800050e <xQueueGenericSend+0x78>
 800050a:	3301      	adds	r3, #1
 800050c:	6463      	str	r3, [r4, #68]	; 0x44
 800050e:	6ca3      	ldr	r3, [r4, #72]	; 0x48
 8000510:	f1b3 3fff 	cmp.w	r3, #4294967295	; 0xffffffff
 8000514:	d101      	bne.n	800051a <xQueueGenericSend+0x84>
 8000516:	3301      	adds	r3, #1
 8000518:	64a3      	str	r3, [r4, #72]	; 0x48
 800051a:	f000 fc29 	bl	8000d70 <vPortExitCritical>
 800051e:	a802      	add	r0, sp, #8
 8000520:	a901      	add	r1, sp, #4
 8000522:	f000 fb9b 	bl	8000c5c <xTaskCheckForTimeOut>
 8000526:	b9e8      	cbnz	r0, 8000564 <xQueueGenericSend+0xce>
 8000528:	f000 fc16 	bl	8000d58 <vPortEnterCritical>
 800052c:	f8d4 8038 	ldr.w	r8, [r4, #56]	; 0x38
 8000530:	6be7      	ldr	r7, [r4, #60]	; 0x3c
 8000532:	f000 fc1d 	bl	8000d70 <vPortExitCritical>
 8000536:	45b8      	cmp	r8, r7
 8000538:	d10e      	bne.n	8000558 <xQueueGenericSend+0xc2>
 800053a:	f104 0010 	add.w	r0, r4, #16
 800053e:	9901      	ldr	r1, [sp, #4]
 8000540:	f000 fb42 	bl	8000bc8 <vTaskPlaceOnEventList>
 8000544:	4620      	mov	r0, r4
 8000546:	f7ff ff2f 	bl	80003a8 <prvUnlockQueue>
 800054a:	f000 fa97 	bl	8000a7c <xTaskResumeAll>
 800054e:	2800      	cmp	r0, #0
 8000550:	d1aa      	bne.n	80004a8 <xQueueGenericSend+0x12>
 8000552:	f000 fbfa 	bl	8000d4a <vPortYieldFromISR>
 8000556:	e7a7      	b.n	80004a8 <xQueueGenericSend+0x12>
 8000558:	4620      	mov	r0, r4
 800055a:	f7ff ff25 	bl	80003a8 <prvUnlockQueue>
 800055e:	f000 fa8d 	bl	8000a7c <xTaskResumeAll>
 8000562:	e7a1      	b.n	80004a8 <xQueueGenericSend+0x12>
 8000564:	4620      	mov	r0, r4
 8000566:	f7ff ff1f 	bl	80003a8 <prvUnlockQueue>
 800056a:	f000 fa87 	bl	8000a7c <xTaskResumeAll>
 800056e:	2000      	movs	r0, #0
 8000570:	b004      	add	sp, #16
 8000572:	e8bd 81f0 	ldmia.w	sp!, {r4, r5, r6, r7, r8, pc}

08000576 <xQueueGenericSendFromISR>:
 8000576:	b538      	push	{r3, r4, r5, lr}
 8000578:	4604      	mov	r4, r0
 800057a:	4615      	mov	r5, r2
 800057c:	f04f 00bf 	mov.w	r0, #191	; 0xbf
 8000580:	f380 8811 	msr	BASEPRI, r0
 8000584:	6ba0      	ldr	r0, [r4, #56]	; 0x38
 8000586:	6be2      	ldr	r2, [r4, #60]	; 0x3c
 8000588:	4290      	cmp	r0, r2
 800058a:	d214      	bcs.n	80005b6 <xQueueGenericSendFromISR+0x40>
 800058c:	461a      	mov	r2, r3
 800058e:	4620      	mov	r0, r4
 8000590:	f7ff fee5 	bl	800035e <prvCopyDataToQueue>
 8000594:	6ca3      	ldr	r3, [r4, #72]	; 0x48
 8000596:	f1b3 3fff 	cmp.w	r3, #4294967295	; 0xffffffff
 800059a:	d109      	bne.n	80005b0 <xQueueGenericSendFromISR+0x3a>
 800059c:	6a63      	ldr	r3, [r4, #36]	; 0x24
 800059e:	b163      	cbz	r3, 80005ba <xQueueGenericSendFromISR+0x44>
 80005a0:	f104 0024 	add.w	r0, r4, #36	; 0x24
 80005a4:	f000 fb22 	bl	8000bec <xTaskRemoveFromEventList>
 80005a8:	2301      	movs	r3, #1
 80005aa:	b138      	cbz	r0, 80005bc <xQueueGenericSendFromISR+0x46>
 80005ac:	602b      	str	r3, [r5, #0]
 80005ae:	e005      	b.n	80005bc <xQueueGenericSendFromISR+0x46>
 80005b0:	3301      	adds	r3, #1
 80005b2:	64a3      	str	r3, [r4, #72]	; 0x48
 80005b4:	e001      	b.n	80005ba <xQueueGenericSendFromISR+0x44>
 80005b6:	2300      	movs	r3, #0
 80005b8:	e000      	b.n	80005bc <xQueueGenericSendFromISR+0x46>
 80005ba:	2301      	movs	r3, #1
 80005bc:	f04f 0000 	mov.w	r0, #0
 80005c0:	f380 8811 	msr	BASEPRI, r0
 80005c4:	4618      	mov	r0, r3
 80005c6:	bd38      	pop	{r3, r4, r5, pc}

080005c8 <xQueueGenericReceive>:
 80005c8:	e92d 41ff 	stmdb	sp!, {r0, r1, r2, r3, r4, r5, r6, r7, r8, lr}
 80005cc:	4604      	mov	r4, r0
 80005ce:	460d      	mov	r5, r1
 80005d0:	9201      	str	r2, [sp, #4]
 80005d2:	461f      	mov	r7, r3
 80005d4:	f04f 0800 	mov.w	r8, #0
 80005d8:	e001      	b.n	80005de <xQueueGenericReceive+0x16>
 80005da:	f04f 0801 	mov.w	r8, #1
 80005de:	f000 fbbb 	bl	8000d58 <vPortEnterCritical>
 80005e2:	6ba3      	ldr	r3, [r4, #56]	; 0x38
 80005e4:	b1fb      	cbz	r3, 8000626 <xQueueGenericReceive+0x5e>
 80005e6:	4620      	mov	r0, r4
 80005e8:	4629      	mov	r1, r5
 80005ea:	68e6      	ldr	r6, [r4, #12]
 80005ec:	f7ff fea4 	bl	8000338 <prvCopyDataFromQueue>
 80005f0:	b95f      	cbnz	r7, 800060a <xQueueGenericReceive+0x42>
 80005f2:	6ba3      	ldr	r3, [r4, #56]	; 0x38
 80005f4:	3b01      	subs	r3, #1
 80005f6:	63a3      	str	r3, [r4, #56]	; 0x38
 80005f8:	6923      	ldr	r3, [r4, #16]
 80005fa:	b183      	cbz	r3, 800061e <xQueueGenericReceive+0x56>
 80005fc:	f104 0010 	add.w	r0, r4, #16
 8000600:	f000 faf4 	bl	8000bec <xTaskRemoveFromEventList>
 8000604:	2801      	cmp	r0, #1
 8000606:	d10a      	bne.n	800061e <xQueueGenericReceive+0x56>
 8000608:	e007      	b.n	800061a <xQueueGenericReceive+0x52>
 800060a:	6a63      	ldr	r3, [r4, #36]	; 0x24
 800060c:	60e6      	str	r6, [r4, #12]
 800060e:	b133      	cbz	r3, 800061e <xQueueGenericReceive+0x56>
 8000610:	f104 0024 	add.w	r0, r4, #36	; 0x24
 8000614:	f000 faea 	bl	8000bec <xTaskRemoveFromEventList>
 8000618:	b108      	cbz	r0, 800061e <xQueueGenericReceive+0x56>
 800061a:	f000 fb96 	bl	8000d4a <vPortYieldFromISR>
 800061e:	f000 fba7 	bl	8000d70 <vPortExitCritical>
 8000622:	2001      	movs	r0, #1
 8000624:	e045      	b.n	80006b2 <xQueueGenericReceive+0xea>
 8000626:	9e01      	ldr	r6, [sp, #4]
 8000628:	b91e      	cbnz	r6, 8000632 <xQueueGenericReceive+0x6a>
 800062a:	f000 fba1 	bl	8000d70 <vPortExitCritical>
 800062e:	4630      	mov	r0, r6
 8000630:	e03f      	b.n	80006b2 <xQueueGenericReceive+0xea>
 8000632:	f1b8 0f00 	cmp.w	r8, #0
 8000636:	d102      	bne.n	800063e <xQueueGenericReceive+0x76>
 8000638:	a802      	add	r0, sp, #8
 800063a:	f000 fb05 	bl	8000c48 <vTaskSetTimeOutState>
 800063e:	f000 fb97 	bl	8000d70 <vPortExitCritical>
 8000642:	f000 f997 	bl	8000974 <vTaskSuspendAll>
 8000646:	f000 fb87 	bl	8000d58 <vPortEnterCritical>
 800064a:	6c63      	ldr	r3, [r4, #68]	; 0x44
 800064c:	f1b3 3fff 	cmp.w	r3, #4294967295	; 0xffffffff
 8000650:	d101      	bne.n	8000656 <xQueueGenericReceive+0x8e>
 8000652:	3301      	adds	r3, #1
 8000654:	6463      	str	r3, [r4, #68]	; 0x44
 8000656:	6ca3      	ldr	r3, [r4, #72]	; 0x48
 8000658:	f1b3 3fff 	cmp.w	r3, #4294967295	; 0xffffffff
 800065c:	d101      	bne.n	8000662 <xQueueGenericReceive+0x9a>
 800065e:	3301      	adds	r3, #1
 8000660:	64a3      	str	r3, [r4, #72]	; 0x48
 8000662:	f000 fb85 	bl	8000d70 <vPortExitCritical>
 8000666:	a802      	add	r0, sp, #8
 8000668:	a901      	add	r1, sp, #4
 800066a:	f000 faf7 	bl	8000c5c <xTaskCheckForTimeOut>
 800066e:	b9d0      	cbnz	r0, 80006a6 <xQueueGenericReceive+0xde>
 8000670:	f000 fb72 	bl	8000d58 <vPortEnterCritical>
 8000674:	6ba6      	ldr	r6, [r4, #56]	; 0x38
 8000676:	f000 fb7b 	bl	8000d70 <vPortExitCritical>
 800067a:	b976      	cbnz	r6, 800069a <xQueueGenericReceive+0xd2>
 800067c:	f104 0024 	add.w	r0, r4, #36	; 0x24
 8000680:	9901      	ldr	r1, [sp, #4]
 8000682:	f000 faa1 	bl	8000bc8 <vTaskPlaceOnEventList>
 8000686:	4620      	mov	r0, r4
 8000688:	f7ff fe8e 	bl	80003a8 <prvUnlockQueue>
 800068c:	f000 f9f6 	bl	8000a7c <xTaskResumeAll>
 8000690:	2800      	cmp	r0, #0
 8000692:	d1a2      	bne.n	80005da <xQueueGenericReceive+0x12>
 8000694:	f000 fb59 	bl	8000d4a <vPortYieldFromISR>
 8000698:	e79f      	b.n	80005da <xQueueGenericReceive+0x12>
 800069a:	4620      	mov	r0, r4
 800069c:	f7ff fe84 	bl	80003a8 <prvUnlockQueue>
 80006a0:	f000 f9ec 	bl	8000a7c <xTaskResumeAll>
 80006a4:	e799      	b.n	80005da <xQueueGenericReceive+0x12>
 80006a6:	4620      	mov	r0, r4
 80006a8:	f7ff fe7e 	bl	80003a8 <prvUnlockQueue>
 80006ac:	f000 f9e6 	bl	8000a7c <xTaskResumeAll>
 80006b0:	2000      	movs	r0, #0
 80006b2:	b004      	add	sp, #16
 80006b4:	e8bd 81f0 	ldmia.w	sp!, {r4, r5, r6, r7, r8, pc}

080006b8 <xQueueReceiveFromISR>:
 80006b8:	b538      	push	{r3, r4, r5, lr}
 80006ba:	4604      	mov	r4, r0
 80006bc:	4615      	mov	r5, r2
 80006be:	f04f 00bf 	mov.w	r0, #191	; 0xbf
 80006c2:	f380 8811 	msr	BASEPRI, r0
 80006c6:	6ba3      	ldr	r3, [r4, #56]	; 0x38
 80006c8:	b1b3      	cbz	r3, 80006f8 <xQueueReceiveFromISR+0x40>
 80006ca:	4620      	mov	r0, r4
 80006cc:	f7ff fe34 	bl	8000338 <prvCopyDataFromQueue>
 80006d0:	6ba3      	ldr	r3, [r4, #56]	; 0x38
 80006d2:	3b01      	subs	r3, #1
 80006d4:	63a3      	str	r3, [r4, #56]	; 0x38
 80006d6:	6c63      	ldr	r3, [r4, #68]	; 0x44
 80006d8:	f1b3 3fff 	cmp.w	r3, #4294967295	; 0xffffffff
 80006dc:	d109      	bne.n	80006f2 <xQueueReceiveFromISR+0x3a>
 80006de:	6923      	ldr	r3, [r4, #16]
 80006e0:	b14b      	cbz	r3, 80006f6 <xQueueReceiveFromISR+0x3e>
 80006e2:	f104 0010 	add.w	r0, r4, #16
 80006e6:	f000 fa81 	bl	8000bec <xTaskRemoveFromEventList>
 80006ea:	2301      	movs	r3, #1
 80006ec:	b120      	cbz	r0, 80006f8 <xQueueReceiveFromISR+0x40>
 80006ee:	602b      	str	r3, [r5, #0]
 80006f0:	e002      	b.n	80006f8 <xQueueReceiveFromISR+0x40>
 80006f2:	3301      	adds	r3, #1
 80006f4:	6463      	str	r3, [r4, #68]	; 0x44
 80006f6:	2301      	movs	r3, #1
 80006f8:	f04f 0000 	mov.w	r0, #0
 80006fc:	f380 8811 	msr	BASEPRI, r0
 8000700:	4618      	mov	r0, r3
 8000702:	bd38      	pop	{r3, r4, r5, pc}

08000704 <uxQueueMessagesWaiting>:
 8000704:	b510      	push	{r4, lr}
 8000706:	4604      	mov	r4, r0
 8000708:	f000 fb26 	bl	8000d58 <vPortEnterCritical>
 800070c:	6ba4      	ldr	r4, [r4, #56]	; 0x38
 800070e:	f000 fb2f 	bl	8000d70 <vPortExitCritical>
 8000712:	4620      	mov	r0, r4
 8000714:	bd10      	pop	{r4, pc}

08000716 <uxQueueMessagesWaitingFromISR>:
 8000716:	6b80      	ldr	r0, [r0, #56]	; 0x38
 8000718:	4770      	bx	lr

0800071a <vQueueDelete>:
 800071a:	b510      	push	{r4, lr}
 800071c:	4604      	mov	r4, r0
 800071e:	6800      	ldr	r0, [r0, #0]
 8000720:	f000 fb82 	bl	8000e28 <vPortFree>
 8000724:	4620      	mov	r0, r4
 8000726:	e8bd 4010 	ldmia.w	sp!, {r4, lr}
 800072a:	f000 bb7d 	b.w	8000e28 <vPortFree>

0800072e <xQueueIsQueueEmptyFromISR>:
 800072e:	6b80      	ldr	r0, [r0, #56]	; 0x38
 8000730:	f1d0 0001 	rsbs	r0, r0, #1
 8000734:	bf38      	it	cc
 8000736:	2000      	movcc	r0, #0
 8000738:	4770      	bx	lr

0800073a <xQueueIsQueueFullFromISR>:
 800073a:	6b82      	ldr	r2, [r0, #56]	; 0x38
 800073c:	6bc3      	ldr	r3, [r0, #60]	; 0x3c
 800073e:	1ad3      	subs	r3, r2, r3
 8000740:	4258      	negs	r0, r3
 8000742:	eb40 0003 	adc.w	r0, r0, r3
 8000746:	4770      	bx	lr

08000748 <prvAddCurrentTaskToDelayedList>:
 8000748:	4b0c      	ldr	r3, [pc, #48]	; (800077c <prvAddCurrentTaskToDelayedList+0x34>)
 800074a:	b510      	push	{r4, lr}
 800074c:	681a      	ldr	r2, [r3, #0]
 800074e:	4604      	mov	r4, r0
 8000750:	6050      	str	r0, [r2, #4]
 8000752:	685a      	ldr	r2, [r3, #4]
 8000754:	4290      	cmp	r0, r2
 8000756:	d206      	bcs.n	8000766 <prvAddCurrentTaskToDelayedList+0x1e>
 8000758:	6898      	ldr	r0, [r3, #8]
 800075a:	6819      	ldr	r1, [r3, #0]
 800075c:	3104      	adds	r1, #4
 800075e:	e8bd 4010 	ldmia.w	sp!, {r4, lr}
 8000762:	f7ff bca4 	b.w	80000ae <vListInsert>
 8000766:	68d8      	ldr	r0, [r3, #12]
 8000768:	6819      	ldr	r1, [r3, #0]
 800076a:	3104      	adds	r1, #4
 800076c:	f7ff fc9f 	bl	80000ae <vListInsert>
 8000770:	4b03      	ldr	r3, [pc, #12]	; (8000780 <prvAddCurrentTaskToDelayedList+0x38>)
 8000772:	681a      	ldr	r2, [r3, #0]
 8000774:	4294      	cmp	r4, r2
 8000776:	bf38      	it	cc
 8000778:	601c      	strcc	r4, [r3, #0]
 800077a:	bd10      	pop	{r4, pc}
 800077c:	20000088 	andcs	r0, r0, r8, lsl #1
 8000780:	20000000 	andcs	r0, r0, r0

08000784 <prvIdleTask>:
 8000784:	b508      	push	{r3, lr}
 8000786:	4b03      	ldr	r3, [pc, #12]	; (8000794 <prvIdleTask+0x10>)
 8000788:	691b      	ldr	r3, [r3, #16]
 800078a:	2b01      	cmp	r3, #1
 800078c:	d9fb      	bls.n	8000786 <prvIdleTask+0x2>
 800078e:	f000 fadc 	bl	8000d4a <vPortYieldFromISR>
 8000792:	e7f8      	b.n	8000786 <prvIdleTask+0x2>
 8000794:	20000088 	andcs	r0, r0, r8, lsl #1

08000798 <xTaskGenericCreate>:
 8000798:	e92d 4ff8 	stmdb	sp!, {r3, r4, r5, r6, r7, r8, r9, sl, fp, lr}
 800079c:	4682      	mov	sl, r0
 800079e:	2044      	movs	r0, #68	; 0x44
 80007a0:	460d      	mov	r5, r1
 80007a2:	4614      	mov	r4, r2
 80007a4:	4699      	mov	r9, r3
 80007a6:	9f0a      	ldr	r7, [sp, #40]	; 0x28
 80007a8:	f8dd 802c 	ldr.w	r8, [sp, #44]	; 0x2c
 80007ac:	f8dd b030 	ldr.w	fp, [sp, #48]	; 0x30
 80007b0:	f000 fb1c 	bl	8000dec <pvPortMalloc>
 80007b4:	4606      	mov	r6, r0
 80007b6:	2800      	cmp	r0, #0
 80007b8:	f000 80a0 	beq.w	80008fc <xTaskGenericCreate+0x164>
 80007bc:	f1bb 0f00 	cmp.w	fp, #0
 80007c0:	d103      	bne.n	80007ca <xTaskGenericCreate+0x32>
 80007c2:	00a0      	lsls	r0, r4, #2
 80007c4:	f000 fb12 	bl	8000dec <pvPortMalloc>
 80007c8:	4683      	mov	fp, r0
 80007ca:	f8c6 b030 	str.w	fp, [r6, #48]	; 0x30
 80007ce:	f1bb 0f00 	cmp.w	fp, #0
 80007d2:	d103      	bne.n	80007dc <xTaskGenericCreate+0x44>
 80007d4:	4630      	mov	r0, r6
 80007d6:	f000 fb27 	bl	8000e28 <vPortFree>
 80007da:	e08f      	b.n	80008fc <xTaskGenericCreate+0x164>
 80007dc:	00a2      	lsls	r2, r4, #2
 80007de:	4658      	mov	r0, fp
 80007e0:	21a5      	movs	r1, #165	; 0xa5
 80007e2:	f000 fbd9 	bl	8000f98 <memset>
 80007e6:	6b33      	ldr	r3, [r6, #48]	; 0x30
 80007e8:	4629      	mov	r1, r5
 80007ea:	2210      	movs	r2, #16
 80007ec:	3c01      	subs	r4, #1
 80007ee:	f106 0034 	add.w	r0, r6, #52	; 0x34
 80007f2:	eb03 0484 	add.w	r4, r3, r4, lsl #2
 80007f6:	2f04      	cmp	r7, #4
 80007f8:	bf34      	ite	cc
 80007fa:	46bb      	movcc	fp, r7
 80007fc:	f04f 0b04 	movcs.w	fp, #4
 8000800:	f000 fc24 	bl	800104c <strncpy>
 8000804:	1d35      	adds	r5, r6, #4
 8000806:	2300      	movs	r3, #0
 8000808:	f886 3043 	strb.w	r3, [r6, #67]	; 0x43
 800080c:	4628      	mov	r0, r5
 800080e:	f8c6 b02c 	str.w	fp, [r6, #44]	; 0x2c
 8000812:	f7ff fc3c 	bl	800008e <vListInitialiseItem>
 8000816:	f106 0018 	add.w	r0, r6, #24
 800081a:	f7ff fc38 	bl	800008e <vListInitialiseItem>
 800081e:	f024 0407 	bic.w	r4, r4, #7
 8000822:	f1cb 0305 	rsb	r3, fp, #5
 8000826:	6136      	str	r6, [r6, #16]
 8000828:	61b3      	str	r3, [r6, #24]
 800082a:	6276      	str	r6, [r6, #36]	; 0x24
 800082c:	4620      	mov	r0, r4
 800082e:	4651      	mov	r1, sl
 8000830:	464a      	mov	r2, r9
 8000832:	f000 fa4b 	bl	8000ccc <pxPortInitialiseStack>
 8000836:	6030      	str	r0, [r6, #0]
 8000838:	f1b8 0f00 	cmp.w	r8, #0
 800083c:	d001      	beq.n	8000842 <xTaskGenericCreate+0xaa>
 800083e:	f8c8 6000 	str.w	r6, [r8]
 8000842:	4c33      	ldr	r4, [pc, #204]	; (8000910 <xTaskGenericCreate+0x178>)
 8000844:	f000 fa88 	bl	8000d58 <vPortEnterCritical>
 8000848:	6f63      	ldr	r3, [r4, #116]	; 0x74
 800084a:	f104 0a10 	add.w	sl, r4, #16
 800084e:	3301      	adds	r3, #1
 8000850:	6763      	str	r3, [r4, #116]	; 0x74
 8000852:	6823      	ldr	r3, [r4, #0]
 8000854:	bb1b      	cbnz	r3, 800089e <xTaskGenericCreate+0x106>
 8000856:	6026      	str	r6, [r4, #0]
 8000858:	6f62      	ldr	r2, [r4, #116]	; 0x74
 800085a:	2a01      	cmp	r2, #1
 800085c:	d127      	bne.n	80008ae <xTaskGenericCreate+0x116>
 800085e:	4699      	mov	r9, r3
 8000860:	2014      	movs	r0, #20
 8000862:	fb00 a009 	mla	r0, r0, r9, sl
 8000866:	f109 0901 	add.w	r9, r9, #1
 800086a:	f7ff fc05 	bl	8000078 <vListInitialise>
 800086e:	f1b9 0f05 	cmp.w	r9, #5
 8000872:	f8df 809c 	ldr.w	r8, [pc, #156]	; 8000910 <xTaskGenericCreate+0x178>
 8000876:	d1f3      	bne.n	8000860 <xTaskGenericCreate+0xc8>
 8000878:	f108 0b78 	add.w	fp, r8, #120	; 0x78
 800087c:	4658      	mov	r0, fp
 800087e:	f108 098c 	add.w	r9, r8, #140	; 0x8c
 8000882:	f7ff fbf9 	bl	8000078 <vListInitialise>
 8000886:	4648      	mov	r0, r9
 8000888:	f7ff fbf6 	bl	8000078 <vListInitialise>
 800088c:	f108 00a0 	add.w	r0, r8, #160	; 0xa0
 8000890:	f7ff fbf2 	bl	8000078 <vListInitialise>
 8000894:	f8c8 b00c 	str.w	fp, [r8, #12]
 8000898:	f8c8 9008 	str.w	r9, [r8, #8]
 800089c:	e007      	b.n	80008ae <xTaskGenericCreate+0x116>
 800089e:	f8d4 30b4 	ldr.w	r3, [r4, #180]	; 0xb4
 80008a2:	b923      	cbnz	r3, 80008ae <xTaskGenericCreate+0x116>
 80008a4:	6823      	ldr	r3, [r4, #0]
 80008a6:	6adb      	ldr	r3, [r3, #44]	; 0x2c
 80008a8:	42bb      	cmp	r3, r7
 80008aa:	bf98      	it	ls
 80008ac:	6026      	strls	r6, [r4, #0]
 80008ae:	6af3      	ldr	r3, [r6, #44]	; 0x2c
 80008b0:	f8d4 20b8 	ldr.w	r2, [r4, #184]	; 0xb8
 80008b4:	4629      	mov	r1, r5
 80008b6:	4293      	cmp	r3, r2
 80008b8:	bf84      	itt	hi
 80008ba:	4a15      	ldrhi	r2, [pc, #84]	; (8000910 <xTaskGenericCreate+0x178>)
 80008bc:	f8c2 30b8 	strhi.w	r3, [r2, #184]	; 0xb8
 80008c0:	f8d4 20bc 	ldr.w	r2, [r4, #188]	; 0xbc
 80008c4:	3201      	adds	r2, #1
 80008c6:	f8c4 20bc 	str.w	r2, [r4, #188]	; 0xbc
 80008ca:	f8d4 20c0 	ldr.w	r2, [r4, #192]	; 0xc0
 80008ce:	4293      	cmp	r3, r2
 80008d0:	bf84      	itt	hi
 80008d2:	4a0f      	ldrhi	r2, [pc, #60]	; (8000910 <xTaskGenericCreate+0x178>)
 80008d4:	f8c2 30c0 	strhi.w	r3, [r2, #192]	; 0xc0
 80008d8:	2014      	movs	r0, #20
 80008da:	fb00 a003 	mla	r0, r0, r3, sl
 80008de:	f7ff fbd9 	bl	8000094 <vListInsertEnd>
 80008e2:	f000 fa45 	bl	8000d70 <vPortExitCritical>
 80008e6:	f8d4 30b4 	ldr.w	r3, [r4, #180]	; 0xb4
 80008ea:	b15b      	cbz	r3, 8000904 <xTaskGenericCreate+0x16c>
 80008ec:	4b08      	ldr	r3, [pc, #32]	; (8000910 <xTaskGenericCreate+0x178>)
 80008ee:	681b      	ldr	r3, [r3, #0]
 80008f0:	6adb      	ldr	r3, [r3, #44]	; 0x2c
 80008f2:	42bb      	cmp	r3, r7
 80008f4:	d209      	bcs.n	800090a <xTaskGenericCreate+0x172>
 80008f6:	f000 fa28 	bl	8000d4a <vPortYieldFromISR>
 80008fa:	e003      	b.n	8000904 <xTaskGenericCreate+0x16c>
 80008fc:	f04f 30ff 	mov.w	r0, #4294967295	; 0xffffffff
 8000900:	e8bd 8ff8 	ldmia.w	sp!, {r3, r4, r5, r6, r7, r8, r9, sl, fp, pc}
 8000904:	2001      	movs	r0, #1
 8000906:	e8bd 8ff8 	ldmia.w	sp!, {r3, r4, r5, r6, r7, r8, r9, sl, fp, pc}
 800090a:	2001      	movs	r0, #1
 800090c:	e8bd 8ff8 	ldmia.w	sp!, {r3, r4, r5, r6, r7, r8, r9, sl, fp, pc}
 8000910:	20000088 	andcs	r0, r0, r8, lsl #1

08000914 <vTaskStartScheduler>:
 8000914:	b51f      	push	{r0, r1, r2, r3, r4, lr}
 8000916:	2400      	movs	r4, #0
 8000918:	2278      	movs	r2, #120	; 0x78
 800091a:	4623      	mov	r3, r4
 800091c:	480c      	ldr	r0, [pc, #48]	; (8000950 <vTaskStartScheduler+0x3c>)
 800091e:	490d      	ldr	r1, [pc, #52]	; (8000954 <vTaskStartScheduler+0x40>)
 8000920:	9400      	str	r4, [sp, #0]
 8000922:	9401      	str	r4, [sp, #4]
 8000924:	9402      	str	r4, [sp, #8]
 8000926:	9403      	str	r4, [sp, #12]
 8000928:	f7ff ff36 	bl	8000798 <xTaskGenericCreate>
 800092c:	2801      	cmp	r0, #1
 800092e:	4603      	mov	r3, r0
 8000930:	d10c      	bne.n	800094c <vTaskStartScheduler+0x38>
 8000932:	f04f 00bf 	mov.w	r0, #191	; 0xbf
 8000936:	f380 8811 	msr	BASEPRI, r0
 800093a:	4a07      	ldr	r2, [pc, #28]	; (8000958 <vTaskStartScheduler+0x44>)
 800093c:	f8c2 30b4 	str.w	r3, [r2, #180]	; 0xb4
 8000940:	6054      	str	r4, [r2, #4]
 8000942:	b004      	add	sp, #16
 8000944:	e8bd 4010 	ldmia.w	sp!, {r4, lr}
 8000948:	f000 b9e0 	b.w	8000d0c <xPortStartScheduler>
 800094c:	b004      	add	sp, #16
 800094e:	bd10      	pop	{r4, pc}
 8000950:	08000785 	stmdaeq	r0, {r0, r2, r7, r8, r9, sl}
 8000954:	080010d2 	stmdaeq	r0, {r1, r4, r6, r7, ip}
 8000958:	20000088 	andcs	r0, r0, r8, lsl #1

0800095c <vTaskEndScheduler>:
 800095c:	f04f 00bf 	mov.w	r0, #191	; 0xbf
 8000960:	f380 8811 	msr	BASEPRI, r0
 8000964:	4b02      	ldr	r3, [pc, #8]	; (8000970 <vTaskEndScheduler+0x14>)
 8000966:	2200      	movs	r2, #0
 8000968:	f8c3 20b4 	str.w	r2, [r3, #180]	; 0xb4
 800096c:	f000 b9ec 	b.w	8000d48 <vPortEndScheduler>
 8000970:	20000088 	andcs	r0, r0, r8, lsl #1

08000974 <vTaskSuspendAll>:
 8000974:	4b03      	ldr	r3, [pc, #12]	; (8000984 <vTaskSuspendAll+0x10>)
 8000976:	f8d3 20c4 	ldr.w	r2, [r3, #196]	; 0xc4
 800097a:	3201      	adds	r2, #1
 800097c:	f8c3 20c4 	str.w	r2, [r3, #196]	; 0xc4
 8000980:	4770      	bx	lr
 8000982:	bf00      	nop
 8000984:	20000088 	andcs	r0, r0, r8, lsl #1

08000988 <xTaskGetTickCount>:
 8000988:	b510      	push	{r4, lr}
 800098a:	f000 f9e5 	bl	8000d58 <vPortEnterCritical>
 800098e:	4b03      	ldr	r3, [pc, #12]	; (800099c <xTaskGetTickCount+0x14>)
 8000990:	685c      	ldr	r4, [r3, #4]
 8000992:	f000 f9ed 	bl	8000d70 <vPortExitCritical>
 8000996:	4620      	mov	r0, r4
 8000998:	bd10      	pop	{r4, pc}
 800099a:	bf00      	nop
 800099c:	20000088 	andcs	r0, r0, r8, lsl #1

080009a0 <xTaskGetTickCountFromISR>:
 80009a0:	f04f 00bf 	mov.w	r0, #191	; 0xbf
 80009a4:	f380 8811 	msr	BASEPRI, r0
 80009a8:	4b03      	ldr	r3, [pc, #12]	; (80009b8 <xTaskGetTickCountFromISR+0x18>)
 80009aa:	685b      	ldr	r3, [r3, #4]
 80009ac:	f04f 0000 	mov.w	r0, #0
 80009b0:	f380 8811 	msr	BASEPRI, r0
 80009b4:	4618      	mov	r0, r3
 80009b6:	4770      	bx	lr
 80009b8:	20000088 	andcs	r0, r0, r8, lsl #1

080009bc <uxTaskGetNumberOfTasks>:
 80009bc:	4b01      	ldr	r3, [pc, #4]	; (80009c4 <uxTaskGetNumberOfTasks+0x8>)
 80009be:	6f58      	ldr	r0, [r3, #116]	; 0x74
 80009c0:	4770      	bx	lr
 80009c2:	bf00      	nop
 80009c4:	20000088 	andcs	r0, r0, r8, lsl #1

080009c8 <vTaskIncrementTick>:
 80009c8:	b5f8      	push	{r3, r4, r5, r6, r7, lr}
 80009ca:	4b29      	ldr	r3, [pc, #164]	; (8000a70 <vTaskIncrementTick+0xa8>)
 80009cc:	f8d3 20c4 	ldr.w	r2, [r3, #196]	; 0xc4
 80009d0:	461c      	mov	r4, r3
 80009d2:	2a00      	cmp	r2, #0
 80009d4:	d145      	bne.n	8000a62 <vTaskIncrementTick+0x9a>
 80009d6:	685b      	ldr	r3, [r3, #4]
 80009d8:	4d26      	ldr	r5, [pc, #152]	; (8000a74 <vTaskIncrementTick+0xac>)
 80009da:	3301      	adds	r3, #1
 80009dc:	6063      	str	r3, [r4, #4]
 80009de:	6863      	ldr	r3, [r4, #4]
 80009e0:	b993      	cbnz	r3, 8000a08 <vTaskIncrementTick+0x40>
 80009e2:	68e3      	ldr	r3, [r4, #12]
 80009e4:	68a2      	ldr	r2, [r4, #8]
 80009e6:	60e2      	str	r2, [r4, #12]
 80009e8:	60a3      	str	r3, [r4, #8]
 80009ea:	f8d4 30c8 	ldr.w	r3, [r4, #200]	; 0xc8
 80009ee:	3301      	adds	r3, #1
 80009f0:	f8c4 30c8 	str.w	r3, [r4, #200]	; 0xc8
 80009f4:	68e3      	ldr	r3, [r4, #12]
 80009f6:	681b      	ldr	r3, [r3, #0]
 80009f8:	b90b      	cbnz	r3, 80009fe <vTaskIncrementTick+0x36>
 80009fa:	3b01      	subs	r3, #1
 80009fc:	e003      	b.n	8000a06 <vTaskIncrementTick+0x3e>
 80009fe:	68e3      	ldr	r3, [r4, #12]
 8000a00:	68db      	ldr	r3, [r3, #12]
 8000a02:	68db      	ldr	r3, [r3, #12]
 8000a04:	685b      	ldr	r3, [r3, #4]
 8000a06:	602b      	str	r3, [r5, #0]
 8000a08:	6862      	ldr	r2, [r4, #4]
 8000a0a:	682b      	ldr	r3, [r5, #0]
 8000a0c:	429a      	cmp	r2, r3
 8000a0e:	d32d      	bcc.n	8000a6c <vTaskIncrementTick+0xa4>
 8000a10:	68e3      	ldr	r3, [r4, #12]
 8000a12:	4a17      	ldr	r2, [pc, #92]	; (8000a70 <vTaskIncrementTick+0xa8>)
 8000a14:	681b      	ldr	r3, [r3, #0]
 8000a16:	b90b      	cbnz	r3, 8000a1c <vTaskIncrementTick+0x54>
 8000a18:	3b01      	subs	r3, #1
 8000a1a:	e006      	b.n	8000a2a <vTaskIncrementTick+0x62>
 8000a1c:	68d3      	ldr	r3, [r2, #12]
 8000a1e:	68db      	ldr	r3, [r3, #12]
 8000a20:	68de      	ldr	r6, [r3, #12]
 8000a22:	6852      	ldr	r2, [r2, #4]
 8000a24:	6873      	ldr	r3, [r6, #4]
 8000a26:	429a      	cmp	r2, r3
 8000a28:	d201      	bcs.n	8000a2e <vTaskIncrementTick+0x66>
 8000a2a:	602b      	str	r3, [r5, #0]
 8000a2c:	bdf8      	pop	{r3, r4, r5, r6, r7, pc}
 8000a2e:	1d37      	adds	r7, r6, #4
 8000a30:	4638      	mov	r0, r7
 8000a32:	f7ff fb55 	bl	80000e0 <vListRemove>
 8000a36:	6ab3      	ldr	r3, [r6, #40]	; 0x28
 8000a38:	b11b      	cbz	r3, 8000a42 <vTaskIncrementTick+0x7a>
 8000a3a:	f106 0018 	add.w	r0, r6, #24
 8000a3e:	f7ff fb4f 	bl	80000e0 <vListRemove>
 8000a42:	f8d4 20c0 	ldr.w	r2, [r4, #192]	; 0xc0
 8000a46:	6af3      	ldr	r3, [r6, #44]	; 0x2c
 8000a48:	4639      	mov	r1, r7
 8000a4a:	4293      	cmp	r3, r2
 8000a4c:	bf84      	itt	hi
 8000a4e:	4a08      	ldrhi	r2, [pc, #32]	; (8000a70 <vTaskIncrementTick+0xa8>)
 8000a50:	f8c2 30c0 	strhi.w	r3, [r2, #192]	; 0xc0
 8000a54:	4a08      	ldr	r2, [pc, #32]	; (8000a78 <vTaskIncrementTick+0xb0>)
 8000a56:	2014      	movs	r0, #20
 8000a58:	fb00 2003 	mla	r0, r0, r3, r2
 8000a5c:	f7ff fb1a 	bl	8000094 <vListInsertEnd>
 8000a60:	e7d6      	b.n	8000a10 <vTaskIncrementTick+0x48>
 8000a62:	f8d3 20cc 	ldr.w	r2, [r3, #204]	; 0xcc
 8000a66:	3201      	adds	r2, #1
 8000a68:	f8c3 20cc 	str.w	r2, [r3, #204]	; 0xcc
 8000a6c:	bdf8      	pop	{r3, r4, r5, r6, r7, pc}
 8000a6e:	bf00      	nop
 8000a70:	20000088 	andcs	r0, r0, r8, lsl #1
 8000a74:	20000000 	andcs	r0, r0, r0
 8000a78:	20000098 	mulcs	r0, r8, r0

08000a7c <xTaskResumeAll>:
 8000a7c:	e92d 41f0 	stmdb	sp!, {r4, r5, r6, r7, r8, lr}
 8000a80:	4c2c      	ldr	r4, [pc, #176]	; (8000b34 <xTaskResumeAll+0xb8>)
 8000a82:	f000 f969 	bl	8000d58 <vPortEnterCritical>
 8000a86:	f8d4 30c4 	ldr.w	r3, [r4, #196]	; 0xc4
 8000a8a:	3b01      	subs	r3, #1
 8000a8c:	f8c4 30c4 	str.w	r3, [r4, #196]	; 0xc4
 8000a90:	f8d4 60c4 	ldr.w	r6, [r4, #196]	; 0xc4
 8000a94:	2e00      	cmp	r6, #0
 8000a96:	d145      	bne.n	8000b24 <xTaskResumeAll+0xa8>
 8000a98:	6f63      	ldr	r3, [r4, #116]	; 0x74
 8000a9a:	bb03      	cbnz	r3, 8000ade <xTaskResumeAll+0x62>
 8000a9c:	e044      	b.n	8000b28 <xTaskResumeAll+0xac>
 8000a9e:	f8d7 30ac 	ldr.w	r3, [r7, #172]	; 0xac
 8000aa2:	68dd      	ldr	r5, [r3, #12]
 8000aa4:	f105 0018 	add.w	r0, r5, #24
 8000aa8:	f105 0804 	add.w	r8, r5, #4
 8000aac:	f7ff fb18 	bl	80000e0 <vListRemove>
 8000ab0:	4640      	mov	r0, r8
 8000ab2:	f7ff fb15 	bl	80000e0 <vListRemove>
 8000ab6:	6aeb      	ldr	r3, [r5, #44]	; 0x2c
 8000ab8:	f8d7 20c0 	ldr.w	r2, [r7, #192]	; 0xc0
 8000abc:	4641      	mov	r1, r8
 8000abe:	4293      	cmp	r3, r2
 8000ac0:	4a1d      	ldr	r2, [pc, #116]	; (8000b38 <xTaskResumeAll+0xbc>)
 8000ac2:	bf88      	it	hi
 8000ac4:	f8c7 30c0 	strhi.w	r3, [r7, #192]	; 0xc0
 8000ac8:	2014      	movs	r0, #20
 8000aca:	fb00 2003 	mla	r0, r0, r3, r2
 8000ace:	f7ff fae1 	bl	8000094 <vListInsertEnd>
 8000ad2:	6823      	ldr	r3, [r4, #0]
 8000ad4:	6aea      	ldr	r2, [r5, #44]	; 0x2c
 8000ad6:	6adb      	ldr	r3, [r3, #44]	; 0x2c
 8000ad8:	429a      	cmp	r2, r3
 8000ada:	bf28      	it	cs
 8000adc:	2601      	movcs	r6, #1
 8000ade:	f8d4 30a0 	ldr.w	r3, [r4, #160]	; 0xa0
 8000ae2:	4f14      	ldr	r7, [pc, #80]	; (8000b34 <xTaskResumeAll+0xb8>)
 8000ae4:	2b00      	cmp	r3, #0
 8000ae6:	d1da      	bne.n	8000a9e <xTaskResumeAll+0x22>
 8000ae8:	f8d7 30cc 	ldr.w	r3, [r7, #204]	; 0xcc
 8000aec:	b93b      	cbnz	r3, 8000afe <xTaskResumeAll+0x82>
 8000aee:	e00c      	b.n	8000b0a <xTaskResumeAll+0x8e>
 8000af0:	f7ff ff6a 	bl	80009c8 <vTaskIncrementTick>
 8000af4:	f8d5 30cc 	ldr.w	r3, [r5, #204]	; 0xcc
 8000af8:	3b01      	subs	r3, #1
 8000afa:	f8c5 30cc 	str.w	r3, [r5, #204]	; 0xcc
 8000afe:	f8d4 30cc 	ldr.w	r3, [r4, #204]	; 0xcc
 8000b02:	4d0c      	ldr	r5, [pc, #48]	; (8000b34 <xTaskResumeAll+0xb8>)
 8000b04:	2b00      	cmp	r3, #0
 8000b06:	d1f3      	bne.n	8000af0 <xTaskResumeAll+0x74>
 8000b08:	e005      	b.n	8000b16 <xTaskResumeAll+0x9a>
 8000b0a:	2e01      	cmp	r6, #1
 8000b0c:	d003      	beq.n	8000b16 <xTaskResumeAll+0x9a>
 8000b0e:	f8d7 20d0 	ldr.w	r2, [r7, #208]	; 0xd0
 8000b12:	2a01      	cmp	r2, #1
 8000b14:	d108      	bne.n	8000b28 <xTaskResumeAll+0xac>
 8000b16:	2300      	movs	r3, #0
 8000b18:	f8c4 30d0 	str.w	r3, [r4, #208]	; 0xd0
 8000b1c:	f000 f915 	bl	8000d4a <vPortYieldFromISR>
 8000b20:	2401      	movs	r4, #1
 8000b22:	e002      	b.n	8000b2a <xTaskResumeAll+0xae>
 8000b24:	2400      	movs	r4, #0
 8000b26:	e000      	b.n	8000b2a <xTaskResumeAll+0xae>
 8000b28:	461c      	mov	r4, r3
 8000b2a:	f000 f921 	bl	8000d70 <vPortExitCritical>
 8000b2e:	4620      	mov	r0, r4
 8000b30:	e8bd 81f0 	ldmia.w	sp!, {r4, r5, r6, r7, r8, pc}
 8000b34:	20000088 	andcs	r0, r0, r8, lsl #1
 8000b38:	20000098 	mulcs	r0, r8, r0

08000b3c <vTaskDelay>:
 8000b3c:	b570      	push	{r4, r5, r6, lr}
 8000b3e:	4604      	mov	r4, r0
 8000b40:	b168      	cbz	r0, 8000b5e <vTaskDelay+0x22>
 8000b42:	f7ff ff17 	bl	8000974 <vTaskSuspendAll>
 8000b46:	4b08      	ldr	r3, [pc, #32]	; (8000b68 <vTaskDelay+0x2c>)
 8000b48:	685d      	ldr	r5, [r3, #4]
 8000b4a:	6818      	ldr	r0, [r3, #0]
 8000b4c:	3004      	adds	r0, #4
 8000b4e:	f7ff fac7 	bl	80000e0 <vListRemove>
 8000b52:	1960      	adds	r0, r4, r5
 8000b54:	f7ff fdf8 	bl	8000748 <prvAddCurrentTaskToDelayedList>
 8000b58:	f7ff ff90 	bl	8000a7c <xTaskResumeAll>
 8000b5c:	b918      	cbnz	r0, 8000b66 <vTaskDelay+0x2a>
 8000b5e:	e8bd 4070 	ldmia.w	sp!, {r4, r5, r6, lr}
 8000b62:	f000 b8f2 	b.w	8000d4a <vPortYieldFromISR>
 8000b66:	bd70      	pop	{r4, r5, r6, pc}
 8000b68:	20000088 	andcs	r0, r0, r8, lsl #1

08000b6c <vTaskSwitchContext>:
 8000b6c:	4b15      	ldr	r3, [pc, #84]	; (8000bc4 <vTaskSwitchContext+0x58>)
 8000b6e:	b530      	push	{r4, r5, lr}
 8000b70:	f8d3 10c4 	ldr.w	r1, [r3, #196]	; 0xc4
 8000b74:	461a      	mov	r2, r3
 8000b76:	b141      	cbz	r1, 8000b8a <vTaskSwitchContext+0x1e>
 8000b78:	2201      	movs	r2, #1
 8000b7a:	f8c3 20d0 	str.w	r2, [r3, #208]	; 0xd0
 8000b7e:	bd30      	pop	{r4, r5, pc}
 8000b80:	f8d3 10c0 	ldr.w	r1, [r3, #192]	; 0xc0
 8000b84:	3901      	subs	r1, #1
 8000b86:	f8c3 10c0 	str.w	r1, [r3, #192]	; 0xc0
 8000b8a:	f8d2 10c0 	ldr.w	r1, [r2, #192]	; 0xc0
 8000b8e:	2514      	movs	r5, #20
 8000b90:	fb05 2101 	mla	r1, r5, r1, r2
 8000b94:	6909      	ldr	r1, [r1, #16]
 8000b96:	4b0b      	ldr	r3, [pc, #44]	; (8000bc4 <vTaskSwitchContext+0x58>)
 8000b98:	2900      	cmp	r1, #0
 8000b9a:	d0f1      	beq.n	8000b80 <vTaskSwitchContext+0x14>
 8000b9c:	f8d3 40c0 	ldr.w	r4, [r3, #192]	; 0xc0
 8000ba0:	4365      	muls	r5, r4
 8000ba2:	1959      	adds	r1, r3, r5
 8000ba4:	6948      	ldr	r0, [r1, #20]
 8000ba6:	460b      	mov	r3, r1
 8000ba8:	6840      	ldr	r0, [r0, #4]
 8000baa:	3318      	adds	r3, #24
 8000bac:	6148      	str	r0, [r1, #20]
 8000bae:	4298      	cmp	r0, r3
 8000bb0:	bf04      	itt	eq
 8000bb2:	6843      	ldreq	r3, [r0, #4]
 8000bb4:	614b      	streq	r3, [r1, #20]
 8000bb6:	2314      	movs	r3, #20
 8000bb8:	fb03 2404 	mla	r4, r3, r4, r2
 8000bbc:	6963      	ldr	r3, [r4, #20]
 8000bbe:	68db      	ldr	r3, [r3, #12]
 8000bc0:	6013      	str	r3, [r2, #0]
 8000bc2:	bd30      	pop	{r4, r5, pc}
 8000bc4:	20000088 	andcs	r0, r0, r8, lsl #1

08000bc8 <vTaskPlaceOnEventList>:
 8000bc8:	b570      	push	{r4, r5, r6, lr}
 8000bca:	4c07      	ldr	r4, [pc, #28]	; (8000be8 <vTaskPlaceOnEventList+0x20>)
 8000bcc:	460d      	mov	r5, r1
 8000bce:	6821      	ldr	r1, [r4, #0]
 8000bd0:	3118      	adds	r1, #24
 8000bd2:	f7ff fa6c 	bl	80000ae <vListInsert>
 8000bd6:	6820      	ldr	r0, [r4, #0]
 8000bd8:	3004      	adds	r0, #4
 8000bda:	f7ff fa81 	bl	80000e0 <vListRemove>
 8000bde:	6860      	ldr	r0, [r4, #4]
 8000be0:	1828      	adds	r0, r5, r0
 8000be2:	e8bd 4070 	ldmia.w	sp!, {r4, r5, r6, lr}
 8000be6:	e5af      	b.n	8000748 <prvAddCurrentTaskToDelayedList>
 8000be8:	20000088 	andcs	r0, r0, r8, lsl #1

08000bec <xTaskRemoveFromEventList>:
 8000bec:	b570      	push	{r4, r5, r6, lr}
 8000bee:	68c3      	ldr	r3, [r0, #12]
 8000bf0:	4d13      	ldr	r5, [pc, #76]	; (8000c40 <xTaskRemoveFromEventList+0x54>)
 8000bf2:	68dc      	ldr	r4, [r3, #12]
 8000bf4:	f104 0618 	add.w	r6, r4, #24
 8000bf8:	4630      	mov	r0, r6
 8000bfa:	f7ff fa71 	bl	80000e0 <vListRemove>
 8000bfe:	f8d5 30c4 	ldr.w	r3, [r5, #196]	; 0xc4
 8000c02:	b97b      	cbnz	r3, 8000c24 <xTaskRemoveFromEventList+0x38>
 8000c04:	1d26      	adds	r6, r4, #4
 8000c06:	4630      	mov	r0, r6
 8000c08:	f7ff fa6a 	bl	80000e0 <vListRemove>
 8000c0c:	6ae3      	ldr	r3, [r4, #44]	; 0x2c
 8000c0e:	f8d5 20c0 	ldr.w	r2, [r5, #192]	; 0xc0
 8000c12:	4293      	cmp	r3, r2
 8000c14:	4a0b      	ldr	r2, [pc, #44]	; (8000c44 <xTaskRemoveFromEventList+0x58>)
 8000c16:	bf88      	it	hi
 8000c18:	f8c5 30c0 	strhi.w	r3, [r5, #192]	; 0xc0
 8000c1c:	2014      	movs	r0, #20
 8000c1e:	fb00 2003 	mla	r0, r0, r3, r2
 8000c22:	e001      	b.n	8000c28 <xTaskRemoveFromEventList+0x3c>
 8000c24:	f105 00a0 	add.w	r0, r5, #160	; 0xa0
 8000c28:	4631      	mov	r1, r6
 8000c2a:	f7ff fa33 	bl	8000094 <vListInsertEnd>
 8000c2e:	682b      	ldr	r3, [r5, #0]
 8000c30:	6ae0      	ldr	r0, [r4, #44]	; 0x2c
 8000c32:	6adb      	ldr	r3, [r3, #44]	; 0x2c
 8000c34:	4298      	cmp	r0, r3
 8000c36:	bf34      	ite	cc
 8000c38:	2000      	movcc	r0, #0
 8000c3a:	2001      	movcs	r0, #1
 8000c3c:	bd70      	pop	{r4, r5, r6, pc}
 8000c3e:	bf00      	nop
 8000c40:	20000088 	andcs	r0, r0, r8, lsl #1
 8000c44:	20000098 	mulcs	r0, r8, r0

08000c48 <vTaskSetTimeOutState>:
 8000c48:	4b03      	ldr	r3, [pc, #12]	; (8000c58 <vTaskSetTimeOutState+0x10>)
 8000c4a:	f8d3 20c8 	ldr.w	r2, [r3, #200]	; 0xc8
 8000c4e:	685b      	ldr	r3, [r3, #4]
 8000c50:	6002      	str	r2, [r0, #0]
 8000c52:	6043      	str	r3, [r0, #4]
 8000c54:	4770      	bx	lr
 8000c56:	bf00      	nop
 8000c58:	20000088 	andcs	r0, r0, r8, lsl #1

08000c5c <xTaskCheckForTimeOut>:
 8000c5c:	b538      	push	{r3, r4, r5, lr}
 8000c5e:	4604      	mov	r4, r0
 8000c60:	460d      	mov	r5, r1
 8000c62:	f000 f879 	bl	8000d58 <vPortEnterCritical>
 8000c66:	4b10      	ldr	r3, [pc, #64]	; (8000ca8 <xTaskCheckForTimeOut+0x4c>)
 8000c68:	6822      	ldr	r2, [r4, #0]
 8000c6a:	f8d3 10c8 	ldr.w	r1, [r3, #200]	; 0xc8
 8000c6e:	4291      	cmp	r1, r2
 8000c70:	461a      	mov	r2, r3
 8000c72:	d003      	beq.n	8000c7c <xTaskCheckForTimeOut+0x20>
 8000c74:	6859      	ldr	r1, [r3, #4]
 8000c76:	6863      	ldr	r3, [r4, #4]
 8000c78:	4299      	cmp	r1, r3
 8000c7a:	d20f      	bcs.n	8000c9c <xTaskCheckForTimeOut+0x40>
 8000c7c:	6851      	ldr	r1, [r2, #4]
 8000c7e:	6862      	ldr	r2, [r4, #4]
 8000c80:	682b      	ldr	r3, [r5, #0]
 8000c82:	1a89      	subs	r1, r1, r2
 8000c84:	4299      	cmp	r1, r3
 8000c86:	d209      	bcs.n	8000c9c <xTaskCheckForTimeOut+0x40>
 8000c88:	4907      	ldr	r1, [pc, #28]	; (8000ca8 <xTaskCheckForTimeOut+0x4c>)
 8000c8a:	4620      	mov	r0, r4
 8000c8c:	6849      	ldr	r1, [r1, #4]
 8000c8e:	2400      	movs	r4, #0
 8000c90:	1a52      	subs	r2, r2, r1
 8000c92:	18d3      	adds	r3, r2, r3
 8000c94:	602b      	str	r3, [r5, #0]
 8000c96:	f7ff ffd7 	bl	8000c48 <vTaskSetTimeOutState>
 8000c9a:	e000      	b.n	8000c9e <xTaskCheckForTimeOut+0x42>
 8000c9c:	2401      	movs	r4, #1
 8000c9e:	f000 f867 	bl	8000d70 <vPortExitCritical>
 8000ca2:	4620      	mov	r0, r4
 8000ca4:	bd38      	pop	{r3, r4, r5, pc}
 8000ca6:	bf00      	nop
 8000ca8:	20000088 	andcs	r0, r0, r8, lsl #1

08000cac <vTaskMissedYield>:
 8000cac:	4b02      	ldr	r3, [pc, #8]	; (8000cb8 <vTaskMissedYield+0xc>)
 8000cae:	2201      	movs	r2, #1
 8000cb0:	f8c3 20d0 	str.w	r2, [r3, #208]	; 0xd0
 8000cb4:	4770      	bx	lr
 8000cb6:	bf00      	nop
 8000cb8:	20000088 	andcs	r0, r0, r8, lsl #1

08000cbc <prvPortStartFirstTask>:
 8000cbc:	484a      	ldr	r0, [pc, #296]	; (8000de8 <xPortSysTickHandler+0x24>)
 8000cbe:	6800      	ldr	r0, [r0, #0]
 8000cc0:	6800      	ldr	r0, [r0, #0]
 8000cc2:	f380 8808 	msr	MSP, r0
 8000cc6:	b662      	cpsie	i
 8000cc8:	df00      	svc	0
 8000cca:	bf00      	nop

08000ccc <pxPortInitialiseStack>:
 8000ccc:	b510      	push	{r4, lr}
 8000cce:	1f03      	subs	r3, r0, #4
 8000cd0:	f04f 7480 	mov.w	r4, #16777216	; 0x1000000
 8000cd4:	f840 4c04 	str.w	r4, [r0, #-4]
 8000cd8:	f843 1c04 	str.w	r1, [r3, #-4]
 8000cdc:	2100      	movs	r1, #0
 8000cde:	f843 1c08 	str.w	r1, [r3, #-8]
 8000ce2:	f843 2c1c 	str.w	r2, [r3, #-28]
 8000ce6:	f1a3 003c 	sub.w	r0, r3, #60	; 0x3c
 8000cea:	bd10      	pop	{r4, pc}

08000cec <vPortSVCHandler>:
 8000cec:	4b06      	ldr	r3, [pc, #24]	; (8000d08 <pxCurrentTCBConst2>)
 8000cee:	6819      	ldr	r1, [r3, #0]
 8000cf0:	6808      	ldr	r0, [r1, #0]
 8000cf2:	e8b0 0ff0 	ldmia.w	r0!, {r4, r5, r6, r7, r8, r9, sl, fp}
 8000cf6:	f380 8809 	msr	PSP, r0
 8000cfa:	f04f 0000 	mov.w	r0, #0
 8000cfe:	f380 8811 	msr	BASEPRI, r0
 8000d02:	f04e 0e0d 	orr.w	lr, lr, #13
 8000d06:	4770      	bx	lr

08000d08 <pxCurrentTCBConst2>:
 8000d08:	20000088 	andcs	r0, r0, r8, lsl #1

08000d0c <xPortStartScheduler>:
 8000d0c:	4b0b      	ldr	r3, [pc, #44]	; (8000d3c <xPortStartScheduler+0x30>)
 8000d0e:	b510      	push	{r4, lr}
 8000d10:	681a      	ldr	r2, [r3, #0]
 8000d12:	2400      	movs	r4, #0
 8000d14:	f442 027f 	orr.w	r2, r2, #16711680	; 0xff0000
 8000d18:	601a      	str	r2, [r3, #0]
 8000d1a:	681a      	ldr	r2, [r3, #0]
 8000d1c:	f042 427f 	orr.w	r2, r2, #4278190080	; 0xff000000
 8000d20:	601a      	str	r2, [r3, #0]
 8000d22:	4b07      	ldr	r3, [pc, #28]	; (8000d40 <xPortStartScheduler+0x34>)
 8000d24:	f641 723f 	movw	r2, #7999	; 0x1f3f
 8000d28:	601a      	str	r2, [r3, #0]
 8000d2a:	2207      	movs	r2, #7
 8000d2c:	f843 2c04 	str.w	r2, [r3, #-4]
 8000d30:	4b04      	ldr	r3, [pc, #16]	; (8000d44 <xPortStartScheduler+0x38>)
 8000d32:	601c      	str	r4, [r3, #0]
 8000d34:	f7ff ffc2 	bl	8000cbc <prvPortStartFirstTask>
 8000d38:	4620      	mov	r0, r4
 8000d3a:	bd10      	pop	{r4, pc}
 8000d3c:	e000ed20 	and	lr, r0, r0, lsr #26
 8000d40:	e000e014 	and	lr, r0, r4, lsl r0
 8000d44:	20000004 	andcs	r0, r0, r4

08000d48 <vPortEndScheduler>:
 8000d48:	4770      	bx	lr

08000d4a <vPortYieldFromISR>:
 8000d4a:	4b02      	ldr	r3, [pc, #8]	; (8000d54 <vPortYieldFromISR+0xa>)
 8000d4c:	f04f 5280 	mov.w	r2, #268435456	; 0x10000000
 8000d50:	601a      	str	r2, [r3, #0]
 8000d52:	4770      	bx	lr
 8000d54:	e000ed04 	and	lr, r0, r4, lsl #26

08000d58 <vPortEnterCritical>:
 8000d58:	f04f 00bf 	mov.w	r0, #191	; 0xbf
 8000d5c:	f380 8811 	msr	BASEPRI, r0
 8000d60:	4b02      	ldr	r3, [pc, #8]	; (8000d6c <vPortEnterCritical+0x14>)
 8000d62:	681a      	ldr	r2, [r3, #0]
 8000d64:	3201      	adds	r2, #1
 8000d66:	601a      	str	r2, [r3, #0]
 8000d68:	4770      	bx	lr
 8000d6a:	bf00      	nop
 8000d6c:	20000004 	andcs	r0, r0, r4

08000d70 <vPortExitCritical>:
 8000d70:	4a04      	ldr	r2, [pc, #16]	; (8000d84 <vPortExitCritical+0x14>)
 8000d72:	6813      	ldr	r3, [r2, #0]
 8000d74:	3b01      	subs	r3, #1
 8000d76:	6013      	str	r3, [r2, #0]
 8000d78:	b91b      	cbnz	r3, 8000d82 <vPortExitCritical+0x12>
 8000d7a:	f04f 0000 	mov.w	r0, #0
 8000d7e:	f380 8811 	msr	BASEPRI, r0
 8000d82:	4770      	bx	lr
 8000d84:	20000004 	andcs	r0, r0, r4

08000d88 <xPortPendSVHandler>:
 8000d88:	f3ef 8009 	mrs	r0, PSP
 8000d8c:	4b0c      	ldr	r3, [pc, #48]	; (8000dc0 <pxCurrentTCBConst>)
 8000d8e:	681a      	ldr	r2, [r3, #0]
 8000d90:	e920 0ff0 	stmdb	r0!, {r4, r5, r6, r7, r8, r9, sl, fp}
 8000d94:	6010      	str	r0, [r2, #0]
 8000d96:	e92d 4008 	stmdb	sp!, {r3, lr}
 8000d9a:	f04f 00bf 	mov.w	r0, #191	; 0xbf
 8000d9e:	f380 8811 	msr	BASEPRI, r0
 8000da2:	f7ff fee3 	bl	8000b6c <vTaskSwitchContext>
 8000da6:	f04f 0000 	mov.w	r0, #0
 8000daa:	f380 8811 	msr	BASEPRI, r0
 8000dae:	e8bd 4008 	ldmia.w	sp!, {r3, lr}
 8000db2:	6819      	ldr	r1, [r3, #0]
 8000db4:	6808      	ldr	r0, [r1, #0]
 8000db6:	e8b0 0ff0 	ldmia.w	r0!, {r4, r5, r6, r7, r8, r9, sl, fp}
 8000dba:	f380 8809 	msr	PSP, r0
 8000dbe:	4770      	bx	lr

08000dc0 <pxCurrentTCBConst>:
 8000dc0:	20000088 	andcs	r0, r0, r8, lsl #1

08000dc4 <xPortSysTickHandler>:
 8000dc4:	b508      	push	{r3, lr}
 8000dc6:	4b07      	ldr	r3, [pc, #28]	; (8000de4 <xPortSysTickHandler+0x20>)
 8000dc8:	f04f 5280 	mov.w	r2, #268435456	; 0x10000000
 8000dcc:	601a      	str	r2, [r3, #0]
 8000dce:	f04f 00bf 	mov.w	r0, #191	; 0xbf
 8000dd2:	f380 8811 	msr	BASEPRI, r0
 8000dd6:	f7ff fdf7 	bl	80009c8 <vTaskIncrementTick>
 8000dda:	f04f 0000 	mov.w	r0, #0
 8000dde:	f380 8811 	msr	BASEPRI, r0
 8000de2:	bd08      	pop	{r3, pc}
 8000de4:	e000ed04 	and	lr, r0, r4, lsl #26
 8000de8:	e000ed08 	and	lr, r0, r8, lsl #26

08000dec <pvPortMalloc>:
 8000dec:	f010 0f07 	tst.w	r0, #7
 8000df0:	b538      	push	{r3, r4, r5, lr}
 8000df2:	4605      	mov	r5, r0
 8000df4:	bf1c      	itt	ne
 8000df6:	f020 0507 	bicne.w	r5, r0, #7
 8000dfa:	3508      	addne	r5, #8
 8000dfc:	f7ff fdba 	bl	8000974 <vTaskSuspendAll>
 8000e00:	4b08      	ldr	r3, [pc, #32]	; (8000e24 <pvPortMalloc+0x38>)
 8000e02:	681a      	ldr	r2, [r3, #0]
 8000e04:	18ad      	adds	r5, r5, r2
 8000e06:	f5b5 6f20 	cmp.w	r5, #2560	; 0xa00
 8000e0a:	d206      	bcs.n	8000e1a <pvPortMalloc+0x2e>
 8000e0c:	4295      	cmp	r5, r2
 8000e0e:	d904      	bls.n	8000e1a <pvPortMalloc+0x2e>
 8000e10:	f103 0408 	add.w	r4, r3, #8
 8000e14:	18a4      	adds	r4, r4, r2
 8000e16:	601d      	str	r5, [r3, #0]
 8000e18:	e000      	b.n	8000e1c <pvPortMalloc+0x30>
 8000e1a:	2400      	movs	r4, #0
 8000e1c:	f7ff fe2e 	bl	8000a7c <xTaskResumeAll>
 8000e20:	4620      	mov	r0, r4
 8000e22:	bd38      	pop	{r3, r4, r5, pc}
 8000e24:	20000160 	andcs	r0, r0, r0, ror #2

08000e28 <vPortFree>:
 8000e28:	4770      	bx	lr

08000e2a <vPortInitialiseBlocks>:
 8000e2a:	4b02      	ldr	r3, [pc, #8]	; (8000e34 <vPortInitialiseBlocks+0xa>)
 8000e2c:	2200      	movs	r2, #0
 8000e2e:	601a      	str	r2, [r3, #0]
 8000e30:	4770      	bx	lr
 8000e32:	bf00      	nop
 8000e34:	20000160 	andcs	r0, r0, r0, ror #2

08000e38 <xPortGetFreeHeapSize>:
 8000e38:	4b02      	ldr	r3, [pc, #8]	; (8000e44 <xPortGetFreeHeapSize+0xc>)
 8000e3a:	6818      	ldr	r0, [r3, #0]
 8000e3c:	f5c0 6020 	rsb	r0, r0, #2560	; 0xa00
 8000e40:	4770      	bx	lr
 8000e42:	bf00      	nop
 8000e44:	20000160 	andcs	r0, r0, r0, ror #2

08000e48 <memcpy>:
 8000e48:	2a03      	cmp	r2, #3
 8000e4a:	e92d 01f0 	stmdb	sp!, {r4, r5, r6, r7, r8}
 8000e4e:	d809      	bhi.n	8000e64 <memcpy+0x1c>
 8000e50:	b12a      	cbz	r2, 8000e5e <memcpy+0x16>
 8000e52:	2300      	movs	r3, #0
 8000e54:	5ccc      	ldrb	r4, [r1, r3]
 8000e56:	54c4      	strb	r4, [r0, r3]
 8000e58:	3301      	adds	r3, #1
 8000e5a:	4293      	cmp	r3, r2
 8000e5c:	d1fa      	bne.n	8000e54 <memcpy+0xc>
 8000e5e:	e8bd 01f0 	ldmia.w	sp!, {r4, r5, r6, r7, r8}
 8000e62:	4770      	bx	lr
 8000e64:	460b      	mov	r3, r1
 8000e66:	1882      	adds	r2, r0, r2
 8000e68:	4601      	mov	r1, r0
 8000e6a:	e003      	b.n	8000e74 <memcpy+0x2c>
 8000e6c:	7824      	ldrb	r4, [r4, #0]
 8000e6e:	3301      	adds	r3, #1
 8000e70:	f801 4b01 	strb.w	r4, [r1], #1
 8000e74:	f011 0f03 	tst.w	r1, #3
 8000e78:	461c      	mov	r4, r3
 8000e7a:	d1f7      	bne.n	8000e6c <memcpy+0x24>
 8000e7c:	f013 0503 	ands.w	r5, r3, #3
 8000e80:	d05d      	beq.n	8000f3e <memcpy+0xf6>
 8000e82:	426e      	negs	r6, r5
 8000e84:	f1c5 0c04 	rsb	ip, r5, #4
 8000e88:	00ed      	lsls	r5, r5, #3
 8000e8a:	599b      	ldr	r3, [r3, r6]
 8000e8c:	ea4f 0ccc 	mov.w	ip, ip, lsl #3
 8000e90:	e008      	b.n	8000ea4 <memcpy+0x5c>
 8000e92:	3404      	adds	r4, #4
 8000e94:	59a7      	ldr	r7, [r4, r6]
 8000e96:	463b      	mov	r3, r7
 8000e98:	fa07 f70c 	lsl.w	r7, r7, ip
 8000e9c:	ea48 0707 	orr.w	r7, r8, r7
 8000ea0:	f841 7b04 	str.w	r7, [r1], #4
 8000ea4:	1a57      	subs	r7, r2, r1
 8000ea6:	fa23 f805 	lsr.w	r8, r3, r5
 8000eaa:	2f03      	cmp	r7, #3
 8000eac:	dcf1      	bgt.n	8000e92 <memcpy+0x4a>
 8000eae:	e003      	b.n	8000eb8 <memcpy+0x70>
 8000eb0:	f814 3b01 	ldrb.w	r3, [r4], #1
 8000eb4:	f801 3b01 	strb.w	r3, [r1], #1
 8000eb8:	428a      	cmp	r2, r1
 8000eba:	d8f9      	bhi.n	8000eb0 <memcpy+0x68>
 8000ebc:	e7cf      	b.n	8000e5e <memcpy+0x16>
 8000ebe:	f853 4c40 	ldr.w	r4, [r3, #-64]
 8000ec2:	f841 4c40 	str.w	r4, [r1, #-64]
 8000ec6:	f853 4c3c 	ldr.w	r4, [r3, #-60]
 8000eca:	f841 4c3c 	str.w	r4, [r1, #-60]
 8000ece:	f853 4c38 	ldr.w	r4, [r3, #-56]
 8000ed2:	f841 4c38 	str.w	r4, [r1, #-56]
 8000ed6:	f853 4c34 	ldr.w	r4, [r3, #-52]
 8000eda:	f841 4c34 	str.w	r4, [r1, #-52]
 8000ede:	f853 4c30 	ldr.w	r4, [r3, #-48]
 8000ee2:	f841 4c30 	str.w	r4, [r1, #-48]
 8000ee6:	f853 4c2c 	ldr.w	r4, [r3, #-44]
 8000eea:	f841 4c2c 	str.w	r4, [r1, #-44]
 8000eee:	f853 4c28 	ldr.w	r4, [r3, #-40]
 8000ef2:	f841 4c28 	str.w	r4, [r1, #-40]
 8000ef6:	f853 4c24 	ldr.w	r4, [r3, #-36]
 8000efa:	f841 4c24 	str.w	r4, [r1, #-36]
 8000efe:	f853 4c20 	ldr.w	r4, [r3, #-32]
 8000f02:	f841 4c20 	str.w	r4, [r1, #-32]
 8000f06:	f853 4c1c 	ldr.w	r4, [r3, #-28]
 8000f0a:	f841 4c1c 	str.w	r4, [r1, #-28]
 8000f0e:	f853 4c18 	ldr.w	r4, [r3, #-24]
 8000f12:	f841 4c18 	str.w	r4, [r1, #-24]
 8000f16:	f853 4c14 	ldr.w	r4, [r3, #-20]
 8000f1a:	f841 4c14 	str.w	r4, [r1, #-20]
 8000f1e:	f853 4c10 	ldr.w	r4, [r3, #-16]
 8000f22:	f841 4c10 	str.w	r4, [r1, #-16]
 8000f26:	f853 4c0c 	ldr.w	r4, [r3, #-12]
 8000f2a:	f841 4c0c 	str.w	r4, [r1, #-12]
 8000f2e:	f853 4c08 	ldr.w	r4, [r3, #-8]
 8000f32:	f841 4c08 	str.w	r4, [r1, #-8]
 8000f36:	f853 4c04 	ldr.w	r4, [r3, #-4]
 8000f3a:	f841 4c04 	str.w	r4, [r1, #-4]
 8000f3e:	1a56      	subs	r6, r2, r1
 8000f40:	461d      	mov	r5, r3
 8000f42:	460c      	mov	r4, r1
 8000f44:	3340      	adds	r3, #64	; 0x40
 8000f46:	3140      	adds	r1, #64	; 0x40
 8000f48:	2e3f      	cmp	r6, #63	; 0x3f
 8000f4a:	dcb8      	bgt.n	8000ebe <memcpy+0x76>
 8000f4c:	462b      	mov	r3, r5
 8000f4e:	e00f      	b.n	8000f70 <memcpy+0x128>
 8000f50:	f853 1c10 	ldr.w	r1, [r3, #-16]
 8000f54:	f844 1c10 	str.w	r1, [r4, #-16]
 8000f58:	f853 1c0c 	ldr.w	r1, [r3, #-12]
 8000f5c:	f844 1c0c 	str.w	r1, [r4, #-12]
 8000f60:	f853 1c08 	ldr.w	r1, [r3, #-8]
 8000f64:	f844 1c08 	str.w	r1, [r4, #-8]
 8000f68:	f853 1c04 	ldr.w	r1, [r3, #-4]
 8000f6c:	f844 1c04 	str.w	r1, [r4, #-4]
 8000f70:	1b16      	subs	r6, r2, r4
 8000f72:	461d      	mov	r5, r3
 8000f74:	3310      	adds	r3, #16
 8000f76:	2e0f      	cmp	r6, #15
 8000f78:	4621      	mov	r1, r4
 8000f7a:	f104 0410 	add.w	r4, r4, #16
 8000f7e:	dce7      	bgt.n	8000f50 <memcpy+0x108>
 8000f80:	462b      	mov	r3, r5
 8000f82:	e002      	b.n	8000f8a <memcpy+0x142>
 8000f84:	6824      	ldr	r4, [r4, #0]
 8000f86:	f841 4b04 	str.w	r4, [r1], #4
 8000f8a:	1a55      	subs	r5, r2, r1
 8000f8c:	461c      	mov	r4, r3
 8000f8e:	2d03      	cmp	r5, #3
 8000f90:	f103 0304 	add.w	r3, r3, #4
 8000f94:	dcf6      	bgt.n	8000f84 <memcpy+0x13c>
 8000f96:	e78f      	b.n	8000eb8 <memcpy+0x70>

08000f98 <memset>:
 8000f98:	2a03      	cmp	r2, #3
 8000f9a:	b2c9      	uxtb	r1, r1
 8000f9c:	b470      	push	{r4, r5, r6}
 8000f9e:	d808      	bhi.n	8000fb2 <memset+0x1a>
 8000fa0:	b12a      	cbz	r2, 8000fae <memset+0x16>
 8000fa2:	4603      	mov	r3, r0
 8000fa4:	1812      	adds	r2, r2, r0
 8000fa6:	f803 1b01 	strb.w	r1, [r3], #1
 8000faa:	4293      	cmp	r3, r2
 8000fac:	d1fb      	bne.n	8000fa6 <memset+0xe>
 8000fae:	bc70      	pop	{r4, r5, r6}
 8000fb0:	4770      	bx	lr
 8000fb2:	1882      	adds	r2, r0, r2
 8000fb4:	4604      	mov	r4, r0
 8000fb6:	e001      	b.n	8000fbc <memset+0x24>
 8000fb8:	f804 1b01 	strb.w	r1, [r4], #1
 8000fbc:	f014 0f03 	tst.w	r4, #3
 8000fc0:	d1fa      	bne.n	8000fb8 <memset+0x20>
 8000fc2:	f04f 3301 	mov.w	r3, #16843009	; 0x1010101
 8000fc6:	fb03 f301 	mul.w	r3, r3, r1
 8000fca:	e01f      	b.n	800100c <memset+0x74>
 8000fcc:	f844 3c40 	str.w	r3, [r4, #-64]
 8000fd0:	f844 3c3c 	str.w	r3, [r4, #-60]
 8000fd4:	f844 3c38 	str.w	r3, [r4, #-56]
 8000fd8:	f844 3c34 	str.w	r3, [r4, #-52]
 8000fdc:	f844 3c30 	str.w	r3, [r4, #-48]
 8000fe0:	f844 3c2c 	str.w	r3, [r4, #-44]
 8000fe4:	f844 3c28 	str.w	r3, [r4, #-40]
 8000fe8:	f844 3c24 	str.w	r3, [r4, #-36]
 8000fec:	f844 3c20 	str.w	r3, [r4, #-32]
 8000ff0:	f844 3c1c 	str.w	r3, [r4, #-28]
 8000ff4:	f844 3c18 	str.w	r3, [r4, #-24]
 8000ff8:	f844 3c14 	str.w	r3, [r4, #-20]
 8000ffc:	f844 3c10 	str.w	r3, [r4, #-16]
 8001000:	f844 3c0c 	str.w	r3, [r4, #-12]
 8001004:	f844 3c08 	str.w	r3, [r4, #-8]
 8001008:	f844 3c04 	str.w	r3, [r4, #-4]
 800100c:	1b16      	subs	r6, r2, r4
 800100e:	4625      	mov	r5, r4
 8001010:	3440      	adds	r4, #64	; 0x40
 8001012:	2e3f      	cmp	r6, #63	; 0x3f
 8001014:	dcda      	bgt.n	8000fcc <memset+0x34>
 8001016:	462c      	mov	r4, r5
 8001018:	e007      	b.n	800102a <memset+0x92>
 800101a:	f844 3c10 	str.w	r3, [r4, #-16]
 800101e:	f844 3c0c 	str.w	r3, [r4, #-12]
 8001022:	f844 3c08 	str.w	r3, [r4, #-8]
 8001026:	f844 3c04 	str.w	r3, [r4, #-4]
 800102a:	1b16      	subs	r6, r2, r4
 800102c:	4625      	mov	r5, r4
 800102e:	3410      	adds	r4, #16
 8001030:	2e0f      	cmp	r6, #15
 8001032:	dcf2      	bgt.n	800101a <memset+0x82>
 8001034:	e001      	b.n	800103a <memset+0xa2>
 8001036:	f845 3b04 	str.w	r3, [r5], #4
 800103a:	1b54      	subs	r4, r2, r5
 800103c:	2c03      	cmp	r4, #3
 800103e:	dcfa      	bgt.n	8001036 <memset+0x9e>
 8001040:	e001      	b.n	8001046 <memset+0xae>
 8001042:	f805 1b01 	strb.w	r1, [r5], #1
 8001046:	4295      	cmp	r5, r2
 8001048:	d3fb      	bcc.n	8001042 <memset+0xaa>
 800104a:	e7b0      	b.n	8000fae <memset+0x16>

0800104c <strncpy>:
 800104c:	ea41 0300 	orr.w	r3, r1, r0
 8001050:	f013 0f03 	tst.w	r3, #3
 8001054:	4603      	mov	r3, r0
 8001056:	b470      	push	{r4, r5, r6}
 8001058:	bf14      	ite	ne
 800105a:	2500      	movne	r5, #0
 800105c:	2501      	moveq	r5, #1
 800105e:	2a03      	cmp	r2, #3
 8001060:	bf94      	ite	ls
 8001062:	2500      	movls	r5, #0
 8001064:	f005 0501 	andhi.w	r5, r5, #1
 8001068:	460c      	mov	r4, r1
 800106a:	4606      	mov	r6, r0
 800106c:	b9cd      	cbnz	r5, 80010a2 <strncpy+0x56>
 800106e:	b1b2      	cbz	r2, 800109e <strncpy+0x52>
 8001070:	780d      	ldrb	r5, [r1, #0]
 8001072:	4634      	mov	r4, r6
 8001074:	1e53      	subs	r3, r2, #1
 8001076:	f804 5b01 	strb.w	r5, [r4], #1
 800107a:	b155      	cbz	r5, 8001092 <strncpy+0x46>
 800107c:	1cb2      	adds	r2, r6, #2
 800107e:	b173      	cbz	r3, 800109e <strncpy+0x52>
 8001080:	f811 5f01 	ldrb.w	r5, [r1, #1]!
 8001084:	4614      	mov	r4, r2
 8001086:	3b01      	subs	r3, #1
 8001088:	f802 5c01 	strb.w	r5, [r2, #-1]
 800108c:	3201      	adds	r2, #1
 800108e:	2d00      	cmp	r5, #0
 8001090:	d1f5      	bne.n	800107e <strncpy+0x32>
 8001092:	b123      	cbz	r3, 800109e <strncpy+0x52>
 8001094:	2200      	movs	r2, #0
 8001096:	3b01      	subs	r3, #1
 8001098:	f804 2b01 	strb.w	r2, [r4], #1
 800109c:	d1fb      	bne.n	8001096 <strncpy+0x4a>
 800109e:	bc70      	pop	{r4, r5, r6}
 80010a0:	4770      	bx	lr
 80010a2:	4621      	mov	r1, r4
 80010a4:	f854 5b04 	ldr.w	r5, [r4], #4
 80010a8:	f1a5 3601 	sub.w	r6, r5, #16843009	; 0x1010101
 80010ac:	ea26 0605 	bic.w	r6, r6, r5
 80010b0:	f016 3f80 	tst.w	r6, #2155905152	; 0x80808080
 80010b4:	d105      	bne.n	80010c2 <strncpy+0x76>
 80010b6:	3a04      	subs	r2, #4
 80010b8:	f843 5b04 	str.w	r5, [r3], #4
 80010bc:	2a03      	cmp	r2, #3
 80010be:	4621      	mov	r1, r4
 80010c0:	d8ef      	bhi.n	80010a2 <strncpy+0x56>
 80010c2:	461e      	mov	r6, r3
 80010c4:	e7d3      	b.n	800106e <strncpy+0x22>
 80010c6:	bf00      	nop

080010c8 <ulKernelPriority>:
 80010c8:	000000ff 	strdeq	r0, [r0], -pc	; <UNPREDICTABLE>
 80010cc:	6b736154 	blvs	9cd9624 <__text_end+0x1cd854d>
 80010d0:	44490031 	strbmi	r0, [r9], #-49	; 0x31
 80010d4:	Address 0x00000000080010d4 is out of bounds.


Disassembly of section .data:

20000000 <xNextTaskUnblockTime>:
20000000:	ffffffff 			; <UNDEFINED> instruction: 0xffffffff

20000004 <uxCriticalNesting>:
20000004:	aaaaaaaa 	bge	1eaaaab4 <__text_end+0x16aa99dd>

Disassembly of section .bss:

20000008 <pxCurrentCoRoutine>:
20000008:	00000000 	andeq	r0, r0, r0

2000000c <pxReadyCoRoutineLists>:
	...

20000034 <xDelayedCoRoutineList1>:
	...

20000048 <xDelayedCoRoutineList2>:
	...

2000005c <xPendingReadyCoRoutineList>:
	...

20000070 <pxDelayedCoRoutineList>:
20000070:	00000000 	andeq	r0, r0, r0

20000074 <pxOverflowDelayedCoRoutineList>:
20000074:	00000000 	andeq	r0, r0, r0

20000078 <uxTopCoRoutineReadyPriority>:
20000078:	00000000 	andeq	r0, r0, r0

2000007c <xCoRoutineTickCount>:
2000007c:	00000000 	andeq	r0, r0, r0

20000080 <xPassedTicks>:
20000080:	00000000 	andeq	r0, r0, r0

20000084 <xLastTickCount>:
20000084:	00000000 	andeq	r0, r0, r0

20000088 <pxCurrentTCB>:
20000088:	00000000 	andeq	r0, r0, r0

2000008c <xTickCount>:
2000008c:	00000000 	andeq	r0, r0, r0

20000090 <pxOverflowDelayedTaskList>:
20000090:	00000000 	andeq	r0, r0, r0

20000094 <pxDelayedTaskList>:
20000094:	00000000 	andeq	r0, r0, r0

20000098 <pxReadyTasksLists>:
	...

200000fc <uxCurrentNumberOfTasks>:
200000fc:	00000000 	andeq	r0, r0, r0

20000100 <xDelayedTaskList1>:
	...

20000114 <xDelayedTaskList2>:
	...

20000128 <xPendingReadyList>:
	...

2000013c <xSchedulerRunning>:
2000013c:	00000000 	andeq	r0, r0, r0

20000140 <uxTopUsedPriority>:
20000140:	00000000 	andeq	r0, r0, r0

20000144 <uxTaskNumber>:
20000144:	00000000 	andeq	r0, r0, r0

20000148 <uxTopReadyPriority>:
20000148:	00000000 	andeq	r0, r0, r0

2000014c <uxSchedulerSuspended>:
2000014c:	00000000 	andeq	r0, r0, r0

20000150 <xNumOfOverflows>:
20000150:	00000000 	andeq	r0, r0, r0

20000154 <uxMissedTicks>:
20000154:	00000000 	andeq	r0, r0, r0

20000158 <xMissedYield>:
	...

20000160 <xNextFreeByte>:
	...

20000168 <xHeap>:
	...

Disassembly of section .debug_abbrev:

00000000 <.debug_abbrev>:
   0:	25011101 	strcs	r1, [r1, #-257]	; 0x101
   4:	030b130e 	movweq	r1, #45838	; 0xb30e
   8:	110e1b0e 	tstne	lr, lr, lsl #22
   c:	10011201 	andne	r1, r1, r1, lsl #4
  10:	02000006 	andeq	r0, r0, #6
  14:	0b0b0024 	bleq	2c00ac <vector_table-0x7d3ff54>
  18:	0e030b3e 	vmoveq.16	d3[0], r0
  1c:	24030000 	strcs	r0, [r3], #-0
  20:	3e0b0b00 	vmlacc.f64	d0, d11, d0
  24:	0008030b 	andeq	r0, r8, fp, lsl #6
  28:	00160400 	andseq	r0, r6, r0, lsl #8
  2c:	0b3a0e03 	bleq	e83840 <vector_table-0x717c7c0>
  30:	13490b3b 	movtne	r0, #39739	; 0x9b3b
  34:	16050000 	strne	r0, [r5], -r0
  38:	3a0e0300 	bcc	380c40 <vector_table-0x7c7f3c0>
  3c:	49053b0b 	stmdbmi	r5, {r0, r1, r3, r8, r9, fp, ip, sp}
  40:	06000013 			; <UNDEFINED> instruction: 0x06000013
  44:	0b0b0117 	bleq	2c04a8 <vector_table-0x7d3fb58>
  48:	0b3b0b3a 	bleq	ec2d38 <vector_table-0x713d2c8>
  4c:	00001301 	andeq	r1, r0, r1, lsl #6
  50:	03000d07 	movweq	r0, #3335	; 0xd07
  54:	3b0b3a0e 	blcc	2ce894 <vector_table-0x7d3176c>
  58:	0013490b 	andseq	r4, r3, fp, lsl #18
  5c:	01010800 	tsteq	r1, r0, lsl #16
  60:	13011349 	movwne	r1, #4937	; 0x1349
  64:	21090000 	mrscs	r0, (UNDEF: 9)
  68:	2f134900 	svccs	0x00134900
  6c:	0a00000b 	beq	a0 <vector_table-0x7ffff60>
  70:	0b0b0113 	bleq	2c04c4 <vector_table-0x7d3fb3c>
  74:	0b3b0b3a 	bleq	ec2d64 <vector_table-0x713d29c>
  78:	00001301 	andeq	r1, r0, r1, lsl #6
  7c:	03000d0b 	movweq	r0, #3339	; 0xd0b
  80:	3b0b3a0e 	blcc	2ce8c0 <vector_table-0x7d31740>
  84:	3813490b 	ldmdacc	r3, {r0, r1, r3, r8, fp, lr}
  88:	0c00000a 	stceq	0, cr0, [r0], {10}
  8c:	0b0b000f 	bleq	2c00d0 <vector_table-0x7d3ff30>
  90:	130d0000 	movwne	r0, #53248	; 0xd000
  94:	0b0e0301 	bleq	380ca0 <vector_table-0x7c7f360>
  98:	3b0b3a0b 	blcc	2ce8cc <vector_table-0x7d31734>
  9c:	0013010b 	andseq	r0, r3, fp, lsl #2
  a0:	000d0e00 	andeq	r0, sp, r0, lsl #28
  a4:	0b3a0803 	bleq	e820b8 <vector_table-0x717df48>
  a8:	13490b3b 	movtne	r0, #39739	; 0x9b3b
  ac:	00000a38 	andeq	r0, r0, r8, lsr sl
  b0:	0b000f0f 	bleq	3cf4 <vector_table-0x7ffc30c>
  b4:	0013490b 	andseq	r4, r3, fp, lsl #18
  b8:	01131000 	tsteq	r3, r0
  bc:	050b0e03 	streq	r0, [fp, #-3587]	; 0xe03
  c0:	0b3b0b3a 	bleq	ec2db0 <vector_table-0x713d250>
  c4:	00001301 	andeq	r1, r0, r1, lsl #6
  c8:	27001511 	smladcs	r0, r1, r5, r1
  cc:	1200000c 	andne	r0, r0, #12
  d0:	0e030113 	mcreq	1, 0, r0, cr3, cr3, {0}
  d4:	0b3a0b0b 	bleq	e82d08 <vector_table-0x717d2f8>
  d8:	1301053b 	movwne	r0, #5435	; 0x153b
  dc:	0d130000 	ldceq	0, cr0, [r3, #-0]
  e0:	3a0e0300 	bcc	380ce8 <vector_table-0x7c7f318>
  e4:	49053b0b 	stmdbmi	r5, {r0, r1, r3, r8, r9, fp, ip, sp}
  e8:	000a3813 	andeq	r3, sl, r3, lsl r8
  ec:	000d1400 	andeq	r1, sp, r0, lsl #8
  f0:	0b3a0803 	bleq	e82104 <vector_table-0x717defc>
  f4:	1349053b 	movtne	r0, #38203	; 0x953b
  f8:	00000a38 	andeq	r0, r0, r8, lsr sl
  fc:	27011515 	smladcs	r1, r5, r5, r1
 100:	0113490c 	tsteq	r3, ip, lsl #18
 104:	16000013 			; <UNDEFINED> instruction: 0x16000013
 108:	13490005 	movtne	r0, #36869	; 0x9005
 10c:	26170000 	ldrcs	r0, [r7], -r0
 110:	00134900 	andseq	r4, r3, r0, lsl #18
 114:	01151800 	tsteq	r5, r0, lsl #16
 118:	13010c27 	movwne	r0, #7207	; 0x1c27
 11c:	2e190000 	cdpcs	0, 1, cr0, cr9, cr0, {0}
 120:	030c3f01 	movweq	r3, #52993	; 0xcf01
 124:	3b0b3a0e 	blcc	2ce964 <vector_table-0x7d3169c>
 128:	110c270b 	tstne	ip, fp, lsl #14
 12c:	40011201 	andmi	r1, r1, r1, lsl #4
 130:	0013010a 	andseq	r0, r3, sl, lsl #2
 134:	00051a00 	andeq	r1, r5, r0, lsl #20
 138:	0b3a0e03 	bleq	e8394c <vector_table-0x717c6b4>
 13c:	13490b3b 	movtne	r0, #39739	; 0x9b3b
 140:	00000a02 	andeq	r0, r0, r2, lsl #20
 144:	3f002e1b 	svccc	0x00002e1b
 148:	3a0e030c 	bcc	380d80 <vector_table-0x7c7f280>
 14c:	270b3b0b 	strcs	r3, [fp, -fp, lsl #22]
 150:	1201110c 	andne	r1, r1, #3
 154:	00064001 	andeq	r4, r6, r1
 158:	012e1c00 	teqeq	lr, r0, lsl #24
 15c:	0e030c3f 	mcreq	12, 0, r0, cr3, cr15, {1}
 160:	0b3b0b3a 	bleq	ec2e50 <vector_table-0x713d1b0>
 164:	13490c27 	movtne	r0, #39975	; 0x9c27
 168:	01120111 	tsteq	r2, r1, lsl r1
 16c:	00000a40 	andeq	r0, r0, r0, asr #20
 170:	0300051d 	movweq	r0, #1309	; 0x51d
 174:	3b0b3a08 	blcc	2ce99c <vector_table-0x7d31664>
 178:	0213490b 	andseq	r4, r3, #180224	; 0x2c000
 17c:	00000006 	andeq	r0, r0, r6
 180:	25011101 	strcs	r1, [r1, #-257]	; 0x101
 184:	030b130e 	movweq	r1, #45838	; 0xb30e
 188:	110e1b0e 	tstne	lr, lr, lsl #22
 18c:	10011201 	andne	r1, r1, r1, lsl #4
 190:	02000006 	andeq	r0, r0, #6
 194:	0c3f002e 	ldceq	0, cr0, [pc], #-184	; e4 <vector_table-0x7ffff1c>
 198:	0b3a0e03 	bleq	e839ac <vector_table-0x717c654>
 19c:	0c270b3b 	stceq	11, cr0, [r7], #-236	; 0xffffff14
 1a0:	01120111 	tsteq	r2, r1, lsl r1
 1a4:	00000a40 	andeq	r0, r0, r0, asr #20
 1a8:	03003403 	movweq	r3, #1027	; 0x403
 1ac:	3b0b3a0e 	blcc	2ce9ec <vector_table-0x7d31614>
 1b0:	3f13490b 	svccc	0x0013490b
 1b4:	000c3c0c 	andeq	r3, ip, ip, lsl #24
 1b8:	00240400 	eoreq	r0, r4, r0, lsl #8
 1bc:	0b3e0b0b 	bleq	f82df0 <vector_table-0x707d210>
 1c0:	00000e03 	andeq	r0, r0, r3, lsl #28
 1c4:	49010105 	stmdbmi	r1, {r0, r2, r8}
 1c8:	00130113 	andseq	r0, r3, r3, lsl r1
 1cc:	00210600 	eoreq	r0, r1, r0, lsl #12
 1d0:	0b2f1349 	bleq	bc4efc <vector_table-0x743b104>
 1d4:	0f070000 	svceq	0x00070000
 1d8:	000b0b00 	andeq	r0, fp, r0, lsl #22
 1dc:	00340800 	eorseq	r0, r4, r0, lsl #16
 1e0:	0b3a0e03 	bleq	e839f4 <vector_table-0x717c60c>
 1e4:	13490b3b 	movtne	r0, #39739	; 0x9b3b
 1e8:	0a020c3f 	beq	832ec <vector_table-0x7f7cd14>
 1ec:	01000000 	mrseq	r0, (UNDEF: 0)
 1f0:	0e250111 	mcreq	1, 1, r0, cr5, cr1, {0}
 1f4:	0e030b13 	vmoveq.32	d3[0], r0
 1f8:	01110e1b 	tsteq	r1, fp, lsl lr
 1fc:	06100112 			; <UNDEFINED> instruction: 0x06100112
 200:	24020000 	strcs	r0, [r2], #-0
 204:	3e0b0b00 	vmlacc.f64	d0, d11, d0
 208:	000e030b 	andeq	r0, lr, fp, lsl #6
 20c:	00240300 	eoreq	r0, r4, r0, lsl #6
 210:	0b3e0b0b 	bleq	f82e44 <vector_table-0x707d1bc>
 214:	00000803 	andeq	r0, r0, r3, lsl #16
 218:	0b000f04 	bleq	3e30 <vector_table-0x7ffc1d0>
 21c:	0500000b 	streq	r0, [r0, #-11]
 220:	0e030016 	mcreq	0, 0, r0, cr3, cr6, {0}
 224:	0b3b0b3a 	bleq	ec2f14 <vector_table-0x713d0ec>
 228:	00001349 	andeq	r1, r0, r9, asr #6
 22c:	03011306 	movweq	r1, #4870	; 0x1306
 230:	3a0b0b0e 	bcc	2c2e70 <vector_table-0x7d3d190>
 234:	010b3b0b 	tsteq	fp, fp, lsl #22
 238:	07000013 	smladeq	r0, r3, r0, r0
 23c:	0e03000d 	cdpeq	0, 0, cr0, cr3, cr13, {0}
 240:	0b3b0b3a 	bleq	ec2f30 <vector_table-0x713d0d0>
 244:	0a381349 	beq	e04f70 <vector_table-0x71fb090>
 248:	0f080000 	svceq	0x00080000
 24c:	490b0b00 	stmdbmi	fp, {r8, r9, fp}
 250:	09000013 	stmdbeq	r0, {r0, r1, r4}
 254:	13490035 	movtne	r0, #36917	; 0x9035
 258:	2e0a0000 	cdpcs	0, 0, cr0, cr10, cr0, {0}
 25c:	030c3f01 	movweq	r3, #52993	; 0xcf01
 260:	3b0b3a0e 	blcc	2ceaa0 <vector_table-0x7d31560>
 264:	110c270b 	tstne	ip, fp, lsl #14
 268:	40011201 	andmi	r1, r1, r1, lsl #4
 26c:	0013010a 	andseq	r0, r3, sl, lsl #2
 270:	00050b00 	andeq	r0, r5, r0, lsl #22
 274:	0b3a0e03 	bleq	e83a88 <vector_table-0x717c578>
 278:	13490b3b 	movtne	r0, #39739	; 0x9b3b
 27c:	00000a02 	andeq	r0, r0, r2, lsl #20
 280:	0300340c 	movweq	r3, #1036	; 0x40c
 284:	3b0b3a0e 	blcc	2ceac4 <vector_table-0x7d3153c>
 288:	0213490b 	andseq	r4, r3, #180224	; 0x2c000
 28c:	0d00000a 	stceq	0, cr0, [r0, #-40]	; 0xffffffd8
 290:	0c3f012e 	ldfeqs	f0, [pc], #-184	; 1e0 <vector_table-0x7fffe20>
 294:	0b3a0e03 	bleq	e83aa8 <vector_table-0x717c558>
 298:	0c270b3b 	stceq	11, cr0, [r7], #-236	; 0xffffff14
 29c:	01120111 	tsteq	r2, r1, lsl r1
 2a0:	13010640 	movwne	r0, #5696	; 0x1640
 2a4:	340e0000 	strcc	r0, [lr], #-0
 2a8:	3a0e0300 	bcc	380eb0 <vector_table-0x7c7f150>
 2ac:	490b3b0b 	stmdbmi	fp, {r0, r1, r3, r8, r9, fp, ip, sp}
 2b0:	00060213 	andeq	r0, r6, r3, lsl r2
 2b4:	012e0f00 	teqeq	lr, r0, lsl #30
 2b8:	0e030c3f 	mcreq	12, 0, r0, cr3, cr15, {1}
 2bc:	0b3b0b3a 	bleq	ec2fac <vector_table-0x713d054>
 2c0:	01110c27 	tsteq	r1, r7, lsr #24
 2c4:	0a400112 	beq	1000714 <vector_table-0x6fff8ec>
 2c8:	01000000 	mrseq	r0, (UNDEF: 0)
 2cc:	0e250111 	mcreq	1, 1, r0, cr5, cr1, {0}
 2d0:	0e030b13 	vmoveq.32	d3[0], r0
 2d4:	01110e1b 	tsteq	r1, fp, lsl lr
 2d8:	06100112 			; <UNDEFINED> instruction: 0x06100112
 2dc:	24020000 	strcs	r0, [r2], #-0
 2e0:	3e0b0b00 	vmlacc.f64	d0, d11, d0
 2e4:	0008030b 	andeq	r0, r8, fp, lsl #6
 2e8:	00240300 	eoreq	r0, r4, r0, lsl #6
 2ec:	0b3e0b0b 	bleq	f82f20 <vector_table-0x707d0e0>
 2f0:	00000e03 	andeq	r0, r0, r3, lsl #28
 2f4:	0b000f04 	bleq	3f0c <vector_table-0x7ffc0f4>
 2f8:	0500000b 	streq	r0, [r0, #-11]
 2fc:	0e030016 	mcreq	0, 0, r0, cr3, cr6, {0}
 300:	0b3b0b3a 	bleq	ec2ff0 <vector_table-0x713d010>
 304:	00001349 	andeq	r1, r0, r9, asr #6
 308:	03011306 	movweq	r1, #4870	; 0x1306
 30c:	3a0b0b0e 	bcc	2c2f4c <vector_table-0x7d3d0b4>
 310:	010b3b0b 	tsteq	fp, fp, lsl #22
 314:	07000013 	smladeq	r0, r3, r0, r0
 318:	0e03000d 	cdpeq	0, 0, cr0, cr3, cr13, {0}
 31c:	0b3b0b3a 	bleq	ec300c <vector_table-0x713cff4>
 320:	0a381349 	beq	e0504c <vector_table-0x71fafb4>
 324:	0f080000 	svceq	0x00080000
 328:	490b0b00 	stmdbmi	fp, {r8, r9, fp}
 32c:	09000013 	stmdbeq	r0, {r0, r1, r4}
 330:	13490035 	movtne	r0, #36917	; 0x9035
 334:	150a0000 	strne	r0, [sl, #-0]
 338:	010c2701 	tsteq	ip, r1, lsl #14
 33c:	0b000013 	bleq	390 <vector_table-0x7fffc70>
 340:	13490005 	movtne	r0, #36869	; 0x9005
 344:	2e0c0000 	cdpcs	0, 0, cr0, cr12, cr0, {0}
 348:	3a0e0301 	bcc	380f54 <vector_table-0x7c7f0ac>
 34c:	27053b0b 	strcs	r3, [r5, -fp, lsl #22]
 350:	010b200c 	tsteq	fp, ip
 354:	0d000013 	stceq	0, cr0, [r0, #-76]	; 0xffffffb4
 358:	0e030034 	mcreq	0, 0, r0, cr3, cr4, {1}
 35c:	053b0b3a 	ldreq	r0, [fp, #-2874]!	; 0xb3a
 360:	00001349 	andeq	r1, r0, r9, asr #6
 364:	3f012e0e 	svccc	0x00012e0e
 368:	3a0e030c 	bcc	380fa0 <vector_table-0x7c7f060>
 36c:	270b3b0b 	strcs	r3, [fp, -fp, lsl #22]
 370:	1113490c 	tstne	r3, ip, lsl #18
 374:	40011201 	andmi	r1, r1, r1, lsl #4
 378:	00130106 	andseq	r0, r3, r6, lsl #2
 37c:	00050f00 	andeq	r0, r5, r0, lsl #30
 380:	0b3a0e03 	bleq	e83b94 <vector_table-0x717c46c>
 384:	13490b3b 	movtne	r0, #39739	; 0x9b3b
 388:	00000602 	andeq	r0, r0, r2, lsl #12
 38c:	03003410 	movweq	r3, #1040	; 0x410
 390:	3b0b3a0e 	blcc	2cebd0 <vector_table-0x7d31430>
 394:	0213490b 	andseq	r4, r3, #180224	; 0x2c000
 398:	11000006 	tstne	r0, r6
 39c:	1331011d 	teqne	r1, #1073741831	; 0x40000007
 3a0:	01120111 	tsteq	r2, r1, lsl r1
 3a4:	0b590b58 	bleq	164310c <vector_table-0x69bcef4>
 3a8:	0b120000 	bleq	4803b0 <vector_table-0x7b7fc50>
 3ac:	12011101 	andne	r1, r1, #1073741824	; 0x40000000
 3b0:	13000001 	movwne	r0, #1
 3b4:	13310034 	teqne	r1, #52	; 0x34
 3b8:	00000602 	andeq	r0, r0, r2, lsl #12
 3bc:	3f012e14 	svccc	0x00012e14
 3c0:	3a0e030c 	bcc	380ff8 <vector_table-0x7c7f008>
 3c4:	270b3b0b 	strcs	r3, [fp, -fp, lsl #22]
 3c8:	1201110c 	andne	r1, r1, #3
 3cc:	01064001 	tsteq	r6, r1
 3d0:	15000013 	strne	r0, [r0, #-19]
 3d4:	0e030034 	mcreq	0, 0, r0, cr3, cr4, {1}
 3d8:	0b3b0b3a 	bleq	ec30c8 <vector_table-0x713cf38>
 3dc:	0a021349 	beq	85108 <vector_table-0x7f7aef8>
 3e0:	2e160000 	cdpcs	0, 1, cr0, cr6, cr0, {0}
 3e4:	3a0e0301 	bcc	380ff0 <vector_table-0x7c7f010>
 3e8:	270b3b0b 	strcs	r3, [fp, -fp, lsl #22]
 3ec:	010b200c 	tsteq	fp, ip
 3f0:	17000013 	smladne	r0, r3, r0, r0
 3f4:	0000010b 	andeq	r0, r0, fp, lsl #2
 3f8:	03003418 	movweq	r3, #1048	; 0x418
 3fc:	3b0b3a0e 	blcc	2cec3c <vector_table-0x7d313c4>
 400:	0013490b 	andseq	r4, r3, fp, lsl #18
 404:	012e1900 	teqeq	lr, r0, lsl #18
 408:	0e030c3f 	mcreq	12, 0, r0, cr3, cr15, {1}
 40c:	053b0b3a 	ldreq	r0, [fp, #-2874]!	; 0xb3a
 410:	01110c27 	tsteq	r1, r7, lsr #24
 414:	06400112 			; <UNDEFINED> instruction: 0x06400112
 418:	00001301 	andeq	r1, r0, r1, lsl #6
 41c:	31011d1a 	tstcc	r1, sl, lsl sp
 420:	12011113 	andne	r1, r1, #-1073741820	; 0xc0000004
 424:	590b5801 	stmdbpl	fp, {r0, fp, ip, lr}
 428:	00130105 	andseq	r0, r3, r5, lsl #2
 42c:	010b1b00 	tsteq	fp, r0, lsl #22
 430:	00000655 	andeq	r0, r0, r5, asr r6
 434:	0300341c 	movweq	r3, #1052	; 0x41c
 438:	3b0b3a0e 	blcc	2cec78 <vector_table-0x7d31388>
 43c:	02134905 	andseq	r4, r3, #81920	; 0x14000
 440:	1d000006 	stcne	0, cr0, [r0, #-24]	; 0xffffffe8
 444:	13490026 	movtne	r0, #36902	; 0x9026
 448:	2e1e0000 	cdpcs	0, 1, cr0, cr14, cr0, {0}
 44c:	030c3f01 	movweq	r3, #52993	; 0xcf01
 450:	3b0b3a0e 	blcc	2cec90 <vector_table-0x7d31370>
 454:	490c2705 	stmdbmi	ip, {r0, r2, r8, r9, sl, sp}
 458:	12011113 	andne	r1, r1, #-1073741820	; 0xc0000004
 45c:	01064001 	tsteq	r6, r1
 460:	1f000013 	svcne	0x00000013
 464:	0e030005 	cdpeq	0, 0, cr0, cr3, cr5, {0}
 468:	053b0b3a 	ldreq	r0, [fp, #-2874]!	; 0xb3a
 46c:	06021349 	streq	r1, [r2], -r9, asr #6
 470:	34200000 	strtcc	r0, [r0], #-0
 474:	3a0e0300 	bcc	38107c <vector_table-0x7c7ef84>
 478:	49053b0b 	stmdbmi	r5, {r0, r1, r3, r8, r9, fp, ip, sp}
 47c:	000a0213 	andeq	r0, sl, r3, lsl r2
 480:	01012100 	mrseq	r2, (UNDEF: 17)
 484:	13011349 	movwne	r1, #4937	; 0x1349
 488:	21220000 	teqcs	r2, r0
 48c:	2f134900 	svccs	0x00134900
 490:	2300000b 	movwcs	r0, #11
 494:	0e030034 	mcreq	0, 0, r0, cr3, cr4, {1}
 498:	0b3b0b3a 	bleq	ec3188 <vector_table-0x713ce78>
 49c:	0c3f1349 	ldceq	3, cr1, [pc], #-292	; 380 <vector_table-0x7fffc80>
 4a0:	00000c3c 	andeq	r0, r0, ip, lsr ip
 4a4:	03003424 	movweq	r3, #1060	; 0x424
 4a8:	3b0b3a0e 	blcc	2cece8 <vector_table-0x7d31318>
 4ac:	3f13490b 	svccc	0x0013490b
 4b0:	000a020c 	andeq	r0, sl, ip, lsl #4
 4b4:	11010000 	mrsne	r0, (UNDEF: 1)
 4b8:	130e2501 	movwne	r2, #58625	; 0xe501
 4bc:	1b0e030b 	blne	3810f0 <vector_table-0x7c7ef10>
 4c0:	1201110e 	andne	r1, r1, #-2147483645	; 0x80000003
 4c4:	00061001 	andeq	r1, r6, r1
 4c8:	00160200 	andseq	r0, r6, r0, lsl #4
 4cc:	0b3a0e03 	bleq	e83ce0 <vector_table-0x717c320>
 4d0:	13490b3b 	movtne	r0, #39739	; 0x9b3b
 4d4:	24030000 	strcs	r0, [r3], #-0
 4d8:	3e0b0b00 	vmlacc.f64	d0, d11, d0
 4dc:	000e030b 	andeq	r0, lr, fp, lsl #6
 4e0:	00240400 	eoreq	r0, r4, r0, lsl #8
 4e4:	0b3e0b0b 	bleq	f83118 <vector_table-0x707cee8>
 4e8:	00000803 	andeq	r0, r0, r3, lsl #16
 4ec:	0b000f05 	bleq	4108 <vector_table-0x7ffbef8>
 4f0:	0600000b 	streq	r0, [r0], -fp
 4f4:	0e030113 	mcreq	1, 0, r0, cr3, cr3, {0}
 4f8:	0b3a0b0b 	bleq	e8312c <vector_table-0x717ced4>
 4fc:	13010b3b 	movwne	r0, #6971	; 0x1b3b
 500:	0d070000 	stceq	0, cr0, [r7, #-0]
 504:	3a0e0300 	bcc	38110c <vector_table-0x7c7eef4>
 508:	490b3b0b 	stmdbmi	fp, {r0, r1, r3, r8, r9, fp, ip, sp}
 50c:	000a3813 	andeq	r3, sl, r3, lsl r8
 510:	000f0800 	andeq	r0, pc, r0, lsl #16
 514:	13490b0b 	movtne	r0, #39691	; 0x9b0b
 518:	35090000 	strcc	r0, [r9, #-0]
 51c:	00134900 	andseq	r4, r3, r0, lsl #18
 520:	012e0a00 	teqeq	lr, r0, lsl #20
 524:	0b3a0e03 	bleq	e83d38 <vector_table-0x717c2c8>
 528:	0c27053b 	cfstr32eq	mvfx0, [r7], #-236	; 0xffffff14
 52c:	01120111 	tsteq	r2, r1, lsl r1
 530:	13010640 	movwne	r0, #5696	; 0x1640
 534:	050b0000 	streq	r0, [fp, #-0]
 538:	3a0e0300 	bcc	381140 <vector_table-0x7c7eec0>
 53c:	49053b0b 	stmdbmi	r5, {r0, r1, r3, r8, r9, fp, ip, sp}
 540:	00060213 	andeq	r0, r6, r3, lsl r2
 544:	00260c00 	eoreq	r0, r6, r0, lsl #24
 548:	00001349 	andeq	r1, r0, r9, asr #6
 54c:	0000260d 	andeq	r2, r0, sp, lsl #12
 550:	012e0e00 	teqeq	lr, r0, lsl #28
 554:	0e030c3f 	mcreq	12, 0, r0, cr3, cr15, {1}
 558:	053b0b3a 	ldreq	r0, [fp, #-2874]!	; 0xb3a
 55c:	13490c27 	movtne	r0, #39975	; 0x9c27
 560:	01120111 	tsteq	r2, r1, lsl r1
 564:	13010640 	movwne	r0, #5696	; 0x1640
 568:	340f0000 	strcc	r0, [pc], #-0	; 570 <vector_table-0x7fffa90>
 56c:	3a0e0300 	bcc	381174 <vector_table-0x7c7ee8c>
 570:	49053b0b 	stmdbmi	r5, {r0, r1, r3, r8, r9, fp, ip, sp}
 574:	00060213 	andeq	r0, r6, r3, lsl r2
 578:	012e1000 	teqeq	lr, r0
 57c:	0b3a0e03 	bleq	e83d90 <vector_table-0x717c270>
 580:	0c27053b 	cfstr32eq	mvfx0, [r7], #-236	; 0xffffff14
 584:	0b201349 	bleq	8052b0 <vector_table-0x77fad50>
 588:	00001301 	andeq	r1, r0, r1, lsl #6
 58c:	03000511 	movweq	r0, #1297	; 0x511
 590:	3b0b3a0e 	blcc	2cedd0 <vector_table-0x7d31230>
 594:	00134905 	andseq	r4, r3, r5, lsl #18
 598:	00341200 	eorseq	r1, r4, r0, lsl #4
 59c:	0b3a0e03 	bleq	e83db0 <vector_table-0x717c250>
 5a0:	1349053b 	movtne	r0, #38203	; 0x953b
 5a4:	34130000 	ldrcc	r0, [r3], #-0
 5a8:	3a0e0300 	bcc	3811b0 <vector_table-0x7c7ee50>
 5ac:	49053b0b 	stmdbmi	r5, {r0, r1, r3, r8, r9, fp, ip, sp}
 5b0:	000a0213 	andeq	r0, sl, r3, lsl r2
 5b4:	011d1400 	tsteq	sp, r0, lsl #8
 5b8:	01111331 	tsteq	r1, r1, lsr r3
 5bc:	0b580112 	bleq	1600a0c <vector_table-0x69ff5f4>
 5c0:	00000559 	andeq	r0, r0, r9, asr r5
 5c4:	31000515 	tstcc	r0, r5, lsl r5
 5c8:	00060213 	andeq	r0, r6, r3, lsl r2
 5cc:	010b1600 	tsteq	fp, r0, lsl #12
 5d0:	01120111 	tsteq	r2, r1, lsl r1
 5d4:	34170000 	ldrcc	r0, [r7], #-0
 5d8:	02133100 	andseq	r3, r3, #0
 5dc:	18000006 	stmdane	r0, {r1, r2}
 5e0:	0e030034 	mcreq	0, 0, r0, cr3, cr4, {1}
 5e4:	053b0b3a 	ldreq	r0, [fp, #-2874]!	; 0xb3a
 5e8:	0b1c1349 	bleq	705314 <vector_table-0x78facec>
 5ec:	2e190000 	cdpcs	0, 1, cr0, cr9, cr0, {0}
 5f0:	030c3f01 	movweq	r3, #52993	; 0xcf01
 5f4:	3b0b3a0e 	blcc	2cee34 <vector_table-0x7d311cc>
 5f8:	490c2705 	stmdbmi	ip, {r0, r2, r8, r9, sl, sp}
 5fc:	12011113 	andne	r1, r1, #-1073741820	; 0xc0000004
 600:	010a4001 	tsteq	sl, r1
 604:	1a000013 	bne	658 <vector_table-0x7fff9a8>
 608:	0c3f012e 	ldfeqs	f0, [pc], #-184	; 558 <vector_table-0x7fffaa8>
 60c:	0b3a0e03 	bleq	e83e20 <vector_table-0x717c1e0>
 610:	0c27053b 	cfstr32eq	mvfx0, [r7], #-236	; 0xffffff14
 614:	01120111 	tsteq	r2, r1, lsl r1
 618:	13010640 	movwne	r0, #5696	; 0x1640
 61c:	2e1b0000 	cdpcs	0, 1, cr0, cr11, cr0, {0}
 620:	030c3f01 	movweq	r3, #52993	; 0xcf01
 624:	3b0b3a0e 	blcc	2cee64 <vector_table-0x7d3119c>
 628:	490c2705 	stmdbmi	ip, {r0, r2, r8, r9, sl, sp}
 62c:	12011113 	andne	r1, r1, #-1073741820	; 0xc0000004
 630:	000a4001 	andeq	r4, sl, r1
 634:	11010000 	mrsne	r0, (UNDEF: 1)
 638:	130e2501 	movwne	r2, #58625	; 0xe501
 63c:	1b0e030b 	blne	381270 <vector_table-0x7c7ed90>
 640:	1201110e 	andne	r1, r1, #-2147483645	; 0x80000003
 644:	00061001 	andeq	r1, r6, r1
 648:	00160200 	andseq	r0, r6, r0, lsl #4
 64c:	0b3a0e03 	bleq	e83e60 <vector_table-0x717c1a0>
 650:	13490b3b 	movtne	r0, #39739	; 0x9b3b
 654:	24030000 	strcs	r0, [r3], #-0
 658:	3e0b0b00 	vmlacc.f64	d0, d11, d0
 65c:	000e030b 	andeq	r0, lr, fp, lsl #6
 660:	000f0400 	andeq	r0, pc, r0, lsl #8
 664:	00000b0b 	andeq	r0, r0, fp, lsl #22
 668:	0b002405 	bleq	9684 <vector_table-0x7ff697c>
 66c:	030b3e0b 	movweq	r3, #48651	; 0xbe0b
 670:	06000008 	streq	r0, [r0], -r8
 674:	0b0b000f 	bleq	2c06b8 <vector_table-0x7d3f948>
 678:	00001349 	andeq	r1, r0, r9, asr #6
 67c:	27011507 	strcs	r1, [r1, -r7, lsl #10]
 680:	0013010c 	andseq	r0, r3, ip, lsl #2
 684:	00050800 	andeq	r0, r5, r0, lsl #16
 688:	00001349 	andeq	r1, r0, r9, asr #6
 68c:	03011309 	movweq	r1, #4873	; 0x1309
 690:	3a0b0b0e 	bcc	2c32d0 <vector_table-0x7d3cd30>
 694:	010b3b0b 	tsteq	fp, fp, lsl #22
 698:	0a000013 	beq	6ec <vector_table-0x7fff914>
 69c:	0e03000d 	cdpeq	0, 0, cr0, cr3, cr13, {0}
 6a0:	0b3b0b3a 	bleq	ec3390 <vector_table-0x713cc70>
 6a4:	0a381349 	beq	e053d0 <vector_table-0x71fac30>
 6a8:	350b0000 	strcc	r0, [fp, #-0]
 6ac:	00134900 	andseq	r4, r3, r0, lsl #18
 6b0:	00260c00 	eoreq	r0, r6, r0, lsl #24
 6b4:	00001349 	andeq	r1, r0, r9, asr #6
 6b8:	4901010d 	stmdbmi	r1, {r0, r2, r3, r8}
 6bc:	00130113 	andseq	r0, r3, r3, lsl r1
 6c0:	00210e00 	eoreq	r0, r1, r0, lsl #28
 6c4:	0b2f1349 	bleq	bc53f0 <vector_table-0x743ac10>
 6c8:	2e0f0000 	cdpcs	0, 0, cr0, cr15, cr0, {0}
 6cc:	3a0e0300 	bcc	3812d4 <vector_table-0x7c7ed2c>
 6d0:	27053b0b 	strcs	r3, [r5, -fp, lsl #22]
 6d4:	000b200c 	andeq	r2, fp, ip
 6d8:	012e1000 	teqeq	lr, r0
 6dc:	0b3a0e03 	bleq	e83ef0 <vector_table-0x717c110>
 6e0:	0c27053b 	cfstr32eq	mvfx0, [r7], #-236	; 0xffffff14
 6e4:	13010b20 	movwne	r0, #6944	; 0x1b20
 6e8:	05110000 	ldreq	r0, [r1, #-0]
 6ec:	3a0e0300 	bcc	3812f4 <vector_table-0x7c7ed0c>
 6f0:	49053b0b 	stmdbmi	r5, {r0, r1, r3, r8, r9, fp, ip, sp}
 6f4:	12000013 	andne	r0, r0, #19
 6f8:	0e03012e 	adfeqsp	f0, f3, #0.5
 6fc:	053b0b3a 	ldreq	r0, [fp, #-2874]!	; 0xb3a
 700:	01110c27 	tsteq	r1, r7, lsr #24
 704:	06400112 			; <UNDEFINED> instruction: 0x06400112
 708:	00001301 	andeq	r1, r0, r1, lsl #6
 70c:	03000513 	movweq	r0, #1299	; 0x513
 710:	3b0b3a0e 	blcc	2cef50 <vector_table-0x7d310b0>
 714:	02134905 	andseq	r4, r3, #81920	; 0x14000
 718:	14000006 	strne	r0, [r0], #-6
 71c:	0e03012e 	adfeqsp	f0, f3, #0.5
 720:	053b0b3a 	ldreq	r0, [fp, #-2874]!	; 0xb3a
 724:	13490c27 	movtne	r0, #39975	; 0x9c27
 728:	13010b20 	movwne	r0, #6944	; 0x1b20
 72c:	34150000 	ldrcc	r0, [r5], #-0
 730:	3a0e0300 	bcc	381338 <vector_table-0x7c7ecc8>
 734:	49053b0b 	stmdbmi	r5, {r0, r1, r3, r8, r9, fp, ip, sp}
 738:	16000013 			; <UNDEFINED> instruction: 0x16000013
 73c:	0c3f012e 	ldfeqs	f0, [pc], #-184	; 68c <vector_table-0x7fff974>
 740:	0b3a0e03 	bleq	e83f54 <vector_table-0x717c0ac>
 744:	0c27053b 	cfstr32eq	mvfx0, [r7], #-236	; 0xffffff14
 748:	01111349 	tsteq	r1, r9, asr #6
 74c:	06400112 			; <UNDEFINED> instruction: 0x06400112
 750:	00001301 	andeq	r1, r0, r1, lsl #6
 754:	03000517 	movweq	r0, #1303	; 0x517
 758:	3b0b3a0e 	blcc	2cef98 <vector_table-0x7d31068>
 75c:	02134905 	andseq	r4, r3, #81920	; 0x14000
 760:	1800000a 	stmdane	r0, {r1, r3}
 764:	0e030034 	mcreq	0, 0, r0, cr3, cr4, {1}
 768:	053b0b3a 	ldreq	r0, [fp, #-2874]!	; 0xb3a
 76c:	06021349 	streq	r1, [r2], -r9, asr #6
 770:	34190000 	ldrcc	r0, [r9], #-0
 774:	3a0e0300 	bcc	38137c <vector_table-0x7c7ec84>
 778:	49053b0b 	stmdbmi	r5, {r0, r1, r3, r8, r9, fp, ip, sp}
 77c:	000a0213 	andeq	r0, sl, r3, lsl r2
 780:	011d1a00 	tsteq	sp, r0, lsl #20
 784:	01521331 	cmpeq	r2, r1, lsr r3
 788:	0b580655 	bleq	16020e4 <vector_table-0x69fdf1c>
 78c:	13010559 	movwne	r0, #5465	; 0x1559
 790:	051b0000 	ldreq	r0, [fp, #-0]
 794:	02133100 	andseq	r3, r3, #0
 798:	1c00000a 	stcne	0, cr0, [r0], {10}
 79c:	13310005 	teqne	r1, #5
 7a0:	00000602 	andeq	r0, r0, r2, lsl #12
 7a4:	55010b1d 	strpl	r0, [r1, #-2845]	; 0xb1d
 7a8:	1e000006 	cdpne	0, 0, cr0, cr0, cr6, {0}
 7ac:	13310034 	teqne	r1, #52	; 0x34
 7b0:	00000602 	andeq	r0, r0, r2, lsl #12
 7b4:	11010b1f 	tstne	r1, pc, lsl fp
 7b8:	00011201 	andeq	r1, r1, r1, lsl #4
 7bc:	00052000 	andeq	r2, r5, r0
 7c0:	00001331 	andeq	r1, r0, r1, lsr r3
 7c4:	31011d21 	tstcc	r1, r1, lsr #26
 7c8:	12011113 	andne	r1, r1, #-1073741820	; 0xc0000004
 7cc:	590b5801 	stmdbpl	fp, {r0, fp, ip, lr}
 7d0:	22000005 	andcs	r0, r0, #5
 7d4:	0c3f012e 	ldfeqs	f0, [pc], #-184	; 724 <vector_table-0x7fff8dc>
 7d8:	0b3a0e03 	bleq	e83fec <vector_table-0x717c014>
 7dc:	0c27053b 	cfstr32eq	mvfx0, [r7], #-236	; 0xffffff14
 7e0:	01120111 	tsteq	r2, r1, lsl r1
 7e4:	13010640 	movwne	r0, #5696	; 0x1640
 7e8:	2e230000 	cdpcs	0, 2, cr0, cr3, cr0, {0}
 7ec:	030c3f00 	movweq	r3, #52992	; 0xcf00
 7f0:	3b0b3a0e 	blcc	2cf030 <vector_table-0x7d30fd0>
 7f4:	110c2705 	tstne	ip, r5, lsl #14
 7f8:	40011201 	andmi	r1, r1, r1, lsl #4
 7fc:	2400000a 	strcs	r0, [r0], #-10
 800:	0c3f012e 	ldfeqs	f0, [pc], #-184	; 750 <vector_table-0x7fff8b0>
 804:	0b3a0e03 	bleq	e84018 <vector_table-0x717bfe8>
 808:	0c27053b 	cfstr32eq	mvfx0, [r7], #-236	; 0xffffff14
 80c:	01111349 	tsteq	r1, r9, asr #6
 810:	0a400112 	beq	1000c60 <vector_table-0x6fff3a0>
 814:	00001301 	andeq	r1, r0, r1, lsl #6
 818:	03003425 	movweq	r3, #1061	; 0x425
 81c:	3b0b3a0e 	blcc	2cf05c <vector_table-0x7d30fa4>
 820:	1c134905 	ldcne	9, cr4, [r3], {5}
 824:	2600000b 	strcs	r0, [r0], -fp
 828:	0c3f002e 	ldceq	0, cr0, [pc], #-184	; 778 <vector_table-0x7fff888>
 82c:	0b3a0e03 	bleq	e84040 <vector_table-0x717bfc0>
 830:	0c27053b 	cfstr32eq	mvfx0, [r7], #-236	; 0xffffff14
 834:	01111349 	tsteq	r1, r9, asr #6
 838:	0a400112 	beq	1000c88 <vector_table-0x6fff378>
 83c:	0b270000 	bleq	9c0844 <vector_table-0x763f7bc>
 840:	12011101 	andne	r1, r1, #1073741824	; 0x40000000
 844:	00130101 	andseq	r0, r3, r1, lsl #2
 848:	012e2800 	teqeq	lr, r0, lsl #16
 84c:	0e030c3f 	mcreq	12, 0, r0, cr3, cr15, {1}
 850:	053b0b3a 	ldreq	r0, [fp, #-2874]!	; 0xb3a
 854:	01110c27 	tsteq	r1, r7, lsr #24
 858:	0a400112 	beq	1000ca8 <vector_table-0x6fff358>
 85c:	00001301 	andeq	r1, r0, r1, lsl #6
 860:	03003429 	movweq	r3, #1065	; 0x429
 864:	3b0b3a0e 	blcc	2cf0a4 <vector_table-0x7d30f5c>
 868:	3f13490b 	svccc	0x0013490b
 86c:	000c3c0c 	andeq	r3, ip, ip, lsl #24
 870:	00342a00 	eorseq	r2, r4, r0, lsl #20
 874:	0b3a0e03 	bleq	e84088 <vector_table-0x717bf78>
 878:	13490b3b 	movtne	r0, #39739	; 0x9b3b
 87c:	00000a02 	andeq	r0, r0, r2, lsl #20
 880:	0300342b 	movweq	r3, #1067	; 0x42b
 884:	3b0b3a0e 	blcc	2cf0c4 <vector_table-0x7d30f3c>
 888:	3f13490b 	svccc	0x0013490b
 88c:	000a020c 	andeq	r0, sl, ip, lsl #4
 890:	11010000 	mrsne	r0, (UNDEF: 1)
 894:	130e2501 	movwne	r2, #58625	; 0xe501
 898:	1b0e030b 	blne	3814cc <vector_table-0x7c7eb34>
 89c:	1201110e 	andne	r1, r1, #-2147483645	; 0x80000003
 8a0:	00061001 	andeq	r1, r6, r1
 8a4:	00240200 	eoreq	r0, r4, r0, lsl #4
 8a8:	0b3e0b0b 	bleq	f834dc <vector_table-0x707cb24>
 8ac:	00000803 	andeq	r0, r0, r3, lsl #16
 8b0:	0b002403 	bleq	98c4 <vector_table-0x7ff673c>
 8b4:	030b3e0b 	movweq	r3, #48651	; 0xbe0b
 8b8:	0000000e 	andeq	r0, r0, lr
 8bc:	25011101 	strcs	r1, [r1, #-257]	; 0x101
 8c0:	030b130e 	movweq	r1, #45838	; 0xb30e
 8c4:	110e1b0e 	tstne	lr, lr, lsl #22
 8c8:	10011201 	andne	r1, r1, r1, lsl #4
 8cc:	02000006 	andeq	r0, r0, #6
 8d0:	0b0b0024 	bleq	2c0968 <vector_table-0x7d3f698>
 8d4:	08030b3e 	stmdaeq	r3, {r1, r2, r3, r4, r5, r8, r9, fp}
 8d8:	24030000 	strcs	r0, [r3], #-0
 8dc:	3e0b0b00 	vmlacc.f64	d0, d11, d0
 8e0:	000e030b 	andeq	r0, lr, fp, lsl #6
 8e4:	00160400 	andseq	r0, r6, r0, lsl #8
 8e8:	0b3a0e03 	bleq	e840fc <vector_table-0x717bf04>
 8ec:	13490b3b 	movtne	r0, #39739	; 0x9b3b
 8f0:	0f050000 	svceq	0x00050000
 8f4:	490b0b00 	stmdbmi	fp, {r8, r9, fp}
 8f8:	06000013 			; <UNDEFINED> instruction: 0x06000013
 8fc:	0c270115 	stfeqs	f0, [r7], #-84	; 0xffffffac
 900:	00001301 	andeq	r1, r0, r1, lsl #6
 904:	49000507 	stmdbmi	r0, {r0, r1, r2, r8, sl}
 908:	08000013 	stmdaeq	r0, {r0, r1, r4}
 90c:	0b0b000f 	bleq	2c0950 <vector_table-0x7d3f6b0>
 910:	2e090000 	cdpcs	0, 0, cr0, cr9, cr0, {0}
 914:	3a0e0300 	bcc	38151c <vector_table-0x7c7eae4>
 918:	270b3b0b 	strcs	r3, [fp, -fp, lsl #22]
 91c:	1201110c 	andne	r1, r1, #3
 920:	000a4001 	andeq	r4, sl, r1
 924:	012e0a00 	teqeq	lr, r0, lsl #20
 928:	0e030c3f 	mcreq	12, 0, r0, cr3, cr15, {1}
 92c:	0b3b0b3a 	bleq	ec361c <vector_table-0x713c9e4>
 930:	13490c27 	movtne	r0, #39975	; 0x9c27
 934:	01120111 	tsteq	r2, r1, lsl r1
 938:	13010640 	movwne	r0, #5696	; 0x1640
 93c:	050b0000 	streq	r0, [fp, #-0]
 940:	3a0e0300 	bcc	381548 <vector_table-0x7c7eab8>
 944:	490b3b0b 	stmdbmi	fp, {r0, r1, r3, r8, r9, fp, ip, sp}
 948:	00060213 	andeq	r0, r6, r3, lsl r2
 94c:	00050c00 	andeq	r0, r5, r0, lsl #24
 950:	0b3a0e03 	bleq	e84164 <vector_table-0x717be9c>
 954:	13490b3b 	movtne	r0, #39739	; 0x9b3b
 958:	00000a02 	andeq	r0, r0, r2, lsl #20
 95c:	3f002e0d 	svccc	0x00002e0d
 960:	3a0e030c 	bcc	381598 <vector_table-0x7c7ea68>
 964:	270b3b0b 	strcs	r3, [fp, -fp, lsl #22]
 968:	1201110c 	andne	r1, r1, #3
 96c:	000a4001 	andeq	r4, sl, r1
 970:	002e0e00 	eoreq	r0, lr, r0, lsl #28
 974:	0b3a0e03 	bleq	e84188 <vector_table-0x717be78>
 978:	0c27053b 	cfstr32eq	mvfx0, [r7], #-236	; 0xffffff14
 97c:	00000b20 	andeq	r0, r0, r0, lsr #22
 980:	31001d0f 	tstcc	r0, pc, lsl #26
 984:	12011113 	andne	r1, r1, #-1073741820	; 0xc0000004
 988:	590b5801 	stmdbpl	fp, {r0, fp, ip, lr}
 98c:	1000000b 	andne	r0, r0, fp
 990:	0c3f012e 	ldfeqs	f0, [pc], #-184	; 8e0 <vector_table-0x7fff720>
 994:	0b3a0e03 	bleq	e841a8 <vector_table-0x717be58>
 998:	0c27053b 	cfstr32eq	mvfx0, [r7], #-236	; 0xffffff14
 99c:	01120111 	tsteq	r2, r1, lsl r1
 9a0:	13010640 	movwne	r0, #5696	; 0x1640
 9a4:	34110000 	ldrcc	r0, [r1], #-0
 9a8:	3a0e0300 	bcc	3815b0 <vector_table-0x7c7ea50>
 9ac:	49053b0b 	stmdbmi	r5, {r0, r1, r3, r8, r9, fp, ip, sp}
 9b0:	000b1c13 	andeq	r1, fp, r3, lsl ip
 9b4:	00341200 	eorseq	r1, r4, r0, lsl #4
 9b8:	0b3a0e03 	bleq	e841cc <vector_table-0x717be34>
 9bc:	13490b3b 	movtne	r0, #39739	; 0x9b3b
 9c0:	00000a02 	andeq	r0, r0, r2, lsl #20
 9c4:	03003413 	movweq	r3, #1043	; 0x413
 9c8:	3b0b3a0e 	blcc	2cf208 <vector_table-0x7d30df8>
 9cc:	3f13490b 	svccc	0x0013490b
 9d0:	000a020c 	andeq	r0, sl, ip, lsl #4
 9d4:	00261400 	eoreq	r1, r6, r0, lsl #8
 9d8:	00001349 	andeq	r1, r0, r9, asr #6
 9dc:	01110100 	tsteq	r1, r0, lsl #2
 9e0:	0b130e25 	bleq	4c427c <vector_table-0x7b3bd84>
 9e4:	0e1b0e03 	cdpeq	14, 1, cr0, cr11, cr3, {0}
 9e8:	01120111 	tsteq	r2, r1, lsl r1
 9ec:	00000610 	andeq	r0, r0, r0, lsl r6
 9f0:	03001602 	movweq	r1, #1538	; 0x602
 9f4:	3b0b3a0e 	blcc	2cf234 <vector_table-0x7d30dcc>
 9f8:	0013490b 	andseq	r4, r3, fp, lsl #18
 9fc:	00240300 	eoreq	r0, r4, r0, lsl #6
 a00:	0b3e0b0b 	bleq	f83634 <vector_table-0x707c9cc>
 a04:	00000e03 	andeq	r0, r0, r3, lsl #28
 a08:	0b002404 	bleq	9a20 <vector_table-0x7ff65e0>
 a0c:	030b3e0b 	movweq	r3, #48651	; 0xbe0b
 a10:	05000008 	streq	r0, [r0, #-8]
 a14:	0b0b000f 	bleq	2c0a58 <vector_table-0x7d3f5a8>
 a18:	17060000 	strne	r0, [r6, -r0]
 a1c:	0b0e0301 	bleq	381628 <vector_table-0x7c7e9d8>
 a20:	3b0b3a05 	blcc	2cf23c <vector_table-0x7d30dc4>
 a24:	0013010b 	andseq	r0, r3, fp, lsl #2
 a28:	000d0700 	andeq	r0, sp, r0, lsl #14
 a2c:	0b3a0e03 	bleq	e84240 <vector_table-0x717bdc0>
 a30:	13490b3b 	movtne	r0, #39739	; 0x9b3b
 a34:	35080000 	strcc	r0, [r8, #-0]
 a38:	00134900 	andseq	r4, r3, r0, lsl #18
 a3c:	01010900 	tsteq	r1, r0, lsl #18
 a40:	13011349 	movwne	r1, #4937	; 0x1349
 a44:	210a0000 	mrscs	r0, (UNDEF: 10)
 a48:	2f134900 	svccs	0x00134900
 a4c:	0b000005 	bleq	a68 <vector_table-0x7fff598>
 a50:	0c3f012e 	ldfeqs	f0, [pc], #-184	; 9a0 <vector_table-0x7fff660>
 a54:	0b3a0e03 	bleq	e84268 <vector_table-0x717bd98>
 a58:	0c270b3b 	stceq	11, cr0, [r7], #-236	; 0xffffff14
 a5c:	01111349 	tsteq	r1, r9, asr #6
 a60:	06400112 			; <UNDEFINED> instruction: 0x06400112
 a64:	00001301 	andeq	r1, r0, r1, lsl #6
 a68:	0300050c 	movweq	r0, #1292	; 0x50c
 a6c:	3b0b3a0e 	blcc	2cf2ac <vector_table-0x7d30d54>
 a70:	0213490b 	andseq	r4, r3, #180224	; 0x2c000
 a74:	0d000006 	stceq	0, cr0, [r0, #-24]	; 0xffffffe8
 a78:	0e030034 	mcreq	0, 0, r0, cr3, cr4, {1}
 a7c:	0b3b0b3a 	bleq	ec376c <vector_table-0x713c894>
 a80:	06021349 	streq	r1, [r2], -r9, asr #6
 a84:	2e0e0000 	cdpcs	0, 0, cr0, cr14, cr0, {0}
 a88:	030c3f01 	movweq	r3, #52993	; 0xcf01
 a8c:	3b0b3a0e 	blcc	2cf2cc <vector_table-0x7d30d34>
 a90:	110c270b 	tstne	ip, fp, lsl #14
 a94:	40011201 	andmi	r1, r1, r1, lsl #4
 a98:	0013010a 	andseq	r0, r3, sl, lsl #2
 a9c:	00050f00 	andeq	r0, r5, r0, lsl #30
 aa0:	0b3a0803 	bleq	e82ab4 <vector_table-0x717d54c>
 aa4:	13490b3b 	movtne	r0, #39739	; 0x9b3b
 aa8:	00000a02 	andeq	r0, r0, r2, lsl #20
 aac:	3f002e10 	svccc	0x00002e10
 ab0:	3a0e030c 	bcc	3816e8 <vector_table-0x7c7e918>
 ab4:	270b3b0b 	strcs	r3, [fp, -fp, lsl #22]
 ab8:	1201110c 	andne	r1, r1, #3
 abc:	000a4001 	andeq	r4, sl, r1
 ac0:	002e1100 	eoreq	r1, lr, r0, lsl #2
 ac4:	0e030c3f 	mcreq	12, 0, r0, cr3, cr15, {1}
 ac8:	0b3b0b3a 	bleq	ec37b8 <vector_table-0x713c848>
 acc:	13490c27 	movtne	r0, #39975	; 0x9c27
 ad0:	01120111 	tsteq	r2, r1, lsl r1
 ad4:	00000a40 	andeq	r0, r0, r0, asr #20
 ad8:	03003412 	movweq	r3, #1042	; 0x412
 adc:	3b0b3a0e 	blcc	2cf31c <vector_table-0x7d30ce4>
 ae0:	0213490b 	andseq	r4, r3, #180224	; 0x2c000
 ae4:	0000000a 	andeq	r0, r0, sl

Disassembly of section .debug_info:

00000000 <.debug_info>:
       0:	00000976 	andeq	r0, r0, r6, ror r9
       4:	00000002 	andeq	r0, r0, r2
       8:	01040000 	mrseq	r0, (UNDEF: 4)
       c:	0000044a 	andeq	r0, r0, sl, asr #8
      10:	00043901 	andeq	r3, r4, r1, lsl #18
      14:	00010200 	andeq	r0, r1, r0, lsl #4
      18:	00004000 	andeq	r4, r0, r0
      1c:	00007408 	andeq	r7, r0, r8, lsl #8
      20:	00000008 	andeq	r0, r0, r8
      24:	07040200 	streq	r0, [r4, -r0, lsl #4]
      28:	00000065 	andeq	r0, r0, r5, rrx
      2c:	f0060102 			; <UNDEFINED> instruction: 0xf0060102
      30:	02000002 	andeq	r0, r0, #2
      34:	02ee0801 	rsceq	r0, lr, #65536	; 0x10000
      38:	02020000 	andeq	r0, r2, #0
      3c:	00030205 	andeq	r0, r3, r5, lsl #4
      40:	07020200 	streq	r0, [r2, -r0, lsl #4]
      44:	0000022d 	andeq	r0, r0, sp, lsr #4
      48:	69050403 	stmdbvs	r5, {r0, r1, sl}
      4c:	0200746e 	andeq	r7, r0, #1845493760	; 0x6e000000
      50:	00a10508 	adceq	r0, r1, r8, lsl #10
      54:	08020000 	stmdaeq	r2, {}	; <UNPREDICTABLE>
      58:	00005b07 	andeq	r5, r0, r7, lsl #22
      5c:	02dc0400 	sbcseq	r0, ip, #0
      60:	07020000 	streq	r0, [r2, -r0]
      64:	00000048 	andeq	r0, r0, r8, asr #32
      68:	a6050402 	strge	r0, [r5], -r2, lsl #8
      6c:	04000000 	streq	r0, [r0], #-0
      70:	000003a7 	andeq	r0, r0, r7, lsr #7
      74:	00682c03 	rsbeq	r2, r8, r3, lsl #24
      78:	67050000 	strvs	r0, [r5, -r0]
      7c:	04000002 	streq	r0, [r0], #-2
      80:	00250160 	eoreq	r0, r5, r0, ror #2
      84:	04060000 	streq	r0, [r6], #-0
      88:	00a54603 	adceq	r4, r5, r3, lsl #12
      8c:	61070000 	mrsvs	r0, (UNDEF: 7)
      90:	03000002 	movweq	r0, #2
      94:	00007a48 	andeq	r7, r0, r8, asr #20
      98:	01ba0700 			; <UNDEFINED> instruction: 0x01ba0700
      9c:	49030000 	stmdbmi	r3, {}	; <UNPREDICTABLE>
      a0:	000000a5 	andeq	r0, r0, r5, lsr #1
      a4:	00330800 	eorseq	r0, r3, r0, lsl #16
      a8:	00b50000 	adcseq	r0, r5, r0
      ac:	25090000 	strcs	r0, [r9, #-0]
      b0:	03000000 	movweq	r0, #0
      b4:	03080a00 	movweq	r0, #35328	; 0x8a00
      b8:	0000da43 	andeq	sp, r0, r3, asr #20
      bc:	038a0b00 	orreq	r0, sl, #0
      c0:	45030000 	strmi	r0, [r3, #-0]
      c4:	00000048 	andeq	r0, r0, r8, asr #32
      c8:	0b002302 	bleq	8cd8 <vector_table-0x7ff7328>
      cc:	00000392 	muleq	r0, r2, r3
      d0:	00864a03 	addeq	r4, r6, r3, lsl #20
      d4:	23020000 	movwcs	r0, #8192	; 0x2000
      d8:	24040004 	strcs	r0, [r4], #-4
      dc:	03000003 	movweq	r0, #3
      e0:	0000b54b 	andeq	fp, r0, fp, asr #10
      e4:	017a0400 	cmneq	sl, r0, lsl #8
      e8:	4f030000 	svcmi	0x00030000
      ec:	0000005d 	andeq	r0, r0, sp, asr r0
      f0:	ec04040c 	cfstrs	mvf0, [r4], {12}
      f4:	05000003 	streq	r0, [r0, #-3]
      f8:	0000fd15 	andeq	pc, r0, r5, lsl sp	; <UNPREDICTABLE>
      fc:	07040200 	streq	r0, [r4, -r0, lsl #4]
     100:	00000060 	andeq	r0, r0, r0, rrx
     104:	00018b0d 	andeq	r8, r1, sp, lsl #22
     108:	2c051800 	stccs	8, cr1, [r5], {-0}
     10c:	00000163 	andeq	r0, r0, r3, ror #2
     110:	0003450b 	andeq	r4, r3, fp, lsl #10
     114:	632e0500 	teqvs	lr, #0
     118:	02000001 	andeq	r0, r0, #1
     11c:	5f0e0023 	svcpl	0x000e0023
     120:	2f05006b 	svccs	0x0005006b
     124:	00000048 	andeq	r0, r0, r8, asr #32
     128:	0b042302 	bleq	108d38 <vector_table-0x7ef72c8>
     12c:	0000037c 	andeq	r0, r0, ip, ror r3
     130:	00482f05 	subeq	r2, r8, r5, lsl #30
     134:	23020000 	movwcs	r0, #8192	; 0x2000
     138:	01740b08 	cmneq	r4, r8, lsl #22
     13c:	2f050000 	svccs	0x00050000
     140:	00000048 	andeq	r0, r0, r8, asr #32
     144:	0b0c2302 	bleq	308d54 <vector_table-0x7cf72ac>
     148:	0000040f 	andeq	r0, r0, pc, lsl #8
     14c:	00482f05 	subeq	r2, r8, r5, lsl #30
     150:	23020000 	movwcs	r0, #8192	; 0x2000
     154:	785f0e10 	ldmdavc	pc, {r4, r9, sl, fp}^	; <UNPREDICTABLE>
     158:	69300500 	ldmdbvs	r0!, {r8, sl}
     15c:	02000001 	andeq	r0, r0, #1
     160:	0f001423 	svceq	0x00001423
     164:	00010404 	andeq	r0, r1, r4, lsl #8
     168:	00f20800 	rscseq	r0, r2, r0, lsl #16
     16c:	01790000 	cmneq	r9, r0
     170:	25090000 	strcs	r0, [r9, #-0]
     174:	00000000 	andeq	r0, r0, r0
     178:	01a30d00 			; <UNDEFINED> instruction: 0x01a30d00
     17c:	05240000 	streq	r0, [r4, #-0]!
     180:	00020434 	andeq	r0, r2, r4, lsr r4
     184:	00980b00 	addseq	r0, r8, r0, lsl #22
     188:	36050000 	strcc	r0, [r5], -r0
     18c:	00000048 	andeq	r0, r0, r8, asr #32
     190:	0b002302 	bleq	8da0 <vector_table-0x7ff7260>
     194:	000003b6 			; <UNDEFINED> instruction: 0x000003b6
     198:	00483705 	subeq	r3, r8, r5, lsl #14
     19c:	23020000 	movwcs	r0, #8192	; 0x2000
     1a0:	00c70b04 	sbceq	r0, r7, r4, lsl #22
     1a4:	38050000 	stmdacc	r5, {}	; <UNPREDICTABLE>
     1a8:	00000048 	andeq	r0, r0, r8, asr #32
     1ac:	0b082302 	bleq	208dbc <vector_table-0x7df7244>
     1b0:	00000492 	muleq	r0, r2, r4
     1b4:	00483905 	subeq	r3, r8, r5, lsl #18
     1b8:	23020000 	movwcs	r0, #8192	; 0x2000
     1bc:	02a70b0c 	adceq	r0, r7, #12288	; 0x3000
     1c0:	3a050000 	bcc	1401c8 <vector_table-0x7ebfe38>
     1c4:	00000048 	andeq	r0, r0, r8, asr #32
     1c8:	0b102302 	bleq	408dd8 <vector_table-0x7bf7228>
     1cc:	00000289 	andeq	r0, r0, r9, lsl #5
     1d0:	00483b05 	subeq	r3, r8, r5, lsl #22
     1d4:	23020000 	movwcs	r0, #8192	; 0x2000
     1d8:	04140b14 	ldreq	r0, [r4], #-2836	; 0xb14
     1dc:	3c050000 	stccc	0, cr0, [r5], {-0}
     1e0:	00000048 	andeq	r0, r0, r8, asr #32
     1e4:	0b182302 	bleq	608df4 <vector_table-0x79f720c>
     1e8:	0000030c 	andeq	r0, r0, ip, lsl #6
     1ec:	00483d05 	subeq	r3, r8, r5, lsl #26
     1f0:	23020000 	movwcs	r0, #8192	; 0x2000
     1f4:	04560b1c 	ldrbeq	r0, [r6], #-2844	; 0xb1c
     1f8:	3e050000 	cdpcc	0, 0, cr0, cr5, cr0, {0}
     1fc:	00000048 	andeq	r0, r0, r8, asr #32
     200:	00202302 	eoreq	r2, r0, r2, lsl #6
     204:	0000d610 	andeq	sp, r0, r0, lsl r6
     208:	05010800 	streq	r0, [r1, #-2048]	; 0x800
     20c:	00024d47 	andeq	r4, r2, r7, asr #26
     210:	01620b00 	cmneq	r2, r0, lsl #22
     214:	48050000 	stmdami	r5, {}	; <UNPREDICTABLE>
     218:	0000024d 	andeq	r0, r0, sp, asr #4
     21c:	0b002302 	bleq	8e2c <vector_table-0x7ff71d4>
     220:	00000000 	andeq	r0, r0, r0
     224:	024d4905 	subeq	r4, sp, #81920	; 0x14000
     228:	23030000 	movwcs	r0, #12288	; 0x3000
     22c:	d20b0180 	andle	r0, fp, #32
     230:	05000003 	streq	r0, [r0, #-3]
     234:	0000f24b 	andeq	pc, r0, fp, asr #4
     238:	80230300 	eorhi	r0, r3, r0, lsl #6
     23c:	000c0b02 	andeq	r0, ip, r2, lsl #22
     240:	4e050000 	cdpmi	0, 0, cr0, cr5, cr0, {0}
     244:	000000f2 	strdeq	r0, [r0], -r2
     248:	02842303 	addeq	r2, r4, #201326592	; 0xc000000
     24c:	00f00800 	rscseq	r0, r0, r0, lsl #16
     250:	025d0000 	subseq	r0, sp, #0
     254:	25090000 	strcs	r0, [r9, #-0]
     258:	1f000000 	svcne	0x00000000
     25c:	02b00d00 	adcseq	r0, r0, #0
     260:	058c0000 	streq	r0, [ip]
     264:	0002a352 	andeq	sl, r2, r2, asr r3
     268:	03450b00 	movteq	r0, #23296	; 0x5b00
     26c:	53050000 	movwpl	r0, #20480	; 0x5000
     270:	000002a3 	andeq	r0, r0, r3, lsr #5
     274:	0b002302 	bleq	8e84 <vector_table-0x7ff717c>
     278:	0000035d 	andeq	r0, r0, sp, asr r3
     27c:	00485405 	subeq	r5, r8, r5, lsl #8
     280:	23020000 	movwcs	r0, #8192	; 0x2000
     284:	016a0b04 	cmneq	sl, r4, lsl #22
     288:	55050000 	strpl	r0, [r5, #-0]
     28c:	000002a9 	andeq	r0, r0, r9, lsr #5
     290:	0b082302 	bleq	208ea0 <vector_table-0x7df7160>
     294:	000001a8 	andeq	r0, r0, r8, lsr #3
     298:	02c15605 	sbceq	r5, r1, #5242880	; 0x500000
     29c:	23030000 	movwcs	r0, #12288	; 0x3000
     2a0:	0f000188 	svceq	0x00000188
     2a4:	00025d04 	andeq	r5, r2, r4, lsl #26
     2a8:	02bb0800 	adcseq	r0, fp, #0
     2ac:	02b90000 	adcseq	r0, r9, #0
     2b0:	25090000 	strcs	r0, [r9, #-0]
     2b4:	1f000000 	svcne	0x00000000
     2b8:	0f011100 	svceq	0x00011100
     2bc:	0002b904 	andeq	fp, r2, r4, lsl #18
     2c0:	04040f00 	streq	r0, [r4], #-3840	; 0xf00
     2c4:	0d000002 	stceq	0, cr0, [r0, #-8]
     2c8:	00000316 	andeq	r0, r0, r6, lsl r3
     2cc:	f0690508 			; <UNDEFINED> instruction: 0xf0690508
     2d0:	0b000002 	bleq	2e0 <vector_table-0x7fffd20>
     2d4:	000000c1 	andeq	r0, r0, r1, asr #1
     2d8:	02f06a05 	rscseq	r6, r0, #20480	; 0x5000
     2dc:	23020000 	movwcs	r0, #8192	; 0x2000
     2e0:	00140b00 	andseq	r0, r4, r0, lsl #22
     2e4:	6b050000 	blvs	1402ec <vector_table-0x7ebfd14>
     2e8:	00000048 	andeq	r0, r0, r8, asr #32
     2ec:	00042302 	andeq	r2, r4, r2, lsl #6
     2f0:	0033040f 	eorseq	r0, r3, pc, lsl #8
     2f4:	e0120000 	ands	r0, r2, r0
     2f8:	f0000003 			; <UNDEFINED> instruction: 0xf0000003
     2fc:	70017b05 	andvc	r7, r1, r5, lsl #22
     300:	13000004 	movwne	r0, #4
     304:	000003af 	andeq	r0, r0, pc, lsr #7
     308:	48017f05 	stmdami	r1, {r0, r2, r8, r9, sl, fp, ip, sp, lr}
     30c:	02000000 	andeq	r0, r0, #0
     310:	23130023 	tstcs	r3, #35	; 0x23
     314:	05000001 	streq	r0, [r0, #-1]
     318:	06df0184 	ldrbeq	r0, [pc], r4, lsl #3
     31c:	23020000 	movwcs	r0, #8192	; 0x2000
     320:	01c81304 	biceq	r1, r8, r4, lsl #6
     324:	84050000 	strhi	r0, [r5], #-0
     328:	0006df01 	andeq	sp, r6, r1, lsl #30
     32c:	08230200 	stmdaeq	r3!, {r9}
     330:	00018313 	andeq	r8, r1, r3, lsl r3
     334:	01840500 	orreq	r0, r4, r0, lsl #10
     338:	000006df 	ldrdeq	r0, [r0], -pc	; <UNPREDICTABLE>
     33c:	130c2302 	movwne	r2, #49922	; 0xc302
     340:	00000358 	andeq	r0, r0, r8, asr r3
     344:	48018605 	stmdami	r1, {r0, r2, r9, sl, pc}
     348:	02000000 	andeq	r0, r0, #0
     34c:	27131023 	ldrcs	r1, [r3, -r3, lsr #32]
     350:	05000000 	streq	r0, [r0, #-0]
     354:	05ef0188 	strbeq	r0, [pc, #392]!	; 4e4 <vector_table-0x7fffb1c>
     358:	23020000 	movwcs	r0, #8192	; 0x2000
     35c:	02b81314 	adcseq	r1, r8, #1342177280	; 0x50000000
     360:	8a050000 	bhi	140368 <vector_table-0x7ebfc98>
     364:	00004801 	andeq	r4, r0, r1, lsl #16
     368:	18230200 	stmdane	r3!, {r9}
     36c:	0001d013 	andeq	sp, r1, r3, lsl r0
     370:	018c0500 	orreq	r0, ip, r0, lsl #10
     374:	00000048 	andeq	r0, r0, r8, asr #32
     378:	131c2302 	tstne	ip, #134217728	; 0x8000000
     37c:	00000362 	andeq	r0, r0, r2, ror #6
     380:	21018d05 	tstcs	r1, r5, lsl #26
     384:	02000006 	andeq	r0, r0, #6
     388:	5f142023 	svcpl	0x00142023
     38c:	0500706d 	streq	r7, [r0, #-109]	; 0x6d
     390:	0852018f 	ldmdaeq	r2, {r0, r1, r2, r3, r7, r8}^
     394:	23020000 	movwcs	r0, #8192	; 0x2000
     398:	03721324 	cmneq	r2, #-1879048192	; 0x90000000
     39c:	91050000 	mrsls	r0, (UNDEF: 5)
     3a0:	00086401 	andeq	r6, r8, r1, lsl #8
     3a4:	28230200 	stmdacs	r3!, {r9}
     3a8:	0002c313 	andeq	ip, r2, r3, lsl r3
     3ac:	01930500 	orrseq	r0, r3, r0, lsl #10
     3b0:	00000048 	andeq	r0, r0, r8, asr #32
     3b4:	132c2302 	teqne	ip, #134217728	; 0x8000000
     3b8:	000001e2 	andeq	r0, r0, r2, ror #3
     3bc:	48019605 	stmdami	r1, {r0, r2, r9, sl, ip, pc}
     3c0:	02000000 	andeq	r0, r0, #0
     3c4:	33133023 	tstcc	r3, #35	; 0x23
     3c8:	05000001 	streq	r0, [r0, #-1]
     3cc:	05ef0197 	strbeq	r0, [pc, #407]!	; 56b <vector_table-0x7fffa95>
     3d0:	23020000 	movwcs	r0, #8192	; 0x2000
     3d4:	01ea1334 	mvneq	r1, r4, lsr r3
     3d8:	99050000 	stmdbls	r5, {}	; <UNPREDICTABLE>
     3dc:	00086a01 	andeq	r6, r8, r1, lsl #20
     3e0:	38230200 	stmdacc	r3!, {r9}
     3e4:	00046113 	andeq	r6, r4, r3, lsl r1
     3e8:	019a0500 	orrseq	r0, sl, r0, lsl #10
     3ec:	00000870 	andeq	r0, r0, r0, ror r8
     3f0:	133c2302 	teqne	ip, #134217728	; 0x8000000
     3f4:	0000024c 	andeq	r0, r0, ip, asr #4
     3f8:	ef019b05 	svc	0x00019b05
     3fc:	02000005 	andeq	r0, r0, #5
     400:	40134023 	andsmi	r4, r3, r3, lsr #32
     404:	05000004 	streq	r0, [r0, #-4]
     408:	0882019e 	stmeq	r2, {r1, r2, r3, r4, r7, r8}
     40c:	23020000 	movwcs	r0, #8192	; 0x2000
     410:	02b01344 	adcseq	r1, r0, #268435457	; 0x10000001
     414:	a1050000 	mrsge	r0, (UNDEF: 5)
     418:	0002a301 	andeq	sl, r2, r1, lsl #6
     41c:	48230200 	stmdami	r3!, {r9}
     420:	00003213 	andeq	r3, r0, r3, lsl r2
     424:	01a20500 			; <UNDEFINED> instruction: 0x01a20500
     428:	0000025d 	andeq	r0, r0, sp, asr r2
     42c:	134c2302 	movtne	r2, #49922	; 0xc302
     430:	000000ec 	andeq	r0, r0, ip, ror #1
     434:	9e01a405 	cdpls	4, 0, cr10, cr1, cr5, {0}
     438:	03000006 	movweq	r0, #6
     43c:	1301d823 	movwne	sp, #6179	; 0x1823
     440:	000000d1 	ldrdeq	r0, [r0], -r1
     444:	df01a505 	svcle	0x0001a505
     448:	03000006 	movweq	r0, #6
     44c:	1301e423 	movwne	lr, #5155	; 0x1423
     450:	00000293 	muleq	r0, r3, r2
     454:	8e01a605 	cfmadd32hi	mvax0, mvfx10, mvfx1, mvfx5
     458:	03000008 	movweq	r0, #8
     45c:	1301e823 	movwne	lr, #6179	; 0x1823
     460:	00000240 	andeq	r0, r0, r0, asr #4
     464:	ef01a705 	svc	0x0001a705
     468:	03000005 	movweq	r0, #5
     46c:	0001ec23 	andeq	lr, r1, r3, lsr #24
     470:	02f6040f 	rscseq	r0, r6, #251658240	; 0xf000000
     474:	2f0d0000 	svccs	0x000d0000
     478:	68000003 	stmdavs	r0, {r0, r1}
     47c:	05d0b305 	ldrbeq	fp, [r0, #773]	; 0x305
     480:	5f0e0000 	svcpl	0x000e0000
     484:	b4050070 	strlt	r0, [r5], #-112	; 0x70
     488:	000002f0 	strdeq	r0, [r0], -r0	; <UNPREDICTABLE>
     48c:	0e002302 	cdpeq	3, 0, cr2, cr0, cr2, {0}
     490:	0500725f 	streq	r7, [r0, #-607]	; 0x25f
     494:	000048b5 			; <UNDEFINED> instruction: 0x000048b5
     498:	04230200 	strteq	r0, [r3], #-512	; 0x200
     49c:	00775f0e 	rsbseq	r5, r7, lr, lsl #30
     4a0:	0048b605 	subeq	fp, r8, r5, lsl #12
     4a4:	23020000 	movwcs	r0, #8192	; 0x2000
     4a8:	00fb0b08 	rscseq	r0, fp, r8, lsl #22
     4ac:	b7050000 	strlt	r0, [r5, -r0]
     4b0:	0000003a 	andeq	r0, r0, sl, lsr r0
     4b4:	0b0c2302 	bleq	3090c4 <vector_table-0x7cf6f3c>
     4b8:	00000409 	andeq	r0, r0, r9, lsl #8
     4bc:	003ab805 	eorseq	fp, sl, r5, lsl #16
     4c0:	23020000 	movwcs	r0, #8192	; 0x2000
     4c4:	625f0e0e 	subsvs	r0, pc, #224	; 0xe0
     4c8:	b9050066 	stmdblt	r5, {r1, r2, r5, r6}
     4cc:	000002c7 	andeq	r0, r0, r7, asr #5
     4d0:	0b102302 	bleq	4090e0 <vector_table-0x7bf6f20>
     4d4:	00000072 	andeq	r0, r0, r2, ror r0
     4d8:	0048ba05 	subeq	fp, r8, r5, lsl #20
     4dc:	23020000 	movwcs	r0, #8192	; 0x2000
     4e0:	02020b18 	andeq	r0, r2, #24576	; 0x6000
     4e4:	bd050000 	stclt	0, cr0, [r5, #-0]
     4e8:	00000470 	andeq	r0, r0, r0, ror r4
     4ec:	0b1c2302 	bleq	7090fc <vector_table-0x78f6f04>
     4f0:	000000e4 	andeq	r0, r0, r4, ror #1
     4f4:	00f0c105 	rscseq	ip, r0, r5, lsl #2
     4f8:	23020000 	movwcs	r0, #8192	; 0x2000
     4fc:	01930b20 	orrseq	r0, r3, r0, lsr #22
     500:	c3050000 	movwgt	r0, #20480	; 0x5000
     504:	000005fc 	strdeq	r0, [r0], -ip
     508:	0b242302 	bleq	909118 <vector_table-0x76f6ee8>
     50c:	00000282 	andeq	r0, r0, r2, lsl #5
     510:	062cc505 	strteq	ip, [ip], -r5, lsl #10
     514:	23020000 	movwcs	r0, #8192	; 0x2000
     518:	039a0b28 	orrseq	r0, sl, #40960	; 0xa000
     51c:	c7050000 	strgt	r0, [r5, -r0]
     520:	00000651 	andeq	r0, r0, r1, asr r6
     524:	0b2c2302 	bleq	b09134 <vector_table-0x74f6ecc>
     528:	00000470 	andeq	r0, r0, r0, ror r4
     52c:	066cc805 	strbteq	ip, [ip], -r5, lsl #16
     530:	23020000 	movwcs	r0, #8192	; 0x2000
     534:	755f0e30 	ldrbvc	r0, [pc, #-3632]	; fffff70c <_estack+0xdfffb710>
     538:	cb050062 	blgt	1406c8 <vector_table-0x7ebf938>
     53c:	000002c7 	andeq	r0, r0, r7, asr #5
     540:	0e342302 	cdpeq	3, 3, cr2, cr4, cr2, {0}
     544:	0070755f 	rsbseq	r7, r0, pc, asr r5
     548:	02f0cc05 	rscseq	ip, r0, #1280	; 0x500
     54c:	23020000 	movwcs	r0, #8192	; 0x2000
     550:	755f0e3c 	ldrbvc	r0, [pc, #-3644]	; fffff71c <_estack+0xdfffb720>
     554:	cd050072 	stcgt	0, cr0, [r5, #-456]	; 0xfffffe38
     558:	00000048 	andeq	r0, r0, r8, asr #32
     55c:	0b402302 	bleq	100916c <vector_table-0x6ff6e94>
     560:	000000af 	andeq	r0, r0, pc, lsr #1
     564:	0672d005 	ldrbteq	sp, [r2], -r5
     568:	23020000 	movwcs	r0, #8192	; 0x2000
     56c:	026e0b44 	rsbeq	r0, lr, #69632	; 0x11000
     570:	d1050000 	mrsle	r0, (UNDEF: 5)
     574:	00000682 	andeq	r0, r0, r2, lsl #13
     578:	0e472302 	cdpeq	3, 4, cr2, cr7, cr2, {0}
     57c:	00626c5f 	rsbeq	r6, r2, pc, asr ip
     580:	02c7d405 	sbceq	sp, r7, #83886080	; 0x5000000
     584:	23020000 	movwcs	r0, #8192	; 0x2000
     588:	012a0b48 	teqeq	sl, r8, asr #22
     58c:	d7050000 	strle	r0, [r5, -r0]
     590:	00000048 	andeq	r0, r0, r8, asr #32
     594:	0b502302 	bleq	14091a4 <vector_table-0x6bf6e5c>
     598:	0000013b 	andeq	r0, r0, fp, lsr r1
     59c:	0048d805 	subeq	sp, r8, r5, lsl #16
     5a0:	23020000 	movwcs	r0, #8192	; 0x2000
     5a4:	02740b54 	rsbseq	r0, r4, #86016	; 0x15000
     5a8:	df050000 	svcle	0x00050000
     5ac:	000000e5 	andeq	r0, r0, r5, ror #1
     5b0:	0b582302 	bleq	16091c0 <vector_table-0x69f6e40>
     5b4:	00000337 	andeq	r0, r0, r7, lsr r3
     5b8:	00dae105 	sbcseq	lr, sl, r5, lsl #2
     5bc:	23020000 	movwcs	r0, #8192	; 0x2000
     5c0:	027a0b5c 	rsbseq	r0, sl, #94208	; 0x17000
     5c4:	e2050000 	and	r0, r5, #0
     5c8:	00000048 	andeq	r0, r0, r8, asr #32
     5cc:	00642302 	rsbeq	r2, r4, r2, lsl #6
     5d0:	00480115 	subeq	r0, r8, r5, lsl r1
     5d4:	05ef0000 	strbeq	r0, [pc, #0]!	; 5dc <vector_table-0x7fffa24>
     5d8:	70160000 	andsvc	r0, r6, r0
     5dc:	16000004 	strne	r0, [r0], -r4
     5e0:	000000f0 	strdeq	r0, [r0], -r0	; <UNPREDICTABLE>
     5e4:	0005ef16 	andeq	lr, r5, r6, lsl pc
     5e8:	00481600 	subeq	r1, r8, r0, lsl #12
     5ec:	0f000000 	svceq	0x00000000
     5f0:	0005f504 	andeq	pc, r5, r4, lsl #10
     5f4:	08010200 	stmdaeq	r1, {r9}
     5f8:	000002f7 	strdeq	r0, [r0], -r7
     5fc:	05d0040f 	ldrbeq	r0, [r0, #1039]	; 0x40f
     600:	01150000 	tsteq	r5, r0
     604:	00000048 	andeq	r0, r0, r8, asr #32
     608:	00000621 	andeq	r0, r0, r1, lsr #12
     60c:	00047016 	andeq	r7, r4, r6, lsl r0
     610:	00f01600 	rscseq	r1, r0, r0, lsl #12
     614:	21160000 	tstcs	r6, r0
     618:	16000006 	strne	r0, [r0], -r6
     61c:	00000048 	andeq	r0, r0, r8, asr #32
     620:	27040f00 	strcs	r0, [r4, -r0, lsl #30]
     624:	17000006 	strne	r0, [r0, -r6]
     628:	000005f5 	strdeq	r0, [r0], -r5
     62c:	0602040f 	streq	r0, [r2], -pc, lsl #8
     630:	01150000 	tsteq	r5, r0
     634:	0000006f 	andeq	r0, r0, pc, rrx
     638:	00000651 	andeq	r0, r0, r1, asr r6
     63c:	00047016 	andeq	r7, r4, r6, lsl r0
     640:	00f01600 	rscseq	r1, r0, r0, lsl #12
     644:	6f160000 	svcvs	0x00160000
     648:	16000000 	strne	r0, [r0], -r0
     64c:	00000048 	andeq	r0, r0, r8, asr #32
     650:	32040f00 	andcc	r0, r4, #0
     654:	15000006 	strne	r0, [r0, #-6]
     658:	00004801 	andeq	r4, r0, r1, lsl #16
     65c:	00066c00 	andeq	r6, r6, r0, lsl #24
     660:	04701600 	ldrbteq	r1, [r0], #-1536	; 0x600
     664:	f0160000 			; <UNDEFINED> instruction: 0xf0160000
     668:	00000000 	andeq	r0, r0, r0
     66c:	0657040f 	ldrbeq	r0, [r7], -pc, lsl #8
     670:	33080000 	movwcc	r0, #32768	; 0x8000
     674:	82000000 	andhi	r0, r0, #0
     678:	09000006 	stmdbeq	r0, {r1, r2}
     67c:	00000025 	andeq	r0, r0, r5, lsr #32
     680:	33080002 	movwcc	r0, #32770	; 0x8002
     684:	92000000 	andls	r0, r0, #0
     688:	09000006 	stmdbeq	r0, {r1, r2}
     68c:	00000025 	andeq	r0, r0, r5, lsr #32
     690:	1d050000 	stcne	0, cr0, [r5, #-0]
     694:	05000003 	streq	r0, [r0, #-3]
     698:	0476011e 	ldrbteq	r0, [r6], #-286	; 0x11e
     69c:	1e120000 	cdpne	0, 1, cr0, cr2, cr0, {0}
     6a0:	0c000004 	stceq	0, cr0, [r0], {4}
     6a4:	d9012205 	stmdble	r1, {r0, r2, r9, sp}
     6a8:	13000006 	movwne	r0, #6
     6ac:	00000345 	andeq	r0, r0, r5, asr #6
     6b0:	d9012405 	stmdble	r1, {r0, r2, sl, sp}
     6b4:	02000006 	andeq	r0, r0, #6
     6b8:	08130023 	ldmdaeq	r3, {r0, r1, r5}
     6bc:	05000002 	streq	r0, [r0, #-2]
     6c0:	00480125 	subeq	r0, r8, r5, lsr #2
     6c4:	23020000 	movwcs	r0, #8192	; 0x2000
     6c8:	02fc1304 	rscseq	r1, ip, #268435456	; 0x10000000
     6cc:	26050000 	strcs	r0, [r5], -r0
     6d0:	0006df01 	andeq	sp, r6, r1, lsl #30
     6d4:	08230200 	stmdaeq	r3!, {r9}
     6d8:	9e040f00 	cdpls	15, 0, cr0, cr4, cr0, {0}
     6dc:	0f000006 	svceq	0x00000006
     6e0:	00069204 	andeq	r9, r6, r4, lsl #4
     6e4:	001f1200 	andseq	r1, pc, r0, lsl #4
     6e8:	05180000 	ldreq	r0, [r8, #-0]
     6ec:	072f013e 			; <UNDEFINED> instruction: 0x072f013e
     6f0:	84130000 	ldrhi	r0, [r3], #-0
     6f4:	05000003 	streq	r0, [r0, #-3]
     6f8:	072f013f 			; <UNDEFINED> instruction: 0x072f013f
     6fc:	23020000 	movwcs	r0, #8192	; 0x2000
     700:	03bf1300 			; <UNDEFINED> instruction: 0x03bf1300
     704:	40050000 	andmi	r0, r5, r0
     708:	00072f01 	andeq	r2, r7, r1, lsl #30
     70c:	06230200 	strteq	r0, [r3], -r0, lsl #4
     710:	0003e713 	andeq	lr, r3, r3, lsl r7
     714:	01410500 	cmpeq	r1, r0, lsl #10
     718:	00000041 	andeq	r0, r0, r1, asr #32
     71c:	130c2302 	movwne	r2, #49922	; 0xc302
     720:	00000340 	andeq	r0, r0, r0, asr #6
     724:	56014405 	strpl	r4, [r1], -r5, lsl #8
     728:	02000000 	andeq	r0, r0, #0
     72c:	08001023 	stmdaeq	r0, {r0, r1, r5, ip}
     730:	00000041 	andeq	r0, r0, r1, asr #32
     734:	0000073f 	andeq	r0, r0, pc, lsr r7
     738:	00002509 	andeq	r2, r0, r9, lsl #10
     73c:	12000200 	andne	r0, r0, #0
     740:	000000f4 	strdeq	r0, [r0], -r4
     744:	015f0510 	cmpeq	pc, r0, lsl r5	; <UNPREDICTABLE>
     748:	00000789 	andeq	r0, r0, r9, lsl #15
     74c:	00025913 	andeq	r5, r2, r3, lsl r9
     750:	01620500 	cmneq	r2, r0, lsl #10
     754:	00000163 	andeq	r0, r0, r3, ror #2
     758:	13002302 	movwne	r2, #770	; 0x302
     75c:	00000199 	muleq	r0, r9, r1
     760:	48016305 	stmdami	r1, {r0, r2, r8, r9, sp, lr}
     764:	02000000 	andeq	r0, r0, #0
     768:	85130423 	ldrhi	r0, [r3, #-1059]	; 0x423
     76c:	05000004 	streq	r0, [r0, #-4]
     770:	01630164 	cmneq	r3, r4, ror #2
     774:	23020000 	movwcs	r0, #8192	; 0x2000
     778:	02d21308 	sbcseq	r1, r2, #536870912	; 0x20000000
     77c:	65050000 	strvs	r0, [r5, #-0]
     780:	00078901 	andeq	r8, r7, r1, lsl #18
     784:	0c230200 	sfmeq	f0, 4, [r3], #-0
     788:	63040f00 	movwvs	r0, #20224	; 0x4f00
     78c:	12000001 	andne	r0, r0, #1
     790:	000003db 	ldrdeq	r0, [r0], -fp
     794:	01690550 	cmneq	r9, r0, asr r5
     798:	00000842 	andeq	r0, r0, r2, asr #16
     79c:	0003c513 	andeq	ip, r3, r3, lsl r5
     7a0:	016c0500 	cmneq	ip, r0, lsl #10
     7a4:	000005ef 	andeq	r0, r0, pc, ror #11
     7a8:	13002302 	movwne	r2, #770	; 0x302
     7ac:	0000034b 	andeq	r0, r0, fp, asr #6
     7b0:	da016d05 	ble	5bbcc <vector_table-0x7fa4434>
     7b4:	02000000 	andeq	r0, r0, #0
     7b8:	8a130423 	bhi	4c184c <vector_table-0x7b3e7b4>
     7bc:	05000000 	streq	r0, [r0, #-0]
     7c0:	00da016e 	sbcseq	r0, sl, lr, ror #2
     7c4:	23020000 	movwcs	r0, #8192	; 0x2000
     7c8:	0477130c 	ldrbteq	r1, [r7], #-780	; 0x30c
     7cc:	6f050000 	svcvs	0x00050000
     7d0:	0000da01 	andeq	sp, r0, r1, lsl #20
     7d4:	14230200 	strtne	r0, [r3], #-512	; 0x200
     7d8:	00042f13 	andeq	r2, r4, r3, lsl pc
     7dc:	01700500 	cmneq	r0, r0, lsl #10
     7e0:	00000842 	andeq	r0, r0, r2, asr #16
     7e4:	131c2302 	tstne	ip, #134217728	; 0x8000000
     7e8:	000003f4 	strdeq	r0, [r0], -r4
     7ec:	48017105 	stmdami	r1, {r0, r2, r8, ip, sp, lr}
     7f0:	02000000 	andeq	r0, r0, #0
     7f4:	54132423 	ldrpl	r2, [r3], #-1059	; 0x423
     7f8:	05000001 	streq	r0, [r0, #-1]
     7fc:	00da0172 	sbcseq	r0, sl, r2, ror r1
     800:	23020000 	movwcs	r0, #8192	; 0x2000
     804:	007b1328 	rsbseq	r1, fp, r8, lsr #6
     808:	73050000 	movwvc	r0, #20480	; 0x5000
     80c:	0000da01 	andeq	sp, r0, r1, lsl #20
     810:	30230200 	eorcc	r0, r3, r0, lsl #4
     814:	00014313 	andeq	r4, r1, r3, lsl r3
     818:	01740500 	cmneq	r4, r0, lsl #10
     81c:	000000da 	ldrdeq	r0, [r0], -sl
     820:	13382302 	teqne	r8, #134217728	; 0x8000000
     824:	0000003b 	andeq	r0, r0, fp, lsr r0
     828:	da017505 	ble	5dc44 <vector_table-0x7fa23bc>
     82c:	02000000 	andeq	r0, r0, #0
     830:	4a134023 	bmi	4d08c4 <vector_table-0x7b2f73c>
     834:	05000000 	streq	r0, [r0, #-0]
     838:	00da0176 	sbcseq	r0, sl, r6, ror r1
     83c:	23020000 	movwcs	r0, #8192	; 0x2000
     840:	f5080048 			; <UNDEFINED> instruction: 0xf5080048
     844:	52000005 	andpl	r0, r0, #5
     848:	09000008 	stmdbeq	r0, {r3}
     84c:	00000025 	andeq	r0, r0, r5, lsr #32
     850:	040f0007 	streq	r0, [pc], #-7	; 858 <vector_table-0x7fff7a8>
     854:	0000073f 	andeq	r0, r0, pc, lsr r7
     858:	08640118 	stmdaeq	r4!, {r3, r4, r8}^
     85c:	70160000 	andsvc	r0, r6, r0
     860:	00000004 	andeq	r0, r0, r4
     864:	0858040f 	ldmdaeq	r8, {r0, r1, r2, r3, sl}^
     868:	040f0000 	streq	r0, [pc], #-0	; 870 <vector_table-0x7fff790>
     86c:	000006e5 	andeq	r0, r0, r5, ror #13
     870:	0179040f 	cmneq	r9, pc, lsl #8
     874:	01180000 	tsteq	r8, r0
     878:	00000882 	andeq	r0, r0, r2, lsl #17
     87c:	00004816 	andeq	r4, r0, r6, lsl r8
     880:	040f0000 	streq	r0, [pc], #-0	; 888 <vector_table-0x7fff778>
     884:	00000888 	andeq	r0, r0, r8, lsl #17
     888:	0876040f 	ldmdaeq	r6!, {r0, r1, r2, r3, sl}^
     88c:	040f0000 	streq	r0, [pc], #-0	; 894 <vector_table-0x7fff76c>
     890:	0000078f 	andeq	r0, r0, pc, lsl #15
     894:	0000b504 	andeq	fp, r0, r4, lsl #10
     898:	f0630600 			; <UNDEFINED> instruction: 0xf0630600
     89c:	19000000 	stmdbne	r0, {}	; <UNPREDICTABLE>
     8a0:	0001fc01 	andeq	pc, r1, r1, lsl #24
     8a4:	010a0100 	mrseq	r0, (UNDEF: 26)
     8a8:	08000040 	stmdaeq	r0, {r6}
     8ac:	08000042 	stmdaeq	r0, {r1, r6}
     8b0:	c5007d02 	strgt	r7, [r0, #-3330]	; 0xd02
     8b4:	1a000008 	bne	8dc <vector_table-0x7fff724>
     8b8:	000001ef 	andeq	r0, r0, pc, ror #3
     8bc:	00f00a01 	rscseq	r0, r0, r1, lsl #20
     8c0:	50010000 	andpl	r0, r1, r0
     8c4:	1a011b00 	bne	474cc <vector_table-0x7fb8b34>
     8c8:	01000000 	mrseq	r0, (UNDEF: 0)
     8cc:	00420111 	subeq	r0, r2, r1, lsl r1
     8d0:	006c0800 	rsbeq	r0, ip, r0, lsl #16
     8d4:	00000800 	andeq	r0, r0, r0, lsl #16
     8d8:	01190000 	tsteq	r9, r0
     8dc:	0000020f 	andeq	r0, r0, pc, lsl #4
     8e0:	6c011701 	stcvs	7, cr1, [r1], {1}
     8e4:	6e080000 	cdpvs	0, 0, cr0, cr8, cr0, {0}
     8e8:	02080000 	andeq	r0, r8, #0
     8ec:	090d007d 	stmdbeq	sp, {r0, r2, r3, r4, r5, r6}
     8f0:	c11a0000 	tstgt	sl, r0
     8f4:	01000001 	tsteq	r0, r1
     8f8:	00089417 	andeq	r9, r8, r7, lsl r4
     8fc:	1a500100 	bne	1400d04 <vector_table-0x6bff2fc>
     900:	00000424 	andeq	r0, r0, r4, lsr #8
     904:	090d1701 	stmdbeq	sp, {r0, r8, r9, sl, ip}
     908:	51010000 	mrspl	r0, (UNDEF: 1)
     90c:	2c040f00 	stccs	15, cr0, [r4], {-0}
     910:	19000000 	stmdbne	r0, {}	; <UNPREDICTABLE>
     914:	00029901 	andeq	r9, r2, r1, lsl #18
     918:	01240100 	teqeq	r4, r0, lsl #2
     91c:	0800006e 	stmdaeq	r0, {r1, r2, r3, r5, r6}
     920:	08000070 	stmdaeq	r0, {r4, r5, r6}
     924:	46007d02 	strmi	r7, [r0], -r2, lsl #26
     928:	1a000009 	bne	954 <vector_table-0x7fff6ac>
     92c:	0000048a 	andeq	r0, r0, sl, lsl #9
     930:	02f02401 	rscseq	r2, r0, #16777216	; 0x1000000
     934:	50010000 	andpl	r0, r1, r0
     938:	0003a01a 	andeq	sl, r3, sl, lsl r0
     93c:	fd240100 	stc2	1, cr0, [r4, #-0]
     940:	01000000 	mrseq	r0, (UNDEF: 0)
     944:	011c0051 	tsteq	ip, r1, asr r0
     948:	00000401 	andeq	r0, r0, r1, lsl #8
     94c:	25012c01 	strcs	r2, [r1, #-3073]	; 0xc01
     950:	70000000 	andvc	r0, r0, r0
     954:	74080000 	strvc	r0, [r8], #-0
     958:	02080000 	andeq	r0, r8, #0
     95c:	721d007d 	andsvc	r0, sp, #125	; 0x7d
     960:	702c0100 	eorvc	r0, ip, r0, lsl #2
     964:	20000004 	andcs	r0, r0, r4
     968:	1a000000 	bne	970 <vector_table-0x7fff690>
     96c:	0000016f 	andeq	r0, r0, pc, ror #2
     970:	00482c01 	subeq	r2, r8, r1, lsl #24
     974:	51010000 	mrspl	r0, (UNDEF: 1)
     978:	00820000 	addeq	r0, r2, r0
     97c:	00020000 	andeq	r0, r2, r0
     980:	00000180 	andeq	r0, r0, r0, lsl #3
     984:	044a0104 	strbeq	r0, [sl], #-260	; 0x104
     988:	b7010000 	strlt	r0, [r1, -r0]
     98c:	02000004 	andeq	r0, r0, #4
     990:	74000001 	strvc	r0, [r0], #-1
     994:	78080000 	stmdavc	r8, {}	; <UNPREDICTABLE>
     998:	5b080000 	blpl	2009a0 <vector_table-0x7dff660>
     99c:	02000001 	andeq	r0, r0, #1
     9a0:	0004a901 	andeq	sl, r4, r1, lsl #18
     9a4:	01090100 	mrseq	r0, (UNDEF: 25)
     9a8:	08000074 	stmdaeq	r0, {r2, r4, r5, r6}
     9ac:	08000078 	stmdaeq	r0, {r3, r4, r5, r6}
     9b0:	03007d02 	movweq	r7, #3330	; 0xd02
     9b4:	000004c1 	andeq	r0, r0, r1, asr #9
     9b8:	00460201 	subeq	r0, r6, r1, lsl #4
     9bc:	01010000 	mrseq	r0, (UNDEF: 1)
     9c0:	60070404 	andvs	r0, r7, r4, lsl #8
     9c4:	03000000 	movweq	r0, #0
     9c8:	000004c1 	andeq	r0, r0, r1, asr #9
     9cc:	00460201 	subeq	r0, r6, r1, lsl #4
     9d0:	01010000 	mrseq	r0, (UNDEF: 1)
     9d4:	00007105 	andeq	r7, r0, r5, lsl #2
     9d8:	00006a00 	andeq	r6, r0, r0, lsl #20
     9dc:	006a0600 	rsbeq	r0, sl, r0, lsl #12
     9e0:	000f0000 	andeq	r0, pc, r0
     9e4:	65070404 	strvs	r0, [r7, #-1028]	; 0x404
     9e8:	07000000 	streq	r0, [r0, -r0]
     9ec:	049c0804 	ldreq	r0, [ip], #2052	; 0x804
     9f0:	0d010000 	stceq	0, cr0, [r1, #-0]
     9f4:	0000005a 	andeq	r0, r0, sl, asr r0
     9f8:	00030501 	andeq	r0, r3, r1, lsl #10
     9fc:	00080000 	andeq	r0, r8, r0
     a00:	00000298 	muleq	r0, r8, r2
     a04:	01ef0002 	mvneq	r0, r2
     a08:	01040000 	mrseq	r0, (UNDEF: 4)
     a0c:	0000044a 	andeq	r0, r0, sl, asr #8
     a10:	00053301 	andeq	r3, r5, r1, lsl #6
     a14:	00010200 	andeq	r0, r1, r0, lsl #4
     a18:	00007800 	andeq	r7, r0, r0, lsl #16
     a1c:	00010008 	andeq	r0, r1, r8
     a20:	00019408 	andeq	r9, r1, r8, lsl #8
     a24:	07040200 	streq	r0, [r4, -r0, lsl #4]
     a28:	00000065 	andeq	r0, r0, r5, rrx
     a2c:	f0060102 			; <UNDEFINED> instruction: 0xf0060102
     a30:	02000002 	andeq	r0, r0, #2
     a34:	02ee0801 	rsceq	r0, lr, #65536	; 0x10000
     a38:	02020000 	andeq	r0, r2, #0
     a3c:	00030205 	andeq	r0, r3, r5, lsl #4
     a40:	07020200 	streq	r0, [r2, -r0, lsl #4]
     a44:	0000022d 	andeq	r0, r0, sp, lsr #4
     a48:	69050403 	stmdbvs	r5, {r0, r1, sl}
     a4c:	0200746e 	andeq	r7, r0, #1845493760	; 0x6e000000
     a50:	00a10508 	adceq	r0, r1, r8, lsl #10
     a54:	08020000 	stmdaeq	r2, {}	; <UNPREDICTABLE>
     a58:	00005b07 	andeq	r5, r0, r7, lsl #22
     a5c:	05040200 	streq	r0, [r4, #-512]	; 0x200
     a60:	000000a6 	andeq	r0, r0, r6, lsr #1
     a64:	04020404 	streq	r0, [r2], #-1028	; 0x404
     a68:	00006007 	andeq	r6, r0, r7
     a6c:	08010200 	stmdaeq	r1, {r9}
     a70:	000002f7 	strdeq	r0, [r0], -r7
     a74:	0004e505 	andeq	lr, r4, r5, lsl #10
     a78:	66620300 	strbtvs	r0, [r2], -r0, lsl #6
     a7c:	06000000 	streq	r0, [r0], -r0
     a80:	00000572 	andeq	r0, r0, r2, ror r5
     a84:	d2690214 	rsble	r0, r9, #1073741825	; 0x40000001
     a88:	07000000 	streq	r0, [r0, -r0]
     a8c:	00000559 	andeq	r0, r0, r9, asr r5
     a90:	00746b02 	rsbseq	r6, r4, r2, lsl #22
     a94:	23020000 	movwcs	r0, #8192	; 0x2000
     a98:	05a20700 	streq	r0, [r2, #1792]!	; 0x700
     a9c:	6c020000 	stcvs	0, cr0, [r2], {-0}
     aa0:	000000d2 	ldrdeq	r0, [r0], -r2
     aa4:	07042302 	streq	r2, [r4, -r2, lsl #6]
     aa8:	000004f2 	strdeq	r0, [r0], -r2
     aac:	00d26d02 	sbcseq	r6, r2, r2, lsl #26
     ab0:	23020000 	movwcs	r0, #8192	; 0x2000
     ab4:	05190708 	ldreq	r0, [r9, #-1800]	; 0x708
     ab8:	6e020000 	cdpvs	0, 0, cr0, cr2, cr0, {0}
     abc:	00000064 	andeq	r0, r0, r4, rrx
     ac0:	070c2302 	streq	r2, [ip, -r2, lsl #6]
     ac4:	0000058b 	andeq	r0, r0, fp, lsl #11
     ac8:	00646f02 	rsbeq	r6, r4, r2, lsl #30
     acc:	23020000 	movwcs	r0, #8192	; 0x2000
     ad0:	04080010 	streq	r0, [r8], #-16
     ad4:	000000d8 	ldrdeq	r0, [r0], -r8
     ad8:	00007f09 	andeq	r7, r0, r9, lsl #30
     adc:	05c70500 	strbeq	r0, [r7, #1280]	; 0x500
     ae0:	71020000 	mrsvc	r0, (UNDEF: 2)
     ae4:	0000007f 	andeq	r0, r0, pc, ror r0
     ae8:	0005f006 	andeq	pc, r5, r6
     aec:	73020c00 	movwvc	r0, #11264	; 0x2c00
     af0:	0000011f 	andeq	r0, r0, pc, lsl r1
     af4:	00055907 	andeq	r5, r5, r7, lsl #18
     af8:	74750200 	ldrbtvc	r0, [r5], #-512	; 0x200
     afc:	02000000 	andeq	r0, r0, #0
     b00:	a2070023 	andge	r0, r7, #35	; 0x23
     b04:	02000005 	andeq	r0, r0, #5
     b08:	0000d276 	andeq	sp, r0, r6, ror r2
     b0c:	04230200 	strteq	r0, [r3], #-512	; 0x200
     b10:	0004f207 	andeq	pc, r4, r7, lsl #4
     b14:	d2770200 	rsbsle	r0, r7, #0
     b18:	02000000 	andeq	r0, r0, #0
     b1c:	05000823 	streq	r0, [r0, #-2083]	; 0x823
     b20:	0000057d 	andeq	r0, r0, sp, ror r5
     b24:	00e87902 	rsceq	r7, r8, r2, lsl #18
     b28:	53060000 	movwpl	r0, #24576	; 0x6000
     b2c:	14000005 	strne	r0, [r0], #-5
     b30:	01617e02 	cmneq	r1, r2, lsl #28
     b34:	fd070000 	stc2	0, cr0, [r7, #-0]
     b38:	02000004 	andeq	r0, r0, #4
     b3c:	00016180 	andeq	r6, r1, r0, lsl #3
     b40:	00230200 	eoreq	r0, r3, r0, lsl #4
     b44:	0005e807 	andeq	lr, r5, r7, lsl #16
     b48:	66810200 	strvs	r0, [r1], r0, lsl #4
     b4c:	02000001 	andeq	r0, r0, #1
     b50:	d8070423 	stmdale	r7, {r0, r1, r5, sl}
     b54:	02000005 	andeq	r0, r0, #5
     b58:	00017182 	andeq	r7, r1, r2, lsl #3
     b5c:	08230200 	stmdaeq	r3!, {r9}
     b60:	00660900 	rsbeq	r0, r6, r0, lsl #18
     b64:	04080000 	streq	r0, [r8], #-0
     b68:	0000016c 	andeq	r0, r0, ip, ror #2
     b6c:	0000dd09 	andeq	sp, r0, r9, lsl #26
     b70:	011f0900 	tsteq	pc, r0, lsl #18
     b74:	d2050000 	andle	r0, r5, #0
     b78:	02000005 	andeq	r0, r0, #5
     b7c:	00012a83 	andeq	r2, r1, r3, lsl #21
     b80:	c9010a00 	stmdbgt	r1, {r9, fp}
     b84:	01000004 	tsteq	r0, r4
     b88:	0078014c 	rsbseq	r0, r8, ip, asr #2
     b8c:	008e0800 	addeq	r0, lr, r0, lsl #16
     b90:	7d020800 	stcvc	8, cr0, [r2, #-0]
     b94:	0001a700 	andeq	sl, r1, r0, lsl #14
     b98:	05d10b00 	ldrbeq	r0, [r1, #2816]	; 0xb00
     b9c:	4c010000 	stcmi	0, cr0, [r1], {-0}
     ba0:	000001a7 	andeq	r0, r0, r7, lsr #3
     ba4:	08005001 	stmdaeq	r0, {r0, ip, lr}
     ba8:	00017604 	andeq	r7, r1, r4, lsl #12
     bac:	00010a00 	andeq	r0, r1, r0, lsl #20
     bb0:	01000006 	tsteq	r0, r6
     bb4:	008e0160 	addeq	r0, lr, r0, ror #2
     bb8:	00940800 	addseq	r0, r4, r0, lsl #16
     bbc:	7d020800 	stcvc	8, cr0, [r2, #-0]
     bc0:	0001d300 	andeq	sp, r1, r0, lsl #6
     bc4:	05e10b00 	strbeq	r0, [r1, #2816]!	; 0xb00
     bc8:	60010000 	andvs	r0, r1, r0
     bcc:	000001d3 	ldrdeq	r0, [r0], -r3
     bd0:	08005001 	stmdaeq	r0, {r0, ip, lr}
     bd4:	0000dd04 	andeq	sp, r0, r4, lsl #26
     bd8:	a9010a00 	stmdbge	r1, {r9, fp}
     bdc:	01000005 	tsteq	r0, r5
     be0:	00940167 	addseq	r0, r4, r7, ror #2
     be4:	00ae0800 	adceq	r0, lr, r0, lsl #16
     be8:	7d020800 	stcvc	8, cr0, [r2, #-0]
     bec:	00021a00 	andeq	r1, r2, r0, lsl #20
     bf0:	05d10b00 	ldrbeq	r0, [r1, #2816]	; 0xb00
     bf4:	67010000 	strvs	r0, [r1, -r0]
     bf8:	000001a7 	andeq	r0, r0, r7, lsr #3
     bfc:	640b5001 	strvs	r5, [fp], #-1
     c00:	01000005 	tsteq	r0, r5
     c04:	0001d367 	andeq	sp, r1, r7, ror #6
     c08:	0c510100 	ldfeqe	f0, [r1], {-0}
     c0c:	000005e8 	andeq	r0, r0, r8, ror #11
     c10:	01666901 	cmneq	r6, r1, lsl #18
     c14:	70020000 	andvc	r0, r2, r0
     c18:	010d0004 	tsteq	sp, r4
     c1c:	000004d9 	ldrdeq	r0, [r0], -r9
     c20:	ae017e01 	cdpge	14, 0, cr7, cr1, cr1, {0}
     c24:	e0080000 	and	r0, r8, r0
     c28:	33080000 	movwcc	r0, #32768	; 0x8000
     c2c:	6b000000 	blvs	c34 <vector_table-0x7fff3cc>
     c30:	0b000002 	bleq	c40 <vector_table-0x7fff3c0>
     c34:	000005d1 	ldrdeq	r0, [r0], -r1
     c38:	01a77e01 			; <UNDEFINED> instruction: 0x01a77e01
     c3c:	50010000 	andpl	r0, r1, r0
     c40:	0005640b 	andeq	r6, r5, fp, lsl #8
     c44:	d37e0100 	cmnle	lr, #0
     c48:	01000001 	tsteq	r0, r1
     c4c:	05970e51 	ldreq	r0, [r7, #3665]	; 0xe51
     c50:	80010000 	andhi	r0, r1, r0
     c54:	00000166 	andeq	r0, r0, r6, ror #2
     c58:	00000053 	andeq	r0, r0, r3, asr r0
     c5c:	0005210c 	andeq	r2, r5, ip, lsl #2
     c60:	74810100 	strvc	r0, [r1], #256	; 0x100
     c64:	02000000 	andeq	r0, r0, #0
     c68:	0f000071 	svceq	0x00000071
     c6c:	00050d01 	andeq	r0, r5, r1, lsl #26
     c70:	01b70100 			; <UNDEFINED> instruction: 0x01b70100
     c74:	080000e0 	stmdaeq	r0, {r5, r6, r7}
     c78:	08000100 	stmdaeq	r0, {r8}
     c7c:	0b007d02 	bleq	2008c <vector_table-0x7fdff74>
     c80:	000005b8 			; <UNDEFINED> instruction: 0x000005b8
     c84:	01d3b701 	bicseq	fp, r3, r1, lsl #14
     c88:	50010000 	andpl	r0, r1, r0
     c8c:	0005d10c 	andeq	sp, r5, ip, lsl #2
     c90:	a7b90100 	ldrge	r0, [r9, r0, lsl #2]!
     c94:	02000001 	andeq	r0, r0, #1
     c98:	00001070 	andeq	r1, r0, r0, ror r0
     c9c:	00000505 	andeq	r0, r0, r5, lsl #10
     ca0:	02cb0002 	sbceq	r0, fp, #2
     ca4:	01040000 	mrseq	r0, (UNDEF: 4)
     ca8:	0000044a 	andeq	r0, r0, sl, asr #8
     cac:	0007be01 	andeq	fp, r7, r1, lsl #28
     cb0:	00010200 	andeq	r0, r1, r0, lsl #4
     cb4:	00010000 	andeq	r0, r1, r0
     cb8:	00033808 	andeq	r3, r3, r8, lsl #16
     cbc:	00028a08 	andeq	r8, r2, r8, lsl #20
     cc0:	05040200 	streq	r0, [r4, #-512]	; 0x200
     cc4:	00746e69 	rsbseq	r6, r4, r9, ror #28
     cc8:	65070403 	strvs	r0, [r7, #-1027]	; 0x403
     ccc:	04000000 	streq	r0, [r0], #-0
     cd0:	04e50504 	strbteq	r0, [r5], #1284	; 0x504
     cd4:	62030000 	andvs	r0, r3, #0
     cd8:	00000040 	andeq	r0, r0, r0, asr #32
     cdc:	60070403 	andvs	r0, r7, r3, lsl #8
     ce0:	03000000 	movweq	r0, #0
     ce4:	00a60504 	adceq	r0, r6, r4, lsl #10
     ce8:	72060000 	andvc	r0, r6, #0
     cec:	14000005 	strne	r0, [r0], #-5
     cf0:	00a16902 	adceq	r6, r1, r2, lsl #18
     cf4:	59070000 	stmdbpl	r7, {}	; <UNPREDICTABLE>
     cf8:	02000005 	andeq	r0, r0, #5
     cfc:	0000356b 	andeq	r3, r0, fp, ror #10
     d00:	00230200 	eoreq	r0, r3, r0, lsl #4
     d04:	0005a207 	andeq	sl, r5, r7, lsl #4
     d08:	a16c0200 	cmnge	ip, r0, lsl #4
     d0c:	02000000 	andeq	r0, r0, #0
     d10:	f2070423 	vshl.s8	d0, d19, d7
     d14:	02000004 	andeq	r0, r0, #4
     d18:	0000a16d 	andeq	sl, r0, sp, ror #2
     d1c:	08230200 	stmdaeq	r3!, {r9}
     d20:	00051907 	andeq	r1, r5, r7, lsl #18
     d24:	336e0200 	cmncc	lr, #0
     d28:	02000000 	andeq	r0, r0, #0
     d2c:	8b070c23 	blhi	1c3dc0 <vector_table-0x7e3c240>
     d30:	02000005 	andeq	r0, r0, #5
     d34:	0000336f 	andeq	r3, r0, pc, ror #6
     d38:	10230200 	eorne	r0, r3, r0, lsl #4
     d3c:	a7040800 	strge	r0, [r4, -r0, lsl #16]
     d40:	09000000 	stmdbeq	r0, {}	; <UNPREDICTABLE>
     d44:	0000004e 	andeq	r0, r0, lr, asr #32
     d48:	0005c705 	andeq	ip, r5, r5, lsl #14
     d4c:	4e710200 	cdpmi	2, 7, cr0, cr1, cr0, {0}
     d50:	06000000 	streq	r0, [r0], -r0
     d54:	000005f0 	strdeq	r0, [r0], -r0	; <UNPREDICTABLE>
     d58:	ee73020c 	cdp	2, 7, cr0, cr3, cr12, {0}
     d5c:	07000000 	streq	r0, [r0, -r0]
     d60:	00000559 	andeq	r0, r0, r9, asr r5
     d64:	00357502 	eorseq	r7, r5, r2, lsl #10
     d68:	23020000 	movwcs	r0, #8192	; 0x2000
     d6c:	05a20700 	streq	r0, [r2, #1792]!	; 0x700
     d70:	76020000 	strvc	r0, [r2], -r0
     d74:	000000a1 	andeq	r0, r0, r1, lsr #1
     d78:	07042302 	streq	r2, [r4, -r2, lsl #6]
     d7c:	000004f2 	strdeq	r0, [r0], -r2
     d80:	00a17702 	adceq	r7, r1, r2, lsl #14
     d84:	23020000 	movwcs	r0, #8192	; 0x2000
     d88:	7d050008 	stcvc	0, cr0, [r5, #-32]	; 0xffffffe0
     d8c:	02000005 	andeq	r0, r0, #5
     d90:	0000b779 	andeq	fp, r0, r9, ror r7
     d94:	05530600 	ldrbeq	r0, [r3, #-1536]	; 0x600
     d98:	02140000 	andseq	r0, r4, #0
     d9c:	0001307e 	andeq	r3, r1, lr, ror r0
     da0:	04fd0700 	ldrbteq	r0, [sp], #1792	; 0x700
     da4:	80020000 	andhi	r0, r2, r0
     da8:	00000130 	andeq	r0, r0, r0, lsr r1
     dac:	07002302 	streq	r2, [r0, -r2, lsl #6]
     db0:	000005e8 	andeq	r0, r0, r8, ror #11
     db4:	01358102 	teqeq	r5, r2, lsl #2
     db8:	23020000 	movwcs	r0, #8192	; 0x2000
     dbc:	05d80704 	ldrbeq	r0, [r8, #1796]	; 0x704
     dc0:	82020000 	andhi	r0, r2, #0
     dc4:	00000140 	andeq	r0, r0, r0, asr #2
     dc8:	00082302 	andeq	r2, r8, r2, lsl #6
     dcc:	00004009 	andeq	r4, r0, r9
     dd0:	3b040800 	blcc	102dd8 <vector_table-0x7efd228>
     dd4:	09000001 	stmdbeq	r0, {r0}
     dd8:	000000ac 	andeq	r0, r0, ip, lsr #1
     ddc:	0000ee09 	andeq	lr, r0, r9, lsl #28
     de0:	05d20500 	ldrbeq	r0, [r2, #1280]	; 0x500
     de4:	83020000 	movwhi	r0, #8192	; 0x2000
     de8:	000000f9 	strdeq	r0, [r0], -r9
     dec:	f0060103 			; <UNDEFINED> instruction: 0xf0060103
     df0:	03000002 	movweq	r0, #2
     df4:	022d0702 	eoreq	r0, sp, #524288	; 0x80000
     df8:	92050000 	andls	r0, r5, #0
     dfc:	04000007 	streq	r0, [r0], #-7
     e00:	00003353 	andeq	r3, r0, r3, asr r3
     e04:	08bf0500 	ldmeq	pc!, {r8, sl}	; <UNPREDICTABLE>
     e08:	56040000 	strpl	r0, [r4], -r0
     e0c:	00000174 	andeq	r0, r0, r4, ror r1
     e10:	017a0408 	cmneq	sl, r8, lsl #8
     e14:	010a0000 	mrseq	r0, (UNDEF: 10)
     e18:	0000018b 	andeq	r0, r0, fp, lsl #3
     e1c:	00015e0b 	andeq	r5, r1, fp, lsl #28
     e20:	00400b00 	subeq	r0, r0, r0, lsl #22
     e24:	06000000 	streq	r0, [r0], -r0
     e28:	000006eb 	andeq	r0, r0, fp, ror #13
     e2c:	ec580438 	cfldrd	mvd0, [r8], {56}	; 0x38
     e30:	07000001 	streq	r0, [r0, -r1]
     e34:	00000773 	andeq	r0, r0, r3, ror r7
     e38:	01695a04 	cmneq	r9, r4, lsl #20
     e3c:	23020000 	movwcs	r0, #8192	; 0x2000
     e40:	088b0700 	stmeq	fp, {r8, r9, sl}
     e44:	5b040000 	blpl	100e4c <vector_table-0x7eff1b4>
     e48:	000000ac 	andeq	r0, r0, ip, lsr #1
     e4c:	07042302 	streq	r2, [r4, -r2, lsl #6]
     e50:	0000089c 	muleq	r0, ip, r8
     e54:	00ac5c04 	adceq	r5, ip, r4, lsl #24
     e58:	23020000 	movwcs	r0, #8192	; 0x2000
     e5c:	07870718 	usada8eq	r7, r8, r7, r0
     e60:	5d040000 	stcpl	0, cr0, [r4, #-0]
     e64:	00000040 	andeq	r0, r0, r0, asr #32
     e68:	072c2302 	streq	r2, [ip, -r2, lsl #6]!
     e6c:	00000741 	andeq	r0, r0, r1, asr #14
     e70:	00405e04 	subeq	r5, r0, r4, lsl #28
     e74:	23020000 	movwcs	r0, #8192	; 0x2000
     e78:	082c0730 	stmdaeq	ip!, {r4, r5, r8, r9, sl}
     e7c:	5f040000 	svcpl	0x00040000
     e80:	00000157 	andeq	r0, r0, r7, asr r1
     e84:	00342302 	eorseq	r2, r4, r2, lsl #6
     e88:	0006cc05 	andeq	ip, r6, r5, lsl #24
     e8c:	8b600400 	blhi	1801e94 <vector_table-0x67fe16c>
     e90:	0c000001 	stceq	0, cr0, [r0], {1}
     e94:	00000861 	andeq	r0, r0, r1, ror #16
     e98:	01015801 	tsteq	r1, r1, lsl #16
     e9c:	00021201 	andeq	r1, r2, r1, lsl #4
     ea0:	07870d00 	streq	r0, [r7, r0, lsl #26]
     ea4:	5a010000 	bpl	40eac <vector_table-0x7fbf154>
     ea8:	00004001 	andeq	r4, r0, r1
     eac:	010e0000 	mrseq	r0, (UNDEF: 14)
     eb0:	00000749 	andeq	r0, r0, r9, asr #14
     eb4:	47018a01 	strmi	r8, [r1, -r1, lsl #20]
     eb8:	00000000 	andeq	r0, r0, r0
     ebc:	b4080001 	strlt	r0, [r8], #-1
     ec0:	88080001 	stmdahi	r8, {r0}
     ec4:	9e000000 	cdpls	0, 0, cr0, cr0, cr0, {0}
     ec8:	0f000002 	svceq	0x00000002
     ecc:	000006db 	ldrdeq	r0, [r0], -fp
     ed0:	01698a01 	cmneq	r9, r1, lsl #20
     ed4:	00a80000 	adceq	r0, r8, r0
     ed8:	870f0000 	strhi	r0, [pc, -r0]
     edc:	01000007 	tsteq	r0, r7
     ee0:	0000408a 	andeq	r4, r0, sl, lsl #1
     ee4:	0000c600 	andeq	ip, r0, r0, lsl #12
     ee8:	07410f00 	strbeq	r0, [r1, -r0, lsl #30]
     eec:	8a010000 	bhi	40ef4 <vector_table-0x7fbf10c>
     ef0:	00000040 	andeq	r0, r0, r0, asr #32
     ef4:	000000fa 	strdeq	r0, [r0], -sl
     ef8:	000a3710 	andeq	r3, sl, r0, lsl r7
     efc:	478c0100 	strmi	r0, [ip, r0, lsl #2]
     f00:	18000000 	stmdane	r0, {}	; <UNPREDICTABLE>
     f04:	10000001 	andne	r0, r0, r1
     f08:	00000820 	andeq	r0, r0, r0, lsr #16
     f0c:	029e8d01 	addseq	r8, lr, #64	; 0x40
     f10:	01370000 	teqeq	r7, r0
     f14:	f7110000 			; <UNDEFINED> instruction: 0xf7110000
     f18:	22000001 	andcs	r0, r0, #1
     f1c:	5e080001 	cdppl	0, 0, cr0, cr8, cr1, {0}
     f20:	01080001 	tsteq	r8, r1
     f24:	01221298 			; <UNDEFINED> instruction: 0x01221298
     f28:	015e0800 	cmpeq	lr, r0, lsl #16
     f2c:	05130800 	ldreq	r0, [r3, #-2048]	; 0x800
     f30:	55000002 	strpl	r0, [r0, #-2]
     f34:	00000001 	andeq	r0, r0, r1
     f38:	04080000 	streq	r0, [r8], #-0
     f3c:	000001ec 	andeq	r0, r0, ip, ror #3
     f40:	062b0114 			; <UNDEFINED> instruction: 0x062b0114
     f44:	c3010000 	movwgt	r0, #4096	; 0x1000
     f48:	0001b401 	andeq	fp, r1, r1, lsl #8
     f4c:	0001f008 	andeq	pc, r1, r8
     f50:	00018108 	andeq	r8, r1, r8, lsl #2
     f54:	0002e900 	andeq	lr, r2, r0, lsl #18
     f58:	087d0f00 	ldmdaeq	sp!, {r8, r9, sl, fp}^
     f5c:	c3010000 	movwgt	r0, #4096	; 0x1000
     f60:	00000035 	andeq	r0, r0, r5, lsr r0
     f64:	000001a1 	andeq	r0, r0, r1, lsr #3
     f68:	0007e20f 	andeq	lr, r7, pc, lsl #4
     f6c:	e9c30100 	stmib	r3, {r8}^
     f70:	b4000002 	strlt	r0, [r0], #-2
     f74:	15000001 	strne	r0, [r0, #-1]
     f78:	00000801 	andeq	r0, r0, r1, lsl #16
     f7c:	0035c501 	eorseq	ip, r5, r1, lsl #10
     f80:	56010000 	strpl	r0, [r1], -r0
     f84:	45040800 	strmi	r0, [r4, #-2048]	; 0x800
     f88:	16000001 	strne	r0, [r0], -r1
     f8c:	0000075a 	andeq	r0, r0, sl, asr r7
     f90:	0101e901 	tsteq	r1, r1, lsl #18
     f94:	0000030a 	andeq	r0, r0, sl, lsl #6
     f98:	06141817 			; <UNDEFINED> instruction: 0x06141817
     f9c:	f0010000 			; <UNDEFINED> instruction: 0xf0010000
     fa0:	0000029e 	muleq	r0, lr, r2
     fa4:	ab0c0000 	blge	300fac <vector_table-0x7cff054>
     fa8:	01000008 	tsteq	r0, r8
     fac:	01010100 	mrseq	r0, (UNDEF: 17)
     fb0:	00000333 	andeq	r0, r0, r3, lsr r3
     fb4:	0006d40d 	andeq	sp, r6, sp, lsl #8
     fb8:	01020100 	mrseq	r0, (UNDEF: 18)
     fbc:	0000029e 	muleq	r0, lr, r2
     fc0:	06240d17 			; <UNDEFINED> instruction: 0x06240d17
     fc4:	0d010000 	stceq	0, cr0, [r1, #-0]
     fc8:	0002e901 	andeq	lr, r2, r1, lsl #18
     fcc:	19000000 	stmdbne	r0, {}	; <UNPREDICTABLE>
     fd0:	00080d01 	andeq	r0, r8, r1, lsl #26
     fd4:	013a0100 	teqeq	sl, r0, lsl #2
     fd8:	0001f001 	andeq	pc, r1, r1
     fdc:	00030808 	andeq	r0, r3, r8, lsl #16
     fe0:	0001d208 	andeq	sp, r1, r8, lsl #4
     fe4:	0003c700 	andeq	ip, r3, r0, lsl #14
     fe8:	02ef1a00 	rsceq	r1, pc, #0
     fec:	01f40000 	mvnseq	r0, r0
     ff0:	023a0800 	eorseq	r0, sl, #0
     ff4:	3d010800 	stccc	8, cr0, [r1, #-0]
     ff8:	00037501 	andeq	r7, r3, r1, lsl #10
     ffc:	01f41200 	mvnseq	r1, r0, lsl #4
    1000:	02300800 	eorseq	r0, r0, #0
    1004:	fd130800 	ldc2	8, cr0, [r3, #-0]
    1008:	f2000002 	vhadd.s8	d0, d0, d2
    100c:	00000001 	andeq	r0, r0, r1
    1010:	030a1a00 	movweq	r1, #43520	; 0xaa00
    1014:	023a0000 	eorseq	r0, sl, #0
    1018:	02c00800 	sbceq	r0, r0, #0
    101c:	40010800 	andmi	r0, r1, r0, lsl #16
    1020:	0003b001 	andeq	fp, r3, r1
    1024:	023a1200 	eorseq	r1, sl, #0
    1028:	02c00800 	sbceq	r0, r0, #0
    102c:	18130800 	ldmdane	r3, {fp}
    1030:	05000003 	streq	r0, [r0, #-3]
    1034:	12000002 	andne	r0, r0, #2
    1038:	08000254 	stmdaeq	r0, {r2, r4, r6, r9}
    103c:	0800025e 	stmdaeq	r0, {r1, r2, r3, r4, r6, r9}
    1040:	00032513 	andeq	r2, r3, r3, lsl r5
    1044:	00021800 	andeq	r1, r2, r0, lsl #16
    1048:	00000000 	andeq	r0, r0, r0
    104c:	0000001b 	andeq	r0, r0, fp, lsl r0
    1050:	06761c00 	ldrbteq	r1, [r6], -r0, lsl #24
    1054:	4f010000 	svcmi	0x00010000
    1058:	0003c701 	andeq	ip, r3, r1, lsl #14
    105c:	00022f00 	andeq	r2, r2, r0, lsl #30
    1060:	1d000000 	stcne	0, cr0, [r0, #-0]
    1064:	000002e9 	andeq	r0, r0, r9, ror #5
    1068:	0704011e 	smladeq	r4, lr, r1, r0
    106c:	6c010000 	stcvs	0, cr0, [r1], {-0}
    1070:	00470101 	subeq	r0, r7, r1, lsl #2
    1074:	03080000 	movweq	r0, #32768	; 0x8000
    1078:	03380800 	teqeq	r8, #0
    107c:	02650800 	rsbeq	r0, r5, #0
    1080:	04240000 	strteq	r0, [r4], #-0
    1084:	e21f0000 	ands	r0, pc, #0
    1088:	01000007 	tsteq	r0, r7
    108c:	0424016c 	strteq	r0, [r4], #-364	; 0x16c
    1090:	02850000 	addeq	r0, r5, #0
    1094:	14200000 	strtne	r0, [r0], #-0
    1098:	01000006 	tsteq	r0, r6
    109c:	029e016e 	addseq	r0, lr, #-2147483621	; 0x8000001b
    10a0:	54010000 	strpl	r0, [r1], #-0
    10a4:	000a3720 	andeq	r3, sl, r0, lsr #14
    10a8:	016f0100 	cmneq	pc, r0, lsl #2
    10ac:	00000047 	andeq	r0, r0, r7, asr #32
    10b0:	062c740e 	strteq	r7, [ip], -lr, lsl #8
    10b4:	00000803 	andeq	r0, r0, r3, lsl #16
    10b8:	2c230620 	stccs	6, cr0, [r3], #-128	; 0xffffff80
    10bc:	009f2a06 	addseq	r2, pc, r6, lsl #20
    10c0:	042a0408 	strteq	r0, [sl], #-1032	; 0x408
    10c4:	451d0000 	ldrmi	r0, [sp, #-0]
    10c8:	21000001 	tstcs	r0, r1
    10cc:	00000145 	andeq	r0, r0, r5, asr #2
    10d0:	0000043f 	andeq	r0, r0, pc, lsr r4
    10d4:	00002c22 	andeq	r2, r0, r2, lsr #24
    10d8:	15000100 	strne	r0, [r0, #-256]	; 0x100
    10dc:	0000084b 	andeq	r0, r0, fp, asr #16
    10e0:	042f5101 	strteq	r5, [pc], #-257	; 10e8 <vector_table-0x7ffef18>
    10e4:	03050000 	movweq	r0, #20480	; 0x5000
    10e8:	2000000c 	andcs	r0, r0, ip
    10ec:	00069e15 	andeq	r9, r6, r5, lsl lr
    10f0:	45520100 	ldrbmi	r0, [r2, #-256]	; 0x100
    10f4:	05000001 	streq	r0, [r0, #-1]
    10f8:	00003403 	andeq	r3, r0, r3, lsl #8
    10fc:	06b51520 	ldrteq	r1, [r5], r0, lsr #10
    1100:	53010000 	movwpl	r0, #4096	; 0x1000
    1104:	00000145 	andeq	r0, r0, r5, asr #2
    1108:	00480305 	subeq	r0, r8, r5, lsl #6
    110c:	34152000 	ldrcc	r2, [r5], #-0
    1110:	01000008 	tsteq	r0, r8
    1114:	0002e954 	andeq	lr, r2, r4, asr r9
    1118:	70030500 	andvc	r0, r3, r0, lsl #10
    111c:	15200000 	strne	r0, [r0, #-0]!
    1120:	00000722 	andeq	r0, r0, r2, lsr #14
    1124:	02e95501 	rsceq	r5, r9, #4194304	; 0x400000
    1128:	03050000 	movweq	r0, #20480	; 0x5000
    112c:	20000074 	andcs	r0, r0, r4, ror r0
    1130:	0007a315 	andeq	sl, r7, r5, lsl r3
    1134:	45560100 	ldrbmi	r0, [r6, #-256]	; 0x100
    1138:	05000001 	streq	r0, [r0, #-1]
    113c:	00005c03 	andeq	r5, r0, r3, lsl #24
    1140:	07ee2320 	strbeq	r2, [lr, r0, lsr #6]!
    1144:	59010000 	stmdbpl	r1, {}	; <UNPREDICTABLE>
    1148:	0000029e 	muleq	r0, lr, r2
    114c:	82150101 	andshi	r0, r5, #1073741824	; 0x40000000
    1150:	01000006 	tsteq	r0, r6
    1154:	0000405a 	andeq	r4, r0, sl, asr r0
    1158:	78030500 	stmdavc	r3, {r8, sl}
    115c:	15200000 	strne	r0, [r0, #-0]!
    1160:	00000662 	andeq	r0, r0, r2, ror #12
    1164:	00355b01 	eorseq	r5, r5, r1, lsl #22
    1168:	03050000 	movweq	r0, #20480	; 0x5000
    116c:	2000007c 	andcs	r0, r0, ip, ror r0
    1170:	00065315 	andeq	r5, r6, r5, lsl r3
    1174:	355b0100 	ldrbcc	r0, [fp, #-256]	; 0x100
    1178:	05000000 	streq	r0, [r0, #-0]
    117c:	00008403 	andeq	r8, r0, r3, lsl #8
    1180:	06461520 	strbeq	r1, [r6], -r0, lsr #10
    1184:	5b010000 	blpl	4118c <vector_table-0x7fbee74>
    1188:	00000035 	andeq	r0, r0, r5, lsr r0
    118c:	00800305 	addeq	r0, r0, r5, lsl #6
    1190:	ee242000 	cdp	0, 2, cr2, cr4, cr0, {0}
    1194:	01000007 	tsteq	r0, r7
    1198:	00029e59 	andeq	r9, r2, r9, asr lr
    119c:	03050100 	movweq	r0, #20736	; 0x5100
    11a0:	20000008 	andcs	r0, r0, r8
    11a4:	0007df00 	andeq	sp, r7, r0, lsl #30
    11a8:	b6000200 	strlt	r0, [r0], -r0, lsl #4
    11ac:	04000004 	streq	r0, [r0], #-4
    11b0:	00044a01 	andeq	r4, r4, r1, lsl #20
    11b4:	0b080100 	bleq	2015bc <vector_table-0x7dfea44>
    11b8:	01020000 	mrseq	r0, (UNDEF: 2)
    11bc:	03380000 	teqeq	r8, #0
    11c0:	07480800 	strbeq	r0, [r8, -r0, lsl #16]
    11c4:	03e30800 	mvneq	r0, #0
    11c8:	0c020000 	stceq	0, cr0, [r2], {-0}
    11cc:	02000009 	andeq	r0, r0, #9
    11d0:	000030d3 	ldrdeq	r3, [r0], -r3	; <UNPREDICTABLE>
    11d4:	07040300 	streq	r0, [r4, -r0, lsl #6]
    11d8:	00000065 	andeq	r0, r0, r5, rrx
    11dc:	f0060103 			; <UNDEFINED> instruction: 0xf0060103
    11e0:	03000002 	movweq	r0, #2
    11e4:	02ee0801 	rsceq	r0, lr, #65536	; 0x10000
    11e8:	02030000 	andeq	r0, r3, #0
    11ec:	00030205 	andeq	r0, r3, r5, lsl #4
    11f0:	07020300 	streq	r0, [r2, -r0, lsl #6]
    11f4:	0000022d 	andeq	r0, r0, sp, lsr #4
    11f8:	69050404 	stmdbvs	r5, {r2, sl}
    11fc:	0300746e 	movweq	r7, #1134	; 0x46e
    1200:	00a10508 	adceq	r0, r1, r8, lsl #10
    1204:	08030000 	stmdaeq	r3, {}	; <UNPREDICTABLE>
    1208:	00005b07 	andeq	r5, r0, r7, lsl #22
    120c:	05040300 	streq	r0, [r4, #-768]	; 0x300
    1210:	000000a6 	andeq	r0, r0, r6, lsr #1
    1214:	04030405 	streq	r0, [r3], #-1029	; 0x405
    1218:	00006007 	andeq	r6, r0, r7
    121c:	08010300 	stmdaeq	r1, {r8, r9}
    1220:	000002f7 	strdeq	r0, [r0], -r7
    1224:	0004e502 	andeq	lr, r4, r2, lsl #10
    1228:	71620300 	cmnvc	r2, r0, lsl #6
    122c:	06000000 	streq	r0, [r0], -r0
    1230:	00000572 	andeq	r0, r0, r2, ror r5
    1234:	dd690414 	cfstrdle	mvd0, [r9, #-80]!	; 0xffffffb0
    1238:	07000000 	streq	r0, [r0, -r0]
    123c:	00000559 	andeq	r0, r0, r9, asr r5
    1240:	007f6b04 	rsbseq	r6, pc, r4, lsl #22
    1244:	23020000 	movwcs	r0, #8192	; 0x2000
    1248:	05a20700 	streq	r0, [r2, #1792]!	; 0x700
    124c:	6c040000 	stcvs	0, cr0, [r4], {-0}
    1250:	000000dd 	ldrdeq	r0, [r0], -sp
    1254:	07042302 	streq	r2, [r4, -r2, lsl #6]
    1258:	000004f2 	strdeq	r0, [r0], -r2
    125c:	00dd6d04 	sbcseq	r6, sp, r4, lsl #26
    1260:	23020000 	movwcs	r0, #8192	; 0x2000
    1264:	05190708 	ldreq	r0, [r9, #-1800]	; 0x708
    1268:	6e040000 	cdpvs	0, 0, cr0, cr4, cr0, {0}
    126c:	0000006f 	andeq	r0, r0, pc, rrx
    1270:	070c2302 	streq	r2, [ip, -r2, lsl #6]
    1274:	0000058b 	andeq	r0, r0, fp, lsl #11
    1278:	006f6f04 	rsbeq	r6, pc, r4, lsl #30
    127c:	23020000 	movwcs	r0, #8192	; 0x2000
    1280:	04080010 	streq	r0, [r8], #-16
    1284:	000000e3 	andeq	r0, r0, r3, ror #1
    1288:	00008a09 	andeq	r8, r0, r9, lsl #20
    128c:	05c70200 	strbeq	r0, [r7, #512]	; 0x200
    1290:	71040000 	mrsvc	r0, (UNDEF: 4)
    1294:	0000008a 	andeq	r0, r0, sl, lsl #1
    1298:	0005f006 	andeq	pc, r5, r6
    129c:	73040c00 	movwvc	r0, #19456	; 0x4c00
    12a0:	0000012a 	andeq	r0, r0, sl, lsr #2
    12a4:	00055907 	andeq	r5, r5, r7, lsl #18
    12a8:	7f750400 	svcvc	0x00750400
    12ac:	02000000 	andeq	r0, r0, #0
    12b0:	a2070023 	andge	r0, r7, #35	; 0x23
    12b4:	04000005 	streq	r0, [r0], #-5
    12b8:	0000dd76 	andeq	sp, r0, r6, ror sp
    12bc:	04230200 	strteq	r0, [r3], #-512	; 0x200
    12c0:	0004f207 	andeq	pc, r4, r7, lsl #4
    12c4:	dd770400 	cfldrdle	mvd0, [r7, #-0]
    12c8:	02000000 	andeq	r0, r0, #0
    12cc:	02000823 	andeq	r0, r0, #2293760	; 0x230000
    12d0:	0000057d 	andeq	r0, r0, sp, ror r5
    12d4:	00f37904 	rscseq	r7, r3, r4, lsl #18
    12d8:	53060000 	movwpl	r0, #24576	; 0x6000
    12dc:	14000005 	strne	r0, [r0], #-5
    12e0:	016c7e04 	cmneq	ip, r4, lsl #28
    12e4:	fd070000 	stc2	0, cr0, [r7, #-0]
    12e8:	04000004 	streq	r0, [r0], #-4
    12ec:	00016c80 	andeq	r6, r1, r0, lsl #25
    12f0:	00230200 	eoreq	r0, r3, r0, lsl #4
    12f4:	0005e807 	andeq	lr, r5, r7, lsl #16
    12f8:	71810400 	orrvc	r0, r1, r0, lsl #8
    12fc:	02000001 	andeq	r0, r0, #1
    1300:	d8070423 	stmdale	r7, {r0, r1, r5, sl}
    1304:	04000005 	streq	r0, [r0], #-5
    1308:	00017c82 	andeq	r7, r1, r2, lsl #25
    130c:	08230200 	stmdaeq	r3!, {r9}
    1310:	00710900 	rsbseq	r0, r1, r0, lsl #18
    1314:	04080000 	streq	r0, [r8], #-0
    1318:	00000177 	andeq	r0, r0, r7, ror r1
    131c:	0000e809 	andeq	lr, r0, r9, lsl #16
    1320:	012a0900 	teqeq	sl, r0, lsl #18
    1324:	d2020000 	andle	r0, r2, #0
    1328:	04000005 	streq	r0, [r0], #-5
    132c:	00013583 	andeq	r3, r1, r3, lsl #11
    1330:	098a0600 	stmibeq	sl, {r9, sl}
    1334:	05080000 	streq	r0, [r8, #-0]
    1338:	0001b568 	andeq	fp, r1, r8, ror #10
    133c:	09d70700 	ldmibeq	r7, {r8, r9, sl}^
    1340:	6a050000 	bvs	141348 <vector_table-0x7ebecb8>
    1344:	00000068 	andeq	r0, r0, r8, rrx
    1348:	07002302 	streq	r2, [r0, -r2, lsl #6]
    134c:	000009fa 	strdeq	r0, [r0], -sl
    1350:	007f6b05 	rsbseq	r6, pc, r5, lsl #22
    1354:	23020000 	movwcs	r0, #8192	; 0x2000
    1358:	29020004 	stmdbcs	r2, {r2}
    135c:	0500000a 	streq	r0, [r0, #-10]
    1360:	00018c6c 	andeq	r8, r1, ip, ror #24
    1364:	0adf0600 	beq	ff7c2b6c <_estack+0xdf7beb70>
    1368:	014c0000 	mrseq	r0, (UNDEF: 76)
    136c:	00026779 	andeq	r6, r2, r9, ror r7
    1370:	09f30700 	ldmibeq	r3!, {r8, r9, sl}^
    1374:	7b010000 	blvc	4137c <vector_table-0x7fbec84>
    1378:	00000267 	andeq	r0, r0, r7, ror #4
    137c:	07002302 	streq	r2, [r0, -r2, lsl #6]
    1380:	00000baf 	andeq	r0, r0, pc, lsr #23
    1384:	02677c01 	rsbeq	r7, r7, #256	; 0x100
    1388:	23020000 	movwcs	r0, #8192	; 0x2000
    138c:	0bee0704 	bleq	ffb82fa4 <_estack+0xdfb7efa8>
    1390:	7e010000 	cdpvc	0, 0, cr0, cr1, cr0, {0}
    1394:	00000267 	andeq	r0, r0, r7, ror #4
    1398:	07082302 	streq	r2, [r8, -r2, lsl #6]
    139c:	000009c0 	andeq	r0, r0, r0, asr #19
    13a0:	02677f01 	rsbeq	r7, r7, #4
    13a4:	23020000 	movwcs	r0, #8192	; 0x2000
    13a8:	0bc0070c 	bleq	ff002fe0 <_estack+0xdeffefe4>
    13ac:	81010000 	mrshi	r0, (UNDEF: 1)
    13b0:	00000181 	andeq	r0, r0, r1, lsl #3
    13b4:	07102302 	ldreq	r2, [r0, -r2, lsl #6]
    13b8:	00000a87 	andeq	r0, r0, r7, lsl #21
    13bc:	01818201 	orreq	r8, r1, r1, lsl #4
    13c0:	23020000 	movwcs	r0, #8192	; 0x2000
    13c4:	0b5c0724 	bleq	170305c <vector_table-0x68fcfa4>
    13c8:	84010000 	strhi	r0, [r1], #-0
    13cc:	0000016c 	andeq	r0, r0, ip, ror #2
    13d0:	07382302 	ldreq	r2, [r8, -r2, lsl #6]!
    13d4:	00000a70 	andeq	r0, r0, r0, ror sl
    13d8:	00718501 	rsbseq	r8, r1, r1, lsl #10
    13dc:	23020000 	movwcs	r0, #8192	; 0x2000
    13e0:	0bf8073c 	bleq	ffe030d8 <_estack+0xdfdff0dc>
    13e4:	86010000 	strhi	r0, [r1], -r0
    13e8:	00000071 	andeq	r0, r0, r1, ror r0
    13ec:	07402302 	strbeq	r2, [r0, -r2, lsl #6]
    13f0:	00000ba7 	andeq	r0, r0, r7, lsr #23
    13f4:	00688801 	rsbeq	r8, r8, r1, lsl #16
    13f8:	23020000 	movwcs	r0, #8192	; 0x2000
    13fc:	0b290744 	bleq	a43114 <vector_table-0x75bceec>
    1400:	89010000 	stmdbhi	r1, {}	; <UNPREDICTABLE>
    1404:	00000068 	andeq	r0, r0, r8, rrx
    1408:	00482302 	subeq	r2, r8, r2, lsl #6
    140c:	00370408 	eorseq	r0, r7, r8, lsl #8
    1410:	ca020000 	bgt	81418 <vector_table-0x7f7ebe8>
    1414:	0100000a 	tsteq	r0, sl
    1418:	0001c090 	muleq	r1, r0, r0
    141c:	0a3f0200 	beq	fc1c24 <vector_table-0x703e3dc>
    1420:	98010000 	stmdals	r1, {}	; <UNPREDICTABLE>
    1424:	00000283 	andeq	r0, r0, r3, lsl #5
    1428:	026d0408 	rsbeq	r0, sp, #134217728	; 0x8000000
    142c:	570a0000 	strpl	r0, [sl, -r0]
    1430:	01000009 	tsteq	r0, r9
    1434:	380104f1 	stmdacc	r1, {r0, r4, r5, r6, r7, sl}
    1438:	5e080003 	cdppl	0, 0, cr0, cr8, cr3, {0}
    143c:	98080003 	stmdals	r8, {r0, r1}
    1440:	c3000002 	movwgt	r0, #2
    1444:	0b000002 	bleq	1454 <vector_table-0x7ffebac>
    1448:	00000be6 	andeq	r0, r0, r6, ror #23
    144c:	c304f101 	movwgt	pc, #16641	; 0x4101	; <UNPREDICTABLE>
    1450:	b8000002 	stmdalt	r0, {r1}
    1454:	0b000002 	bleq	1464 <vector_table-0x7ffeb9c>
    1458:	00000b6e 	andeq	r0, r0, lr, ror #22
    145c:	c804f101 	stmdagt	r4, {r0, r8, ip, sp, lr, pc}
    1460:	e1000002 	tst	r0, r2
    1464:	00000002 	andeq	r0, r0, r2
    1468:	0002830c 	andeq	r8, r2, ip, lsl #6
    146c:	ce040800 	cdpgt	8, 0, cr0, cr4, cr0, {0}
    1470:	0d000002 	stceq	0, cr0, [r0, #-8]
    1474:	0009770a 	andeq	r7, r9, sl, lsl #14
    1478:	04cb0100 	strbeq	r0, [fp], #256	; 0x100
    147c:	00035e01 	andeq	r5, r3, r1, lsl #28
    1480:	0003a808 	andeq	sl, r3, r8, lsl #16
    1484:	00030a08 	andeq	r0, r3, r8, lsl #20
    1488:	00031900 	andeq	r1, r3, r0, lsl #18
    148c:	0be60b00 	bleq	ff984094 <_estack+0xdf980098>
    1490:	cb010000 	blgt	41498 <vector_table-0x7fbeb68>
    1494:	00028304 	andeq	r8, r2, r4, lsl #6
    1498:	00032a00 	andeq	r2, r3, r0, lsl #20
    149c:	0abc0b00 	beq	fef040a4 <_estack+0xdef000a8>
    14a0:	cb010000 	blgt	414a8 <vector_table-0x7fbeb58>
    14a4:	0002c804 	andeq	ip, r2, r4, lsl #16
    14a8:	00034800 	andeq	r4, r3, r0, lsl #16
    14ac:	0bb60b00 	bleq	fed840b4 <_estack+0xded800b8>
    14b0:	cb010000 	blgt	414b8 <vector_table-0x7fbeb48>
    14b4:	00006804 	andeq	r6, r0, r4, lsl #16
    14b8:	00036600 	andeq	r6, r3, r0, lsl #12
    14bc:	980a0000 	stmdals	sl, {}	; <UNPREDICTABLE>
    14c0:	0100000b 	tsteq	r0, fp
    14c4:	a80104ff 	stmdage	r1, {r0, r1, r2, r3, r4, r5, r6, r7, sl}
    14c8:	0c080003 	stceq	0, cr0, [r8], {3}
    14cc:	8f080004 	svchi	0x00080004
    14d0:	43000003 	movwmi	r0, #3
    14d4:	0b000003 	bleq	14e8 <vector_table-0x7ffeb18>
    14d8:	00000be6 	andeq	r0, r0, r6, ror #23
    14dc:	7804ff01 	stmdavc	r4, {r0, r8, r9, sl, fp, ip, sp, lr, pc}
    14e0:	af000002 	svcge	0x00000002
    14e4:	00000003 	andeq	r0, r0, r3
    14e8:	0b77010e 	bleq	1dc1928 <vector_table-0x623e6d8>
    14ec:	17010000 	strne	r0, [r1, -r0]
    14f0:	00680101 	rsbeq	r0, r8, r1, lsl #2
    14f4:	040c0000 	streq	r0, [ip], #-0
    14f8:	04560800 	ldrbeq	r0, [r6], #-2048	; 0x800
    14fc:	03cd0800 	biceq	r0, sp, #0
    1500:	03920000 	orrseq	r0, r2, #0
    1504:	e60b0000 	str	r0, [fp], -r0
    1508:	0100000b 	tsteq	r0, fp
    150c:	02780117 	rsbseq	r0, r8, #-1073741819	; 0xc0000005
    1510:	03ed0000 	mvneq	r0, #0
    1514:	6d0b0000 	stcvs	0, cr0, [fp, #-0]
    1518:	01000009 	tsteq	r0, r9
    151c:	00680117 	rsbeq	r0, r8, r7, lsl r1
    1520:	040b0000 	streq	r0, [fp], #-0
    1524:	370f0000 	strcc	r0, [pc, -r0]
    1528:	0100000a 	tsteq	r0, sl
    152c:	00680119 	rsbeq	r0, r8, r9, lsl r1
    1530:	04290000 	strteq	r0, [r9], #-0
    1534:	0e000000 	cdpeq	0, 0, cr0, cr0, cr0, {0}
    1538:	000b3101 	andeq	r3, fp, r1, lsl #2
    153c:	013e0100 	teqeq	lr, r0, lsl #2
    1540:	00027801 	andeq	r7, r2, r1, lsl #16
    1544:	00045600 	andeq	r5, r4, r0, lsl #12
    1548:	00049608 	andeq	r9, r4, r8, lsl #12
    154c:	00045b08 	andeq	r5, r4, r8, lsl #22
    1550:	00041100 	andeq	r1, r4, r0, lsl #2
    1554:	0a790b00 	beq	1e4415c <vector_table-0x61bbea4>
    1558:	3e010000 	cdpcc	0, 0, cr0, cr1, cr0, {0}
    155c:	00007101 	andeq	r7, r0, r1, lsl #2
    1560:	00047b00 	andeq	r7, r4, r0, lsl #22
    1564:	0bf80b00 	bleq	ffe0416c <_estack+0xdfe00170>
    1568:	3e010000 	cdpcc	0, 0, cr0, cr1, cr0, {0}
    156c:	00007101 	andeq	r7, r0, r1, lsl #2
    1570:	00049900 	andeq	r9, r4, r0, lsl #18
    1574:	08d00b00 	ldmeq	r0, {r8, r9, fp}^
    1578:	3e010000 	cdpcc	0, 0, cr0, cr1, cr0, {0}
    157c:	00003e01 	andeq	r3, r0, r1, lsl #28
    1580:	0004b700 	andeq	fp, r4, r0, lsl #14
    1584:	096c0f00 	stmdbeq	ip!, {r8, r9, sl, fp}^
    1588:	40010000 	andmi	r0, r1, r0
    158c:	00028301 	andeq	r8, r2, r1, lsl #6
    1590:	0004d500 	andeq	sp, r4, r0, lsl #10
    1594:	0bd40f00 	bleq	ff50519c <_estack+0xdf5011a0>
    1598:	41010000 	mrsmi	r0, (UNDEF: 1)
    159c:	00002501 	andeq	r2, r0, r1, lsl #10
    15a0:	0004f300 	andeq	pc, r4, r0, lsl #6
    15a4:	0a370f00 	beq	dc51ac <vector_table-0x723ae54>
    15a8:	42010000 	andmi	r0, r1, #0
    15ac:	00027801 	andeq	r7, r2, r1, lsl #16
    15b0:	00050d00 	andeq	r0, r5, r0, lsl #26
    15b4:	61100000 	tstvs	r0, r0
    15b8:	0100000a 	tsteq	r0, sl
    15bc:	68010556 	stmdavs	r1, {r1, r2, r4, r6, r8, sl}
    15c0:	01000000 	mrseq	r0, (UNDEF: 0)
    15c4:	0000043c 	andeq	r0, r0, ip, lsr r4
    15c8:	000be611 	andeq	lr, fp, r1, lsl r6
    15cc:	05560100 	ldrbeq	r0, [r6, #-256]	; 0x100
    15d0:	0000043c 	andeq	r0, r0, ip, lsr r4
    15d4:	000a3712 	andeq	r3, sl, r2, lsl r7
    15d8:	05580100 	ldrbeq	r0, [r8, #-256]	; 0x100
    15dc:	00000068 	andeq	r0, r0, r8, rrx
    15e0:	02780c00 	rsbseq	r0, r8, #0
    15e4:	010e0000 	mrseq	r0, (UNDEF: 14)
    15e8:	00000a17 	andeq	r0, r0, r7, lsl sl
    15ec:	01023d01 	tsteq	r2, r1, lsl #26
    15f0:	00000068 	andeq	r0, r0, r8, rrx
    15f4:	08000496 	stmdaeq	r0, {r1, r2, r4, r7, sl}
    15f8:	08000576 	stmdaeq	r0, {r1, r2, r4, r5, r6, r8, sl}
    15fc:	00000543 	andeq	r0, r0, r3, asr #10
    1600:	000004ec 	andeq	r0, r0, ip, ror #9
    1604:	000be60b 	andeq	lr, fp, fp, lsl #12
    1608:	023d0100 	eorseq	r0, sp, #0
    160c:	00000278 	andeq	r0, r0, r8, ror r2
    1610:	00000563 	andeq	r0, r0, r3, ror #10
    1614:	000abc0b 	andeq	fp, sl, fp, lsl #24
    1618:	023d0100 	eorseq	r0, sp, #0
    161c:	000004ec 	andeq	r0, r0, ip, ror #9
    1620:	00000581 	andeq	r0, r0, r1, lsl #11
    1624:	000fed0b 	andeq	lr, pc, fp, lsl #26
    1628:	023d0100 	eorseq	r0, sp, #0
    162c:	0000007f 	andeq	r0, r0, pc, ror r0
    1630:	0000059f 	muleq	r0, pc, r5	; <UNPREDICTABLE>
    1634:	000b8a0b 	andeq	r8, fp, fp, lsl #20
    1638:	023d0100 	eorseq	r0, sp, #0
    163c:	00000068 	andeq	r0, r0, r8, rrx
    1640:	000005c9 	andeq	r0, r0, r9, asr #11
    1644:	000ad10f 	andeq	sp, sl, pc, lsl #2
    1648:	023f0100 	eorseq	r0, pc, #0
    164c:	00000068 	andeq	r0, r0, r8, rrx
    1650:	000005e7 	andeq	r0, r0, r7, ror #11
    1654:	000c5813 	andeq	r5, ip, r3, lsl r8
    1658:	02400100 	subeq	r0, r0, #0
    165c:	000001b5 			; <UNDEFINED> instruction: 0x000001b5
    1660:	14609102 	strbtne	r9, [r0], #-258	; 0x102
    1664:	00000411 	andeq	r0, r0, r1, lsl r4
    1668:	08000528 	stmdaeq	r0, {r3, r5, r8, sl}
    166c:	08000536 	stmdaeq	r0, {r1, r2, r4, r5, r8, sl}
    1670:	15028801 	strne	r8, [r2, #-2049]	; 0x801
    1674:	00000423 	andeq	r0, r0, r3, lsr #8
    1678:	0000061e 	andeq	r0, r0, lr, lsl r6
    167c:	00052816 	andeq	r2, r5, r6, lsl r8
    1680:	00053608 	andeq	r3, r5, r8, lsl #12
    1684:	042f1708 	strteq	r1, [pc], #-1800	; 168c <vector_table-0x7ffe974>
    1688:	063c0000 	ldrteq	r0, [ip], -r0
    168c:	00000000 	andeq	r0, r0, r0
    1690:	02c80c00 	sbceq	r0, r8, #0
    1694:	010e0000 	mrseq	r0, (UNDEF: 14)
    1698:	000008dc 	ldrdeq	r0, [r0], -ip
    169c:	01038201 	tsteq	r3, r1, lsl #4
    16a0:	00000068 	andeq	r0, r0, r8, rrx
    16a4:	08000576 	stmdaeq	r0, {r1, r2, r4, r5, r6, r8, sl}
    16a8:	080005c8 	stmdaeq	r0, {r3, r6, r7, r8, sl}
    16ac:	00000675 	andeq	r0, r0, r5, ror r6
    16b0:	0000056b 	andeq	r0, r0, fp, ror #10
    16b4:	000be60b 	andeq	lr, fp, fp, lsl #12
    16b8:	03820100 	orreq	r0, r2, #0
    16bc:	00000278 	andeq	r0, r0, r8, ror r2
    16c0:	00000695 	muleq	r0, r5, r6
    16c4:	000abc0b 	andeq	fp, sl, fp, lsl #24
    16c8:	03820100 	orreq	r0, r2, #0
    16cc:	000004ec 	andeq	r0, r0, ip, ror #9
    16d0:	000006b3 			; <UNDEFINED> instruction: 0x000006b3
    16d4:	0009130b 	andeq	r1, r9, fp, lsl #6
    16d8:	03820100 	orreq	r0, r2, #0
    16dc:	0000056b 	andeq	r0, r0, fp, ror #10
    16e0:	000006d1 	ldrdeq	r0, [r0], -r1
    16e4:	000b8a0b 	andeq	r8, fp, fp, lsl #20
    16e8:	03820100 	orreq	r0, r2, #0
    16ec:	00000068 	andeq	r0, r0, r8, rrx
    16f0:	000006ef 	andeq	r0, r0, pc, ror #13
    16f4:	000a3713 	andeq	r3, sl, r3, lsl r7
    16f8:	03840100 	orreq	r0, r4, #0
    16fc:	00000068 	andeq	r0, r0, r8, rrx
    1700:	45185301 	ldrmi	r5, [r8, #-769]	; 0x301
    1704:	0100000b 	tsteq	r0, fp
    1708:	00710385 	rsbseq	r0, r1, r5, lsl #7
    170c:	00000000 	andeq	r0, r0, r0
    1710:	00680408 	rsbeq	r0, r8, r8, lsl #8
    1714:	47100000 	ldrmi	r0, [r0, -r0]
    1718:	01000009 	tsteq	r0, r9
    171c:	6801053f 	stmdavs	r1, {r0, r1, r2, r3, r4, r5, r8, sl}
    1720:	01000000 	mrseq	r0, (UNDEF: 0)
    1724:	0000059c 	muleq	r0, ip, r5
    1728:	000be611 	andeq	lr, fp, r1, lsl r6
    172c:	053f0100 	ldreq	r0, [pc, #-256]!	; 1634 <vector_table-0x7ffe9cc>
    1730:	0000043c 	andeq	r0, r0, ip, lsr r4
    1734:	000a3712 	andeq	r3, sl, r2, lsl r7
    1738:	05410100 	strbeq	r0, [r1, #-256]	; 0x100
    173c:	00000068 	andeq	r0, r0, r8, rrx
    1740:	94010e00 	strls	r0, [r1], #-3584	; 0xe00
    1744:	01000009 	tsteq	r0, r9
    1748:	680103bb 	stmdavs	r1, {r0, r1, r3, r4, r5, r7, r8, r9}
    174c:	c8000000 	stmdagt	r0, {}	; <UNPREDICTABLE>
    1750:	b8080005 	stmdalt	r8, {r0, r2}
    1754:	0d080006 	stceq	0, cr0, [r8, #-24]	; 0xffffffe8
    1758:	57000007 	strpl	r0, [r0, -r7]
    175c:	0b000006 	bleq	177c <vector_table-0x7ffe884>
    1760:	00000be6 	andeq	r0, r0, r6, ror #23
    1764:	7803bb01 	stmdavc	r3, {r0, r8, r9, fp, ip, sp, pc}
    1768:	2d000002 	stccs	0, cr0, [r0, #-8]
    176c:	0b000007 	bleq	1790 <vector_table-0x7ffe870>
    1770:	00000b6e 	andeq	r0, r0, lr, ror #22
    1774:	5703bb01 	strpl	fp, [r3, -r1, lsl #22]
    1778:	4b000006 	blmi	1798 <vector_table-0x7ffe868>
    177c:	0b000007 	bleq	17a0 <vector_table-0x7ffe860>
    1780:	00000fed 	andeq	r0, r0, sp, ror #31
    1784:	7f03bb01 	svcvc	0x0003bb01
    1788:	69000000 	stmdbvs	r0, {}	; <UNPREDICTABLE>
    178c:	0b000007 	bleq	17b0 <vector_table-0x7ffe850>
    1790:	00000a0a 	andeq	r0, r0, sl, lsl #20
    1794:	6803bb01 	stmdavs	r3, {r0, r8, r9, fp, ip, sp, pc}
    1798:	93000000 	movwls	r0, #0
    179c:	0f000007 	svceq	0x00000007
    17a0:	00000ad1 	ldrdeq	r0, [r0], -r1
    17a4:	6803bd01 	stmdavs	r3, {r0, r8, sl, fp, ip, sp, pc}
    17a8:	b1000000 	mrslt	r0, (UNDEF: 0)
    17ac:	13000007 	movwne	r0, #7
    17b0:	00000c58 	andeq	r0, r0, r8, asr ip
    17b4:	b503be01 	strlt	fp, [r3, #-3585]	; 0xe01
    17b8:	02000001 	andeq	r0, r0, #1
    17bc:	a90f6091 	stmdbge	pc, {r0, r4, r7, sp, lr}	; <UNPREDICTABLE>
    17c0:	01000009 	tsteq	r0, r9
    17c4:	026703bf 	rsbeq	r0, r7, #-67108862	; 0xfc000002
    17c8:	07e80000 	strbeq	r0, [r8, r0]!
    17cc:	71140000 	tstvc	r4, r0
    17d0:	70000005 	andvc	r0, r0, r5
    17d4:	7a080006 	bvc	2017f4 <vector_table-0x7dfe80c>
    17d8:	01080006 	tsteq	r8, r6
    17dc:	83150427 	tsthi	r5, #654311424	; 0x27000000
    17e0:	07000005 	streq	r0, [r0, -r5]
    17e4:	16000008 	strne	r0, [r0], -r8
    17e8:	08000670 	stmdaeq	r0, {r4, r5, r6, r9, sl}
    17ec:	0800067a 	stmdaeq	r0, {r1, r3, r4, r5, r6, r9, sl}
    17f0:	00058f17 	andeq	r8, r5, r7, lsl pc
    17f4:	00082500 	andeq	r2, r8, r0, lsl #10
    17f8:	00000000 	andeq	r0, r0, r0
    17fc:	00006f0c 	andeq	r6, r0, ip, lsl #30
    1800:	4c010e00 	stcmi	14, cr0, [r1], {-0}
    1804:	0100000a 	tsteq	r0, sl
    1808:	68010451 	stmdavs	r1, {r0, r4, r6, sl}
    180c:	b8000000 	stmdalt	r0, {}	; <UNPREDICTABLE>
    1810:	04080006 	streq	r0, [r8], #-6
    1814:	4b080007 	blmi	201838 <vector_table-0x7dfe7c8>
    1818:	c6000008 	strgt	r0, [r0], -r8
    181c:	0b000006 	bleq	183c <vector_table-0x7ffe7c4>
    1820:	00000be6 	andeq	r0, r0, r6, ror #23
    1824:	78045101 	stmdavc	r4, {r0, r8, ip, lr}
    1828:	6b000002 	blvs	1838 <vector_table-0x7ffe7c8>
    182c:	0b000008 	bleq	1854 <vector_table-0x7ffe7ac>
    1830:	00000b6e 	andeq	r0, r0, lr, ror #22
    1834:	57045101 	strpl	r5, [r4, -r1, lsl #2]
    1838:	89000006 	stmdbhi	r0, {r1, r2}
    183c:	0b000008 	bleq	1864 <vector_table-0x7ffe79c>
    1840:	000009cb 	andeq	r0, r0, fp, asr #19
    1844:	6b045101 	blvs	115c50 <vector_table-0x7eea3b0>
    1848:	9c000005 	stcls	0, cr0, [r0], {5}
    184c:	13000008 	movwne	r0, #8
    1850:	00000a37 	andeq	r0, r0, r7, lsr sl
    1854:	68045301 	stmdavs	r4, {r0, r8, r9, ip, lr}
    1858:	01000000 	mrseq	r0, (UNDEF: 0)
    185c:	0b451853 	bleq	11479b0 <vector_table-0x6eb8650>
    1860:	54010000 	strpl	r0, [r1], #-0
    1864:	00007104 	andeq	r7, r0, r4, lsl #2
    1868:	0e000000 	cdpeq	0, 0, cr0, cr0, cr0, {0}
    186c:	0008f501 	andeq	pc, r8, r1, lsl #10
    1870:	04880100 	streq	r0, [r8], #256	; 0x100
    1874:	00007101 	andeq	r7, r0, r1, lsl #2
    1878:	00070400 	andeq	r0, r7, r0, lsl #8
    187c:	00071608 	andeq	r1, r7, r8, lsl #12
    1880:	0008ba08 	andeq	fp, r8, r8, lsl #20
    1884:	00070300 	andeq	r0, r7, r0, lsl #6
    1888:	0be60b00 	bleq	ff984490 <_estack+0xdf980494>
    188c:	88010000 	stmdahi	r1, {}	; <UNPREDICTABLE>
    1890:	00043c04 	andeq	r3, r4, r4, lsl #24
    1894:	0008da00 	andeq	sp, r8, r0, lsl #20
    1898:	0a361300 	beq	d864a0 <vector_table-0x7279b60>
    189c:	8a010000 	bhi	418a4 <vector_table-0x7fbe75c>
    18a0:	00007104 	andeq	r7, r0, r4, lsl #2
    18a4:	00540100 	subseq	r0, r4, r0, lsl #2
    18a8:	0a9e0119 	beq	fe781d14 <_estack+0xde77dd18>
    18ac:	96010000 	strls	r0, [r1], -r0
    18b0:	00710104 	rsbseq	r0, r1, r4, lsl #2
    18b4:	07160000 	ldreq	r0, [r6, -r0]
    18b8:	071a0800 	ldreq	r0, [sl, -r0, lsl #16]
    18bc:	7d020800 	stcvc	8, cr0, [r2, #-0]
    18c0:	00073f00 	andeq	r3, r7, r0, lsl #30
    18c4:	0be60b00 	bleq	ff9844cc <_estack+0xdf9804d0>
    18c8:	96010000 	strls	r0, [r1], -r0
    18cc:	00043c04 	andeq	r3, r4, r4, lsl #24
    18d0:	0008f800 	andeq	pc, r8, r0, lsl #16
    18d4:	0a361300 	beq	d864dc <vector_table-0x7279b24>
    18d8:	98010000 	stmdals	r1, {}	; <UNPREDICTABLE>
    18dc:	00007104 	andeq	r7, r0, r4, lsl #2
    18e0:	00500100 	subseq	r0, r0, r0, lsl #2
    18e4:	09e6011a 	stmibeq	r6!, {r1, r3, r4, r8}^
    18e8:	a2010000 	andge	r0, r1, #0
    18ec:	071a0104 	ldreq	r0, [sl, -r4, lsl #2]
    18f0:	072e0800 	streq	r0, [lr, -r0, lsl #16]!
    18f4:	090b0800 	stmdbeq	fp, {fp}
    18f8:	076a0000 	strbeq	r0, [sl, -r0]!
    18fc:	e60b0000 	str	r0, [fp], -r0
    1900:	0100000b 	tsteq	r0, fp
    1904:	027804a2 	rsbseq	r0, r8, #-1577058304	; 0xa2000000
    1908:	092b0000 	stmdbeq	fp!, {}	; <UNPREDICTABLE>
    190c:	19000000 	stmdbne	r0, {}	; <UNPREDICTABLE>
    1910:	00092d01 	andeq	r2, r9, r1, lsl #26
    1914:	054b0100 	strbeq	r0, [fp, #-256]	; 0x100
    1918:	00006801 	andeq	r6, r0, r1, lsl #16
    191c:	00072e00 	andeq	r2, r7, r0, lsl #28
    1920:	00073a08 	andeq	r3, r7, r8, lsl #20
    1924:	007d0208 	rsbseq	r0, sp, r8, lsl #4
    1928:	000007a8 	andeq	r0, r0, r8, lsr #15
    192c:	000be60b 	andeq	lr, fp, fp, lsl #12
    1930:	054b0100 	strbeq	r0, [fp, #-256]	; 0x100
    1934:	0000043c 	andeq	r0, r0, ip, lsr r4
    1938:	00000949 	andeq	r0, r0, r9, asr #18
    193c:	000a370f 	andeq	r3, sl, pc, lsl #14
    1940:	054d0100 	strbeq	r0, [sp, #-256]	; 0x100
    1944:	00000068 	andeq	r0, r0, r8, rrx
    1948:	0000095c 	andeq	r0, r0, ip, asr r9
    194c:	ef011b00 	svc	0x00011b00
    1950:	0100000a 	tsteq	r0, sl
    1954:	68010562 	stmdavs	r1, {r1, r5, r6, r8, sl}
    1958:	3a000000 	bcc	1960 <vector_table-0x7ffe6a0>
    195c:	48080007 	stmdami	r8, {r0, r1, r2}
    1960:	02080007 	andeq	r0, r8, #7
    1964:	e60b007d 			; <UNDEFINED> instruction: 0xe60b007d
    1968:	0100000b 	tsteq	r0, fp
    196c:	043c0562 	ldrteq	r0, [ip], #-1378	; 0x562
    1970:	09730000 	ldmdbeq	r3!, {}^	; <UNPREDICTABLE>
    1974:	370f0000 	strcc	r0, [pc, -r0]
    1978:	0100000a 	tsteq	r0, sl
    197c:	00680564 	rsbeq	r0, r8, r4, ror #10
    1980:	09860000 	stmibeq	r6, {}	; <UNPREDICTABLE>
    1984:	00000000 	andeq	r0, r0, r0
    1988:	000009f3 	strdeq	r0, [r0], -r3
    198c:	06360002 	ldrteq	r0, [r6], -r2
    1990:	01040000 	mrseq	r0, (UNDEF: 4)
    1994:	0000044a 	andeq	r0, r0, sl, asr #8
    1998:	000d1401 	andeq	r1, sp, r1, lsl #8
    199c:	00010200 	andeq	r0, r1, r0, lsl #4
    19a0:	00074800 	andeq	r4, r7, r0, lsl #16
    19a4:	000cbc08 	andeq	fp, ip, r8, lsl #24
    19a8:	00066208 	andeq	r6, r6, r8, lsl #4
    19ac:	090c0200 	stmdbeq	ip, {r9}
    19b0:	d3020000 	movwle	r0, #8192	; 0x2000
    19b4:	00000030 	andeq	r0, r0, r0, lsr r0
    19b8:	65070403 	strvs	r0, [r7, #-1027]	; 0x403
    19bc:	04000000 	streq	r0, [r0], #-0
    19c0:	06010304 	streq	r0, [r1], -r4, lsl #6
    19c4:	000002f0 	strdeq	r0, [r0], -r0	; <UNPREDICTABLE>
    19c8:	ee080103 	adfe	f0, f0, f3
    19cc:	03000002 	movweq	r0, #2
    19d0:	03020502 	movweq	r0, #9474	; 0x2502
    19d4:	02030000 	andeq	r0, r3, #0
    19d8:	00022d07 	andeq	r2, r2, r7, lsl #26
    19dc:	05040500 	streq	r0, [r4, #-1280]	; 0x500
    19e0:	00746e69 	rsbseq	r6, r4, r9, ror #28
    19e4:	a1050803 	tstge	r5, r3, lsl #16
    19e8:	03000000 	movweq	r0, #0
    19ec:	005b0708 	subseq	r0, fp, r8, lsl #14
    19f0:	04030000 	streq	r0, [r3], #-0
    19f4:	0000a605 	andeq	sl, r0, r5, lsl #12
    19f8:	07040300 	streq	r0, [r4, -r0, lsl #6]
    19fc:	00000060 	andeq	r0, r0, r0, rrx
    1a00:	f7080103 			; <UNDEFINED> instruction: 0xf7080103
    1a04:	02000002 	andeq	r0, r0, #2
    1a08:	00000f2a 	andeq	r0, r0, sl, lsr #30
    1a0c:	008a4703 	addeq	r4, sl, r3, lsl #14
    1a10:	04060000 	streq	r0, [r6], #-0
    1a14:	00000090 	muleq	r0, r0, r0
    1a18:	009c0107 	addseq	r0, ip, r7, lsl #2
    1a1c:	37080000 	strcc	r0, [r8, -r0]
    1a20:	00000000 	andeq	r0, r0, r0
    1a24:	0004e502 	andeq	lr, r4, r2, lsl #10
    1a28:	71620400 	cmnvc	r2, r0, lsl #8
    1a2c:	09000000 	stmdbeq	r0, {}	; <UNPREDICTABLE>
    1a30:	00000572 	andeq	r0, r0, r2, ror r5
    1a34:	fa690514 	blx	1a42e8c <vector_table-0x65bd174>
    1a38:	0a000000 	beq	1a40 <vector_table-0x7ffe5c0>
    1a3c:	00000559 	andeq	r0, r0, r9, asr r5
    1a40:	009c6b05 	addseq	r6, ip, r5, lsl #22
    1a44:	23020000 	movwcs	r0, #8192	; 0x2000
    1a48:	05a20a00 	streq	r0, [r2, #2560]!	; 0xa00
    1a4c:	6c050000 	stcvs	0, cr0, [r5], {-0}
    1a50:	000000fa 	strdeq	r0, [r0], -sl
    1a54:	0a042302 	beq	10a664 <vector_table-0x7ef599c>
    1a58:	000004f2 	strdeq	r0, [r0], -r2
    1a5c:	00fa6d05 	rscseq	r6, sl, r5, lsl #26
    1a60:	23020000 	movwcs	r0, #8192	; 0x2000
    1a64:	05190a08 	ldreq	r0, [r9, #-2568]	; 0xa08
    1a68:	6e050000 	cdpvs	0, 0, cr0, cr5, cr0, {0}
    1a6c:	00000037 	andeq	r0, r0, r7, lsr r0
    1a70:	0a0c2302 	beq	30a680 <vector_table-0x7cf5980>
    1a74:	0000058b 	andeq	r0, r0, fp, lsl #11
    1a78:	00376f05 	eorseq	r6, r7, r5, lsl #30
    1a7c:	23020000 	movwcs	r0, #8192	; 0x2000
    1a80:	04060010 	streq	r0, [r6], #-16
    1a84:	00000100 	andeq	r0, r0, r0, lsl #2
    1a88:	0000a70b 	andeq	sl, r0, fp, lsl #14
    1a8c:	05c70200 	strbeq	r0, [r7, #512]	; 0x200
    1a90:	71050000 	mrsvc	r0, (UNDEF: 5)
    1a94:	000000a7 	andeq	r0, r0, r7, lsr #1
    1a98:	0005f009 	andeq	pc, r5, r9
    1a9c:	73050c00 	movwvc	r0, #23552	; 0x5c00
    1aa0:	00000147 	andeq	r0, r0, r7, asr #2
    1aa4:	0005590a 	andeq	r5, r5, sl, lsl #18
    1aa8:	9c750500 	cfldr64ls	mvdx0, [r5], #-0
    1aac:	02000000 	andeq	r0, r0, #0
    1ab0:	a20a0023 	andge	r0, sl, #35	; 0x23
    1ab4:	05000005 	streq	r0, [r0, #-5]
    1ab8:	0000fa76 	andeq	pc, r0, r6, ror sl	; <UNPREDICTABLE>
    1abc:	04230200 	strteq	r0, [r3], #-512	; 0x200
    1ac0:	0004f20a 	andeq	pc, r4, sl, lsl #4
    1ac4:	fa770500 	blx	1dc2ecc <vector_table-0x623d134>
    1ac8:	02000000 	andeq	r0, r0, #0
    1acc:	02000823 	andeq	r0, r0, #2293760	; 0x230000
    1ad0:	0000057d 	andeq	r0, r0, sp, ror r5
    1ad4:	01107905 	tsteq	r0, r5, lsl #18
    1ad8:	53090000 	movwpl	r0, #36864	; 0x9000
    1adc:	14000005 	strne	r0, [r0], #-5
    1ae0:	01897e05 	orreq	r7, r9, r5, lsl #28
    1ae4:	fd0a0000 	stc2	0, cr0, [sl, #-0]
    1ae8:	05000004 	streq	r0, [r0, #-4]
    1aec:	00018980 	andeq	r8, r1, r0, lsl #19
    1af0:	00230200 	eoreq	r0, r3, r0, lsl #4
    1af4:	0005e80a 	andeq	lr, r5, sl, lsl #16
    1af8:	8e810500 	cdphi	5, 8, cr0, cr1, cr0, {0}
    1afc:	02000001 	andeq	r0, r0, #1
    1b00:	d80a0423 	stmdale	sl, {r0, r1, r5, sl}
    1b04:	05000005 	streq	r0, [r0, #-5]
    1b08:	00019982 	andeq	r9, r1, r2, lsl #19
    1b0c:	08230200 	stmdaeq	r3!, {r9}
    1b10:	00710b00 	rsbseq	r0, r1, r0, lsl #22
    1b14:	04060000 	streq	r0, [r6], #-0
    1b18:	00000194 	muleq	r0, r4, r1
    1b1c:	0001050b 	andeq	r0, r1, fp, lsl #10
    1b20:	01470b00 	cmpeq	r7, r0, lsl #22
    1b24:	d2020000 	andle	r0, r2, #0
    1b28:	05000005 	streq	r0, [r0, #-5]
    1b2c:	00015283 	andeq	r5, r1, r3, lsl #5
    1b30:	00b50200 	adcseq	r0, r5, r0, lsl #4
    1b34:	63060000 	movwvs	r0, #24576	; 0x6000
    1b38:	00000037 	andeq	r0, r0, r7, lsr r0
    1b3c:	00098a09 	andeq	r8, r9, r9, lsl #20
    1b40:	68060800 	stmdavs	r6, {fp}
    1b44:	000001dd 	ldrdeq	r0, [r0], -sp
    1b48:	0009d70a 	andeq	sp, r9, sl, lsl #14
    1b4c:	6a6a0600 	bvs	1a83354 <vector_table-0x657ccac>
    1b50:	02000000 	andeq	r0, r0, #0
    1b54:	fa0a0023 	blx	281be8 <vector_table-0x7d7e418>
    1b58:	06000009 	streq	r0, [r0], -r9
    1b5c:	00009c6b 	andeq	r9, r0, fp, ror #24
    1b60:	04230200 	strteq	r0, [r3], #-512	; 0x200
    1b64:	0a290200 	beq	a4236c <vector_table-0x75bdc94>
    1b68:	6c060000 	stcvs	0, cr0, [r6], {-0}
    1b6c:	000001b4 			; <UNDEFINED> instruction: 0x000001b4
    1b70:	000d8409 	andeq	r8, sp, r9, lsl #8
    1b74:	71060c00 	tstvc	r6, r0, lsl #24
    1b78:	0000021f 	andeq	r0, r0, pc, lsl r2
    1b7c:	0010280a 	andseq	r2, r0, sl, lsl #16
    1b80:	37730600 	ldrbcc	r0, [r3, -r0, lsl #12]!
    1b84:	02000000 	andeq	r0, r0, #0
    1b88:	4e0a0023 	cdpmi	0, 0, cr0, cr10, cr3, {1}
    1b8c:	0600000e 	streq	r0, [r0], -lr
    1b90:	00007174 	andeq	r7, r0, r4, ror r1
    1b94:	04230200 	strteq	r0, [r3], #-512	; 0x200
    1b98:	000df30a 	andeq	pc, sp, sl, lsl #6
    1b9c:	71750600 	cmnvc	r5, r0, lsl #12
    1ba0:	02000000 	andeq	r0, r0, #0
    1ba4:	02000823 	andeq	r0, r0, #2293760	; 0x230000
    1ba8:	00000ee4 	andeq	r0, r0, r4, ror #29
    1bac:	01e87606 	mvneq	r7, r6, lsl #12
    1bb0:	2f0c0000 	svccs	0x000c0000
    1bb4:	06000002 	streq	r0, [r0], -r2
    1bb8:	00023504 	andeq	r3, r2, r4, lsl #10
    1bbc:	00390c00 	eorseq	r0, r9, r0, lsl #24
    1bc0:	04060000 	streq	r0, [r6], #-0
    1bc4:	00000071 	andeq	r0, r0, r1, ror r0
    1bc8:	000c6c09 	andeq	r6, ip, r9, lsl #24
    1bcc:	5d014400 	cfstrspl	mvf4, [r1, #-0]
    1bd0:	000002a1 	andeq	r0, r0, r1, lsr #5
    1bd4:	000d430a 	andeq	r4, sp, sl, lsl #6
    1bd8:	a15f0100 	cmpge	pc, r0, lsl #2
    1bdc:	02000002 	andeq	r0, r0, #2
    1be0:	8b0a0023 	blhi	281c74 <vector_table-0x7d7e38c>
    1be4:	01000008 	tsteq	r0, r8
    1be8:	00010565 	andeq	r0, r1, r5, ror #10
    1bec:	04230200 	strteq	r0, [r3], #-512	; 0x200
    1bf0:	00089c0a 	andeq	r9, r8, sl, lsl #24
    1bf4:	05660100 	strbeq	r0, [r6, #-256]!	; 0x100
    1bf8:	02000001 	andeq	r0, r0, #1
    1bfc:	870a1823 	strhi	r1, [sl, -r3, lsr #16]
    1c00:	01000007 	tsteq	r0, r7
    1c04:	00007167 	andeq	r7, r0, r7, ror #2
    1c08:	2c230200 	sfmcs	f0, 4, [r3], #-0
    1c0c:	000dbf0a 	andeq	fp, sp, sl, lsl #30
    1c10:	3a680100 	bcc	1a02018 <vector_table-0x65fdfe8>
    1c14:	02000002 	andeq	r0, r0, #2
    1c18:	240a3023 	strcs	r3, [sl], #-35	; 0x23
    1c1c:	01000004 	tsteq	r0, r4
    1c20:	0002a769 	andeq	sl, r2, r9, ror #14
    1c24:	34230200 	strtcc	r0, [r3], #-512	; 0x200
    1c28:	89040600 	stmdbhi	r4, {r9, sl}
    1c2c:	0d000001 	stceq	0, cr0, [r0, #-4]
    1c30:	00000039 	andeq	r0, r0, r9, lsr r0
    1c34:	000002b7 			; <UNDEFINED> instruction: 0x000002b7
    1c38:	0000300e 	andeq	r3, r0, lr
    1c3c:	02000f00 	andeq	r0, r0, #0
    1c40:	00000d5b 	andeq	r0, r0, fp, asr sp
    1c44:	02408401 	subeq	r8, r0, #16777216	; 0x1000000
    1c48:	c40f0000 	strgt	r0, [pc], #-0	; 1c50 <vector_table-0x7ffe3b0>
    1c4c:	0100000e 	tsteq	r0, lr
    1c50:	01010815 	tsteq	r1, r5, lsl r8
    1c54:	000c0310 	andeq	r0, ip, r0, lsl r3
    1c58:	079f0100 	ldreq	r0, [pc, r0, lsl #2]
    1c5c:	03170101 	tsteq	r7, #1073741824	; 0x40000000
    1c60:	62110000 	andsvs	r0, r1, #0
    1c64:	0100000d 	tsteq	r0, sp
    1c68:	0317079f 	tsteq	r7, #41680896	; 0x27c0000
    1c6c:	0c110000 	ldceq	0, cr0, [r1], {-0}
    1c70:	01000010 	tsteq	r0, r0, lsl r0
    1c74:	022a079f 	eoreq	r0, sl, #41680896	; 0x27c0000
    1c78:	87110000 	ldrhi	r0, [r1, -r0]
    1c7c:	01000007 	tsteq	r0, r7
    1c80:	0071079f 			; <UNDEFINED> instruction: 0x0071079f
    1c84:	00110000 	andseq	r0, r1, r0
    1c88:	0100000e 	tsteq	r0, lr
    1c8c:	031d079f 	tsteq	sp, #41680896	; 0x27c0000
    1c90:	b9110000 	ldmdblt	r1, {}	; <UNPREDICTABLE>
    1c94:	0100000c 	tsteq	r0, ip
    1c98:	004e079f 	umaaleq	r0, lr, pc, r7	; <UNPREDICTABLE>
    1c9c:	06000000 	streq	r0, [r0], -r0
    1ca0:	0002b704 	andeq	fp, r2, r4, lsl #14
    1ca4:	03220c00 	teqeq	r2, #0
    1ca8:	04060000 	streq	r0, [r6], #-0
    1cac:	00000328 	andeq	r0, r0, r8, lsr #6
    1cb0:	00021f0c 	andeq	r1, r2, ip, lsl #30
    1cb4:	0ef21200 	cdpeq	2, 15, cr1, cr2, cr0, {0}
    1cb8:	38010000 	stmdacc	r1, {}	; <UNPREDICTABLE>
    1cbc:	07480108 	strbeq	r0, [r8, -r8, lsl #2]
    1cc0:	07840800 	streq	r0, [r4, r0, lsl #16]
    1cc4:	099f0800 	ldmibeq	pc, {fp}	; <UNPREDICTABLE>
    1cc8:	03570000 	cmpeq	r7, #0
    1ccc:	01130000 	tsteq	r3, r0
    1cd0:	01000008 	tsteq	r0, r8
    1cd4:	009c0838 	addseq	r0, ip, r8, lsr r8
    1cd8:	09bf0000 	ldmibeq	pc!, {}	; <UNPREDICTABLE>
    1cdc:	12000000 	andne	r0, r0, #0
    1ce0:	00000da0 	andeq	r0, r0, r0, lsr #27
    1ce4:	01075e01 	tsteq	r7, r1, lsl #28
    1ce8:	08000784 	stmdaeq	r0, {r2, r7, r8, r9, sl}
    1cec:	08000798 	stmdaeq	r0, {r3, r4, r7, r8, r9, sl}
    1cf0:	000009dd 	ldrdeq	r0, [r0], -sp
    1cf4:	00000381 	andeq	r0, r0, r1, lsl #7
    1cf8:	0001ef13 	andeq	lr, r1, r3, lsl pc
    1cfc:	075e0100 	ldrbeq	r0, [lr, -r0, lsl #2]
    1d00:	00000037 	andeq	r0, r0, r7, lsr r0
    1d04:	000009fd 	strdeq	r0, [r0], -sp
    1d08:	0ca21400 	cfstrseq	mvf1, [r2]
    1d0c:	52010000 	andpl	r0, r1, #0
    1d10:	03170108 	tsteq	r7, #2
    1d14:	b8010000 	stmdalt	r1, {}	; <UNPREDICTABLE>
    1d18:	11000003 	tstne	r0, r3
    1d1c:	00000cb9 			; <UNDEFINED> instruction: 0x00000cb9
    1d20:	4e085201 	cdpmi	2, 0, cr5, cr8, cr1, {0}
    1d24:	11000000 	mrsne	r0, (UNDEF: 0)
    1d28:	00000cc6 	andeq	r0, r0, r6, asr #25
    1d2c:	3a085201 	bcc	216538 <vector_table-0x7de9ac8>
    1d30:	15000002 	strne	r0, [r0, #-2]
    1d34:	00000c80 	andeq	r0, r0, r0, lsl #25
    1d38:	17085401 	strne	r5, [r8, -r1, lsl #8]
    1d3c:	00000003 	andeq	r0, r0, r3
    1d40:	00103610 	andseq	r3, r0, r0, lsl r6
    1d44:	07f50100 	ldrbeq	r0, [r5, r0, lsl #2]!
    1d48:	03d30101 	bicseq	r0, r3, #1073741824	; 0x40000000
    1d4c:	87150000 	ldrhi	r0, [r5, -r0]
    1d50:	01000007 	tsteq	r0, r7
    1d54:	007107f7 	ldrshteq	r0, [r1], #-119	; 0xffffff89
    1d58:	16000000 	strne	r0, [r0], -r0
    1d5c:	000c3401 	andeq	r3, ip, r1, lsl #8
    1d60:	018c0100 	orreq	r0, ip, r0, lsl #2
    1d64:	00006a01 	andeq	r6, r0, r1, lsl #20
    1d68:	00079800 	andeq	r9, r7, r0, lsl #16
    1d6c:	00091408 	andeq	r1, r9, r8, lsl #8
    1d70:	000a1008 	andeq	r1, sl, r8
    1d74:	00052b00 	andeq	r2, r5, r0, lsl #22
    1d78:	0e1b1300 	cdpeq	3, 1, cr1, cr11, cr0, {0}
    1d7c:	8c010000 	stchi	0, cr0, [r1], {-0}
    1d80:	00007f01 	andeq	r7, r0, r1, lsl #30
    1d84:	000a3000 	andeq	r3, sl, r0
    1d88:	100c1300 	andne	r1, ip, r0, lsl #6
    1d8c:	8c010000 	stchi	0, cr0, [r1], {-0}
    1d90:	00022a01 	andeq	r2, r2, r1, lsl #20
    1d94:	000a5900 	andeq	r5, sl, r0, lsl #18
    1d98:	0cb91300 	ldceq	3, cr1, [r9]
    1d9c:	8c010000 	stchi	0, cr0, [r1], {-0}
    1da0:	00004e01 	andeq	r4, r0, r1, lsl #28
    1da4:	000a8200 	andeq	r8, sl, r0, lsl #4
    1da8:	01ef1300 	mvneq	r1, r0, lsl #6
    1dac:	8c010000 	stchi	0, cr0, [r1], {-0}
    1db0:	00003701 	andeq	r3, r0, r1, lsl #14
    1db4:	000a9500 	andeq	r9, sl, r0, lsl #10
    1db8:	07871700 	streq	r1, [r7, r0, lsl #14]
    1dbc:	8c010000 	stchi	0, cr0, [r1], {-0}
    1dc0:	00007101 	andeq	r7, r0, r1, lsl #2
    1dc4:	00910200 	addseq	r0, r1, r0, lsl #4
    1dc8:	000d3517 	andeq	r3, sp, r7, lsl r5
    1dcc:	018c0100 	orreq	r0, ip, r0, lsl #2
    1dd0:	0000052b 	andeq	r0, r0, fp, lsr #10
    1dd4:	17049102 	strne	r9, [r4, -r2, lsl #2]
    1dd8:	00000cc6 	andeq	r0, r0, r6, asr #25
    1ddc:	3a018c01 	bcc	64de8 <vector_table-0x7f9b218>
    1de0:	02000002 	andeq	r0, r0, #2
    1de4:	00170891 	mulseq	r7, r1, r8
    1de8:	0100000e 	tsteq	r0, lr
    1dec:	031d018c 	tsteq	sp, #35	; 0x23
    1df0:	91020000 	mrsls	r0, (UNDEF: 2)
    1df4:	0a37180c 	beq	dc7e2c <vector_table-0x72381d4>
    1df8:	8e010000 	cdphi	0, 0, cr0, cr1, cr0, {0}
    1dfc:	00006a01 	andeq	r6, r0, r1, lsl #20
    1e00:	000ac900 	andeq	ip, sl, r0, lsl #18
    1e04:	0c801900 	stceq	9, cr1, [r0], {0}
    1e08:	8f010000 	svchi	0x00010000
    1e0c:	00031701 	andeq	r1, r3, r1, lsl #14
    1e10:	1a560100 	bne	1582218 <vector_table-0x6a7dde8>
    1e14:	00000381 	andeq	r0, r0, r1, lsl #7
    1e18:	0800079e 	stmdaeq	r0, {r1, r2, r3, r4, r7, r8, r9, sl}
    1e1c:	00000018 	andeq	r0, r0, r8, lsl r0
    1e20:	c0019601 	andgt	r9, r1, r1, lsl #12
    1e24:	1b000004 	blne	1e3c <vector_table-0x7ffe1c4>
    1e28:	0000039f 	muleq	r0, pc, r3	; <UNPREDICTABLE>
    1e2c:	1c089102 	stfned	f1, [r8], {2}
    1e30:	00000393 	muleq	r0, r3, r3
    1e34:	00000ae9 	andeq	r0, r0, r9, ror #21
    1e38:	0000381d 	andeq	r3, r0, sp, lsl r8
    1e3c:	03ab1e00 			; <UNDEFINED> instruction: 0x03ab1e00
    1e40:	0b120000 	bleq	481e48 <vector_table-0x7b7e1b8>
    1e44:	00000000 	andeq	r0, r0, r0
    1e48:	0007e61f 	andeq	lr, r7, pc, lsl r6
    1e4c:	0008e608 	andeq	lr, r8, r8, lsl #12
    1e50:	0d431808 	stcleq	8, cr1, [r3, #-32]	; 0xffffffe0
    1e54:	9a010000 	bls	41e5c <vector_table-0x7fbe1a4>
    1e58:	00023a01 	andeq	r3, r2, r1, lsl #20
    1e5c:	000b5200 	andeq	r5, fp, r0, lsl #4
    1e60:	02cc1a00 	sbceq	r1, ip, #0
    1e64:	07e80000 	strbeq	r0, [r8, r0]!
    1e68:	00580800 	subseq	r0, r8, r0, lsl #16
    1e6c:	c5010000 	strgt	r0, [r1, #-0]
    1e70:	00050501 	andeq	r0, r5, r1, lsl #10
    1e74:	02f21c00 	rscseq	r1, r2, #0
    1e78:	0b960000 	bleq	fe581e80 <_estack+0xde57de84>
    1e7c:	e6200000 	strt	r0, [r0], -r0
    1e80:	1c000002 	stcne	0, cr0, [r0], {2}
    1e84:	000002da 	ldrdeq	r0, [r0], -sl
    1e88:	00000bb4 			; <UNDEFINED> instruction: 0x00000bb4
    1e8c:	03b82100 			; <UNDEFINED> instruction: 0x03b82100
    1e90:	08600000 	stmdaeq	r0!, {}^	; <UNPREDICTABLE>
    1e94:	089e0800 	ldmeq	lr, {fp}
    1e98:	f0010800 			; <UNDEFINED> instruction: 0xf0010800
    1e9c:	08601f01 	stmdaeq	r0!, {r0, r8, r9, sl, fp, ip}^
    1ea0:	089e0800 	ldmeq	lr, {fp}
    1ea4:	c61e0800 	ldrgt	r0, [lr], -r0, lsl #16
    1ea8:	d2000003 	andle	r0, r0, #3
    1eac:	0000000b 	andeq	r0, r0, fp
    1eb0:	06000000 	streq	r0, [r0], -r0
    1eb4:	0001a904 	andeq	sl, r1, r4, lsl #18
    1eb8:	d5012200 	strle	r2, [r1, #-512]	; 0x200
    1ebc:	0100000c 	tsteq	r0, ip
    1ec0:	14010421 	strne	r0, [r1], #-1057	; 0x421
    1ec4:	5c080009 	stcpl	0, cr0, [r8], {9}
    1ec8:	e5080009 	str	r0, [r8, #-9]
    1ecc:	5c00000b 	stcpl	0, cr0, [r0], {11}
    1ed0:	18000005 	stmdane	r0, {r0, r2}
    1ed4:	00000a37 	andeq	r0, r0, r7, lsr sl
    1ed8:	6a042301 	bvs	10aae4 <vector_table-0x7ef551c>
    1edc:	05000000 	streq	r0, [r0, #-0]
    1ee0:	0000000c 	andeq	r0, r0, ip
    1ee4:	0e920123 	fmleqsp	f0, f2, f3
    1ee8:	62010000 	andvs	r0, r1, #0
    1eec:	095c0104 	ldmdbeq	ip, {r2, r8}^
    1ef0:	09740800 	ldmdbeq	r4!, {fp}^
    1ef4:	7d020800 	stcvc	8, cr0, [r2, #-0]
    1ef8:	ce012300 	cdpgt	3, 0, cr2, cr1, cr0, {0}
    1efc:	0100000f 	tsteq	r0, pc
    1f00:	7401046d 	strvc	r0, [r1], #-1133	; 0x46d
    1f04:	88080009 	stmdahi	r8, {r0, r3}
    1f08:	02080009 	andeq	r0, r8, #9
    1f0c:	0116007d 	tsteq	r6, sp, ror r0
    1f10:	00000f36 	andeq	r0, r0, r6, lsr pc
    1f14:	0104cc01 	tsteq	r4, r1, lsl #24
    1f18:	0000009c 	muleq	r0, ip, r0
    1f1c:	08000988 	stmdaeq	r0, {r3, r7, r8, fp}
    1f20:	080009a0 	stmdaeq	r0, {r5, r7, r8, fp}
    1f24:	00000c2e 	andeq	r0, r0, lr, lsr #24
    1f28:	000005b3 			; <UNDEFINED> instruction: 0x000005b3
    1f2c:	000fc719 	andeq	ip, pc, r9, lsl r7	; <UNPREDICTABLE>
    1f30:	04ce0100 	strbeq	r0, [lr], #256	; 0x100
    1f34:	0000009c 	muleq	r0, ip, r0
    1f38:	24005401 	strcs	r5, [r0], #-1025	; 0x401
    1f3c:	000c8901 	andeq	r8, ip, r1, lsl #18
    1f40:	04db0100 	ldrbeq	r0, [fp], #256	; 0x100
    1f44:	00009c01 	andeq	r9, r0, r1, lsl #24
    1f48:	0009a000 	andeq	sl, r9, r0
    1f4c:	0009bc08 	andeq	fp, r9, r8, lsl #24
    1f50:	007d0208 	rsbseq	r0, sp, r8, lsl #4
    1f54:	000005ec 	andeq	r0, r0, ip, ror #11
    1f58:	000a3719 	andeq	r3, sl, r9, lsl r7
    1f5c:	04dd0100 	ldrbeq	r0, [sp], #256	; 0x100
    1f60:	0000009c 	muleq	r0, ip, r0
    1f64:	45255301 	strmi	r5, [r5, #-769]!	; 0x301
    1f68:	0100000b 	tsteq	r0, fp
    1f6c:	007104de 	ldrsbteq	r0, [r1], #-78	; 0xffffffb2
    1f70:	00000000 	andeq	r0, r0, r0
    1f74:	0f7c0126 	svceq	0x007c0126
    1f78:	e8010000 	stmda	r1, {}	; <UNPREDICTABLE>
    1f7c:	00710104 	rsbseq	r0, r1, r4, lsl #2
    1f80:	09bc0000 	ldmibeq	ip!, {}	; <UNPREDICTABLE>
    1f84:	09c80800 	stmibeq	r8, {fp}^
    1f88:	7d020800 	stcvc	8, cr0, [r2, #-0]
    1f8c:	6d012200 	sfmvs	f2, 4, [r1, #-0]
    1f90:	0100000e 	tsteq	r0, lr
    1f94:	c801059a 	stmdagt	r1, {r1, r3, r4, r7, r8, sl}
    1f98:	7c080009 	stcvc	0, cr0, [r8], {9}
    1f9c:	4e08000a 	cdpmi	0, 0, cr0, cr8, cr10, {0}
    1fa0:	6800000c 	stmdavs	r0, {r2, r3}
    1fa4:	18000006 	stmdane	r0, {r1, r2}
    1fa8:	00000d62 	andeq	r0, r0, r2, ror #26
    1fac:	17059c01 	strne	r9, [r5, -r1, lsl #24]
    1fb0:	6e000003 	cdpvs	0, 0, cr0, cr0, cr3, {0}
    1fb4:	2700000c 	strcs	r0, [r0, -ip]
    1fb8:	080009e2 	stmdaeq	r0, {r1, r5, r6, r7, r8, fp}
    1fbc:	08000a08 	stmdaeq	r0, {r3, r9, fp}
    1fc0:	0000064d 	andeq	r0, r0, sp, asr #12
    1fc4:	00062418 	andeq	r2, r6, r8, lsl r4
    1fc8:	05a60100 	streq	r0, [r6, #256]!	; 0x100
    1fcc:	00000668 	andeq	r0, r0, r8, ror #12
    1fd0:	00000c97 	muleq	r0, r7, ip
    1fd4:	0a081f00 	beq	209bdc <vector_table-0x7df6424>
    1fd8:	0a620800 	beq	1883fe0 <vector_table-0x677c020>
    1fdc:	59180800 	ldmdbpl	r8, {fp}
    1fe0:	01000005 	tsteq	r0, r5
    1fe4:	009c05c7 	addseq	r0, ip, r7, asr #11
    1fe8:	0cb90000 	ldceq	0, cr0, [r9]
    1fec:	00000000 	andeq	r0, r0, r0
    1ff0:	019e0406 	orrseq	r0, lr, r6, lsl #8
    1ff4:	01160000 	tsteq	r6, r0
    1ff8:	00000ea4 	andeq	r0, r0, r4, lsr #29
    1ffc:	01047501 	tsteq	r4, r1, lsl #10
    2000:	0000006a 	andeq	r0, r0, sl, rrx
    2004:	08000a7c 	stmdaeq	r0, {r2, r3, r4, r5, r6, r9, fp}
    2008:	08000b3c 	stmdaeq	r0, {r2, r3, r4, r5, r8, r9, fp}
    200c:	00000cd8 	ldrdeq	r0, [r0], -r8
    2010:	000006c3 	andeq	r0, r0, r3, asr #13
    2014:	000d6218 	andeq	r6, sp, r8, lsl r2
    2018:	04770100 	ldrbteq	r0, [r7], #-256	; 0x100
    201c:	00000317 	andeq	r0, r0, r7, lsl r3
    2020:	00000cf8 	strdeq	r0, [r0], -r8
    2024:	000c4718 	andeq	r4, ip, r8, lsl r7
    2028:	04780100 	ldrbteq	r0, [r8], #-256	; 0x100
    202c:	0000006a 	andeq	r0, r0, sl, rrx
    2030:	00000d0b 	andeq	r0, r0, fp, lsl #26
    2034:	0000801d 	andeq	r8, r0, sp, lsl r0
    2038:	0d681800 	stcleq	8, cr1, [r8, #-0]
    203c:	8b010000 	blhi	42044 <vector_table-0x7fbdfbc>
    2040:	00006a04 	andeq	r6, r0, r4, lsl #20
    2044:	000d4200 	andeq	r4, sp, r0, lsl #4
    2048:	22000000 	andcs	r0, r0, #0
    204c:	000c6101 	andeq	r6, ip, r1, lsl #2
    2050:	02b40100 	adcseq	r0, r4, #0
    2054:	000b3c01 	andeq	r3, fp, r1, lsl #24
    2058:	000b6c08 	andeq	r6, fp, r8, lsl #24
    205c:	000d6008 	andeq	r6, sp, r8
    2060:	00070e00 	andeq	r0, r7, r0, lsl #28
    2064:	087d1300 	ldmdaeq	sp!, {r8, r9, ip}^
    2068:	b4010000 	strlt	r0, [r1], #-0
    206c:	00009c02 	andeq	r9, r0, r2, lsl #24
    2070:	000d8000 	andeq	r8, sp, r0
    2074:	08011800 	stmdaeq	r1, {fp, ip}
    2078:	b6010000 	strlt	r0, [r1], -r0
    207c:	00009c02 	andeq	r9, r0, r2, lsl #24
    2080:	000d9e00 	andeq	r9, sp, r0, lsl #28
    2084:	0c471800 	mcrreq	8, 0, r1, r7, cr0
    2088:	b7010000 	strlt	r0, [r1, -r0]
    208c:	00006a02 	andeq	r6, r0, r2, lsl #20
    2090:	000dc600 	andeq	ip, sp, r0, lsl #12
    2094:	01220000 	teqeq	r2, r0
    2098:	00000dac 	andeq	r0, r0, ip, lsr #27
    209c:	01063c01 	tsteq	r6, r1, lsl #24
    20a0:	08000b6c 	stmdaeq	r0, {r2, r3, r5, r6, r8, r9, fp}
    20a4:	08000bc8 	stmdaeq	r0, {r3, r6, r7, r8, r9, fp}
    20a8:	00000df0 	strdeq	r0, [r0], -r0	; <UNPREDICTABLE>
    20ac:	00000743 	andeq	r0, r0, r3, asr #14
    20b0:	000b9c1f 	andeq	r9, fp, pc, lsl ip
    20b4:	000bc808 	andeq	ip, fp, r8, lsl #16
    20b8:	06761808 	ldrbteq	r1, [r6], -r8, lsl #16
    20bc:	68010000 	stmdavs	r1, {}	; <UNPREDICTABLE>
    20c0:	00074306 	andeq	r4, r7, r6, lsl #6
    20c4:	000e1000 	andeq	r1, lr, r0
    20c8:	0c000000 	stceq	0, cr0, [r0], {-0}
    20cc:	00000668 	andeq	r0, r0, r8, ror #12
    20d0:	0ce90122 	stfeqe	f0, [r9], #136	; 0x88
    20d4:	6f010000 	svcvs	0x00010000
    20d8:	0bc80106 	bleq	ff2024f8 <_estack+0xdf1fe4fc>
    20dc:	0bec0800 	bleq	ffb040e4 <_estack+0xdfb000e8>
    20e0:	0e2d0800 	cdpeq	8, 2, cr0, cr13, cr0, {0}
    20e4:	07930000 	ldreq	r0, [r3, r0]
    20e8:	e2130000 	ands	r0, r3, #0
    20ec:	01000007 	tsteq	r0, r7
    20f0:	0793066f 	ldreq	r0, [r3, pc, ror #12]
    20f4:	0e4d0000 	cdpeq	0, 4, cr0, cr13, cr0, {0}
    20f8:	ed130000 	ldc	0, cr0, [r3, #-0]
    20fc:	0100000f 	tsteq	r0, pc
    2100:	009c066f 	addseq	r0, ip, pc, ror #12
    2104:	0e600000 	cdpeq	0, 6, cr0, cr0, cr0, {0}
    2108:	01180000 	tsteq	r8, r0
    210c:	01000008 	tsteq	r0, r8
    2110:	009c0671 	addseq	r0, ip, r1, ror r6
    2114:	0e7e0000 	cdpeq	0, 7, cr0, cr14, cr0, {0}
    2118:	0c000000 	stceq	0, cr0, [r0], {-0}
    211c:	00000798 	muleq	r0, r8, r7
    2120:	079e0406 	ldreq	r0, [lr, r6, lsl #8]
    2124:	9e0c0000 	cdpls	0, 0, cr0, cr12, cr0, {0}
    2128:	16000001 	strne	r0, [r0], -r1
    212c:	000f1101 	andeq	r1, pc, r1, lsl #2
    2130:	06c10100 	strbeq	r0, [r1], r0, lsl #2
    2134:	00006a01 	andeq	r6, r0, r1, lsl #20
    2138:	000bec00 	andeq	lr, fp, r0, lsl #24
    213c:	000c4808 	andeq	r4, ip, r8, lsl #16
    2140:	000ea108 	andeq	sl, lr, r8, lsl #2
    2144:	0007f000 	andeq	pc, r7, r0
    2148:	07e21300 	strbeq	r1, [r2, r0, lsl #6]!
    214c:	c1010000 	mrsgt	r0, (UNDEF: 1)
    2150:	00079306 	andeq	r9, r7, r6, lsl #6
    2154:	000ec100 	andeq	ip, lr, r0, lsl #2
    2158:	0e5e1900 	cdpeq	9, 5, cr1, cr14, cr0, {0}
    215c:	c3010000 	movwgt	r0, #4096	; 0x1000
    2160:	00031706 	andeq	r1, r3, r6, lsl #14
    2164:	18540100 	ldmdane	r4, {r8}^
    2168:	00000a37 	andeq	r0, r0, r7, lsr sl
    216c:	6a06c401 	bvs	1b3178 <vector_table-0x7e4ce88>
    2170:	d4000000 	strle	r0, [r0], #-0
    2174:	0000000e 	andeq	r0, r0, lr
    2178:	10130128 	andsne	r0, r3, r8, lsr #2
    217c:	f4010000 	vst4.8	{d0-d3}, [r1], r0
    2180:	0c480106 	stfeqe	f0, [r8], {6}
    2184:	0c5c0800 	mrrceq	8, 0, r0, ip, cr0
    2188:	7d020800 	stcvc	8, cr0, [r2, #-0]
    218c:	00081800 	andeq	r1, r8, r0, lsl #16
    2190:	0c571700 	mrrceq	7, 0, r1, r7, cr0
    2194:	f4010000 	vst4.8	{d0-d3}, [r1], r0
    2198:	00081806 	andeq	r1, r8, r6, lsl #16
    219c:	00500100 	subseq	r0, r0, r0, lsl #2
    21a0:	00081d0c 	andeq	r1, r8, ip, lsl #26
    21a4:	dd040600 	stcle	6, cr0, [r4, #-0]
    21a8:	16000001 	strne	r0, [r0], -r1
    21ac:	000f4801 	andeq	r4, pc, r1, lsl #16
    21b0:	06fc0100 	ldrbteq	r0, [ip], r0, lsl #2
    21b4:	00006a01 	andeq	r6, r0, r1, lsl #20
    21b8:	000c5c00 	andeq	r5, ip, r0, lsl #24
    21bc:	000cac08 	andeq	sl, ip, r8, lsl #24
    21c0:	000eff08 	andeq	pc, lr, r8, lsl #30
    21c4:	00087200 	andeq	r7, r8, r0, lsl #4
    21c8:	0c571300 	mrrceq	3, 0, r1, r7, cr0
    21cc:	fc010000 	stc2	0, cr0, [r1], {-0}
    21d0:	00081806 	andeq	r1, r8, r6, lsl #16
    21d4:	000f1f00 	andeq	r1, pc, r0, lsl #30
    21d8:	0fec1300 	svceq	0x00ec1300
    21dc:	fc010000 	stc2	0, cr0, [r1], {-0}
    21e0:	00087206 	andeq	r7, r8, r6, lsl #4
    21e4:	000f5300 	andeq	r5, pc, r0, lsl #6
    21e8:	0a371800 	beq	dc81f0 <vector_table-0x7237e10>
    21ec:	fe010000 	cdp2	0, 0, cr0, cr1, cr0, {0}
    21f0:	00006a06 	andeq	r6, r0, r6, lsl #20
    21f4:	000f7100 	andeq	r7, pc, r0, lsl #2
    21f8:	770c0000 	strvc	r0, [ip, -r0]
    21fc:	06000008 	streq	r0, [r0], -r8
    2200:	00009c04 	andeq	r9, r0, r4, lsl #24
    2204:	b3012300 	movwlt	r2, #4864	; 0x1300
    2208:	0100000e 	tsteq	r0, lr
    220c:	ac01072a 	stcge	7, cr0, [r1], {42}	; 0x2a
    2210:	bc08000c 	stclt	0, cr0, [r8], {12}
    2214:	0208000c 	andeq	r0, r8, #12
    2218:	7729007d 			; <UNDEFINED> instruction: 0x7729007d
    221c:	0100000d 	tsteq	r0, sp
    2220:	00089f90 	muleq	r8, r0, pc	; <UNPREDICTABLE>
    2224:	0b010100 	bleq	4262c <vector_table-0x7fbd9d4>
    2228:	00000317 	andeq	r0, r0, r7, lsl r3
    222c:	00019e0d 	andeq	r9, r1, sp, lsl #28
    2230:	0008b400 	andeq	fp, r8, r0, lsl #8
    2234:	00300e00 	eorseq	r0, r0, r0, lsl #28
    2238:	00040000 	andeq	r0, r4, r0
    223c:	000f6a2a 	andeq	r6, pc, sl, lsr #20
    2240:	a4940100 	ldrge	r0, [r4], #256	; 0x100
    2244:	05000008 	streq	r0, [r0, #-8]
    2248:	00009803 	andeq	r9, r0, r3, lsl #16
    224c:	0f932a20 	svceq	0x00932a20
    2250:	95010000 	strls	r0, [r1, #-0]
    2254:	0000019e 	muleq	r0, lr, r1
    2258:	01000305 	tsteq	r0, r5, lsl #6
    225c:	a52a2000 	strge	r2, [sl, #-0]!
    2260:	0100000f 	tsteq	r0, pc
    2264:	00019e96 	muleq	r1, r6, lr
    2268:	14030500 	strne	r0, [r3], #-1280	; 0x500
    226c:	2a200001 	bcs	802278 <vector_table-0x77fdd88>
    2270:	00000ffa 	strdeq	r0, [r0], -sl
    2274:	08f89701 	ldmeq	r8!, {r0, r8, r9, sl, ip, pc}^
    2278:	03050000 	movweq	r0, #20480	; 0x5000
    227c:	20000094 	mulcs	r0, r4, r0
    2280:	0006680b 	andeq	r6, r6, fp, lsl #16
    2284:	0dd92a00 	vldreq	s5, [r9]
    2288:	98010000 	stmdals	r1, {}	; <UNPREDICTABLE>
    228c:	000008f8 	strdeq	r0, [r0], -r8
    2290:	00900305 	addseq	r0, r0, r5, lsl #6
    2294:	092a2000 	stmdbeq	sl!, {sp}
    2298:	0100000e 	tsteq	r0, lr
    229c:	00019e99 	muleq	r1, r9, lr
    22a0:	28030500 	stmdacs	r3, {r8, sl}
    22a4:	2a200001 	bcs	8022b0 <vector_table-0x77fdd50>
    22a8:	00000c1d 	andeq	r0, r0, sp, lsl ip
    22ac:	0189af01 	orreq	sl, r9, r1, lsl #30
    22b0:	03050000 	movweq	r0, #20480	; 0x5000
    22b4:	200000fc 	strdcs	r0, [r0], -ip
    22b8:	000d502a 	andeq	r5, sp, sl, lsr #32
    22bc:	41b00100 	lslsmi	r0, r0, #2
    22c0:	05000009 	streq	r0, [r0, #-9]
    22c4:	00008c03 	andeq	r8, r0, r3, lsl #24
    22c8:	009c0b20 	addseq	r0, ip, r0, lsr #22
    22cc:	c72a0000 	strgt	r0, [sl, -r0]!
    22d0:	0100000d 	tsteq	r0, sp
    22d4:	000071b1 			; <UNDEFINED> instruction: 0x000071b1
    22d8:	40030500 	andmi	r0, r3, r0, lsl #10
    22dc:	2a200001 	bcs	8022e8 <vector_table-0x77fdd18>
    22e0:	00000e3b 	andeq	r0, r0, fp, lsr lr
    22e4:	0189b201 	orreq	fp, r9, r1, lsl #4
    22e8:	03050000 	movweq	r0, #20480	; 0x5000
    22ec:	20000148 	andcs	r0, r0, r8, asr #2
    22f0:	000e802a 	andeq	r8, lr, sl, lsr #32
    22f4:	79b30100 	ldmibvc	r3!, {r8}
    22f8:	05000009 	streq	r0, [r0, #-9]
    22fc:	00013c03 	andeq	r3, r1, r3, lsl #24
    2300:	006a0b20 	rsbeq	r0, sl, r0, lsr #22
    2304:	ff2a0000 			; <UNDEFINED> instruction: 0xff2a0000
    2308:	0100000c 	tsteq	r0, ip
    230c:	000189b4 			; <UNDEFINED> instruction: 0x000189b4
    2310:	4c030500 	cfstr32mi	mvfx0, [r3], {-0}
    2314:	2a200001 	bcs	802320 <vector_table-0x77fdce0>
    2318:	00000fde 	ldrdeq	r0, [r0], -lr
    231c:	0189b501 	orreq	fp, r9, r1, lsl #10
    2320:	03050000 	movweq	r0, #20480	; 0x5000
    2324:	20000154 	andcs	r0, r0, r4, asr r1
    2328:	000d932a 	andeq	r9, sp, sl, lsr #6
    232c:	79b60100 	ldmibvc	r6!, {r8}
    2330:	05000009 	streq	r0, [r0, #-9]
    2334:	00015803 	andeq	r5, r1, r3, lsl #16
    2338:	0fb72a20 	svceq	0x00b72a20
    233c:	b7010000 	strlt	r0, [r1, -r0]
    2340:	00000979 	andeq	r0, r0, r9, ror r9
    2344:	01500305 	cmpeq	r0, r5, lsl #6
    2348:	5d2a2000 	stcpl	0, cr2, [sl, #-0]
    234c:	0100000f 	tsteq	r0, pc
    2350:	000071b8 			; <UNDEFINED> instruction: 0x000071b8
    2354:	44030500 	strmi	r0, [r3], #-1280	; 0x500
    2358:	2a200001 	bcs	802364 <vector_table-0x77fdc9c>
    235c:	00000e26 	andeq	r0, r0, r6, lsr #28
    2360:	009cb901 	addseq	fp, ip, r1, lsl #18
    2364:	03050000 	movweq	r0, #20480	; 0x5000
    2368:	20000000 	andcs	r0, r0, r0
    236c:	000d772b 	andeq	r7, sp, fp, lsr #14
    2370:	9f900100 	svcls	0x00900100
    2374:	01000008 	tsteq	r0, r8
    2378:	00880305 	addeq	r0, r8, r5, lsl #6
    237c:	4c002000 	stcmi	0, cr2, [r0], {-0}
    2380:	02000000 	andeq	r0, r0, #0
    2384:	00089200 	andeq	r9, r8, r0, lsl #4
    2388:	4a010400 	bmi	43390 <vector_table-0x7fbcc70>
    238c:	01000004 	tsteq	r0, r4
    2390:	0000104d 	andeq	r1, r0, sp, asr #32
    2394:	00000102 	andeq	r0, r0, r2, lsl #2
    2398:	08000cbc 	stmdaeq	r0, {r2, r3, r4, r5, r7, sl, fp}
    239c:	08000cbc 	stmdaeq	r0, {r2, r3, r4, r5, r7, sl, fp}
    23a0:	00000935 	andeq	r0, r0, r5, lsr r9
    23a4:	69050402 	stmdbvs	r5, {r1, sl}
    23a8:	0300746e 	movweq	r7, #1134	; 0x46e
    23ac:	00650704 	rsbeq	r0, r5, r4, lsl #14
    23b0:	04030000 	streq	r0, [r3], #-0
    23b4:	00006007 	andeq	r6, r0, r7
    23b8:	05040300 	streq	r0, [r4, #-768]	; 0x300
    23bc:	000000a6 	andeq	r0, r0, r6, lsr #1
    23c0:	f0060103 			; <UNDEFINED> instruction: 0xf0060103
    23c4:	03000002 	movweq	r0, #2
    23c8:	022d0702 	eoreq	r0, sp, #524288	; 0x80000
    23cc:	d7000000 	strle	r0, [r0, -r0]
    23d0:	02000001 	andeq	r0, r0, #1
    23d4:	0008bc00 	andeq	fp, r8, r0, lsl #24
    23d8:	4a010400 	bmi	433e0 <vector_table-0x7fbcc20>
    23dc:	01000004 	tsteq	r0, r4
    23e0:	00001105 	andeq	r1, r0, r5, lsl #2
    23e4:	00000102 	andeq	r0, r0, r2, lsl #2
    23e8:	08000cbc 	stmdaeq	r0, {r2, r3, r4, r5, r7, sl, fp}
    23ec:	08000de8 	stmdaeq	r0, {r3, r5, r6, r7, r8, sl, fp}
    23f0:	00000952 	andeq	r0, r0, r2, asr r9
    23f4:	69050402 	stmdbvs	r5, {r1, sl}
    23f8:	0300746e 	movweq	r7, #1134	; 0x46e
    23fc:	00650704 	rsbeq	r0, r5, r4, lsl #14
    2400:	2a040000 	bcs	102408 <vector_table-0x7efdbf8>
    2404:	0200000f 	andeq	r0, r0, #15
    2408:	00003e47 	andeq	r3, r0, r7, asr #28
    240c:	44040500 	strmi	r0, [r4], #-1280	; 0x500
    2410:	06000000 	streq	r0, [r0], -r0
    2414:	00005001 	andeq	r5, r0, r1
    2418:	00500700 	subseq	r0, r0, r0, lsl #14
    241c:	08000000 	stmdaeq	r0, {}	; <UNPREDICTABLE>
    2420:	04e50404 	strbteq	r0, [r5], #1028	; 0x404
    2424:	62030000 	andvs	r0, r3, #0
    2428:	0000005d 	andeq	r0, r0, sp, asr r0
    242c:	60070403 	andvs	r0, r7, r3, lsl #8
    2430:	03000000 	movweq	r0, #0
    2434:	00a60504 	adceq	r0, r6, r4, lsl #10
    2438:	01030000 	mrseq	r0, (UNDEF: 3)
    243c:	0002f006 	andeq	pc, r2, r6
    2440:	07020300 	streq	r0, [r2, -r0, lsl #6]
    2444:	0000022d 	andeq	r0, r0, sp, lsr #4
    2448:	005d0405 	subseq	r0, sp, r5, lsl #8
    244c:	5c090000 	stcpl	0, cr0, [r9], {-0}
    2450:	01000011 	tsteq	r0, r1, lsl r0
    2454:	0cbc01a4 	ldfeqs	f0, [ip], #656	; 0x290
    2458:	0ccc0800 	stcleq	8, cr0, [ip], {0}
    245c:	7d020800 	stcvc	8, cr0, [r2, #-0]
    2460:	86010a00 	strhi	r0, [r1], -r0, lsl #20
    2464:	01000011 	tsteq	r0, r1, lsl r0
    2468:	0079017f 	rsbseq	r0, r9, pc, ror r1
    246c:	0ccc0000 	stcleq	0, cr0, [ip], {0}
    2470:	0cec0800 	stcleq	8, cr0, [ip]
    2474:	0f900800 	svceq	0x00900800
    2478:	00db0000 	sbcseq	r0, fp, r0
    247c:	430b0000 	movwmi	r0, #45056	; 0xb000
    2480:	0100000d 	tsteq	r0, sp
    2484:	0000797f 	andeq	r7, r0, pc, ror r9
    2488:	000fb000 	andeq	fp, pc, r0
    248c:	10960b00 	addsne	r0, r6, r0, lsl #22
    2490:	7f010000 	svcvc	0x00010000
    2494:	00000033 	andeq	r0, r0, r3, lsr r0
    2498:	00000fce 	andeq	r0, r0, lr, asr #31
    249c:	0001ef0c 	andeq	lr, r1, ip, lsl #30
    24a0:	507f0100 	rsbspl	r0, pc, r0, lsl #2
    24a4:	01000000 	mrseq	r0, (UNDEF: 0)
    24a8:	010d0052 	qaddeq	r0, r2, sp
    24ac:	0000113a 	andeq	r1, r0, sl, lsr r1
    24b0:	ec019101 	stfd	f1, [r1], {1}
    24b4:	0c08000c 	stceq	0, cr0, [r8], {12}
    24b8:	0208000d 	andeq	r0, r8, #13
    24bc:	b80e007d 	stmdalt	lr, {r0, r2, r3, r4, r5, r6}
    24c0:	01000010 	tsteq	r0, r0, lsl r0
    24c4:	01010121 	tsteq	r1, r1, lsr #2
    24c8:	1172010a 	cmnne	r2, sl, lsl #2
    24cc:	b5010000 	strlt	r0, [r1, #-0]
    24d0:	00006401 	andeq	r6, r0, r1, lsl #8
    24d4:	000d0c00 	andeq	r0, sp, r0, lsl #24
    24d8:	000d4808 	andeq	r4, sp, r8, lsl #16
    24dc:	000fed08 	andeq	lr, pc, r8, lsl #26
    24e0:	00012600 	andeq	r2, r1, r0, lsl #12
    24e4:	00ef0f00 	rsceq	r0, pc, r0, lsl #30
    24e8:	0d220000 	stceq	0, cr0, [r2, #-0]
    24ec:	0d300800 	ldceq	8, cr0, [r0, #-0]
    24f0:	bd010800 	stclt	8, cr0, [r1, #-0]
    24f4:	cf010d00 	svcgt	0x00010d00
    24f8:	01000010 	tsteq	r0, r0, lsl r0
    24fc:	0d4801ca 	stfeqe	f0, [r8, #-808]	; 0xfffffcd8
    2500:	0d4a0800 	stcleq	8, cr0, [sl, #-0]
    2504:	7d020800 	stcvc	8, cr0, [r2, #-0]
    2508:	e1010d00 	tst	r1, r0, lsl #26
    250c:	01000010 	tsteq	r0, r0, lsl r0
    2510:	0d4a01d1 	stfeqe	f0, [sl, #-836]	; 0xfffffcbc
    2514:	0d580800 	ldcleq	8, cr0, [r8, #-0]
    2518:	7d020800 	stcvc	8, cr0, [r2, #-0]
    251c:	83010d00 	movwhi	r0, #7424	; 0x1d00
    2520:	01000010 	tsteq	r0, r0, lsl r0
    2524:	0d5801d8 	ldfeqe	f0, [r8, #-864]	; 0xfffffca0
    2528:	0d700800 	ldcleq	8, cr0, [r0, #-0]
    252c:	7d020800 	stcvc	8, cr0, [r2, #-0]
    2530:	4a010d00 	bmi	45938 <vector_table-0x7fba6c8>
    2534:	01000011 	tsteq	r0, r1, lsl r0
    2538:	0d7001df 	ldfeqe	f0, [r0, #-892]!	; 0xfffffc84
    253c:	0d880800 	stceq	8, cr0, [r8]
    2540:	7d020800 	stcvc	8, cr0, [r2, #-0]
    2544:	9d010d00 	stcls	13, cr0, [r1, #-0]
    2548:	01000010 	tsteq	r0, r0, lsl r0
    254c:	0d8801e9 	stfeqs	f0, [r8, #932]	; 0x3a4
    2550:	0dc40800 	stcleq	8, cr0, [r4]
    2554:	7d020800 	stcvc	8, cr0, [r2, #-0]
    2558:	6f011000 	svcvs	0x00011000
    255c:	01000010 	tsteq	r0, r0, lsl r0
    2560:	c401010c 	strgt	r0, [r1], #-268	; 0x10c
    2564:	e808000d 	stmda	r8, {r0, r2, r3}
    2568:	0d08000d 	stceq	0, cr0, [r8, #-52]	; 0xffffffcc
    256c:	b2000010 	andlt	r0, r0, #16
    2570:	11000001 	tstne	r0, r1
    2574:	000010b0 	strheq	r1, [r0], -r0
    2578:	5d010e01 	stcpl	14, cr0, [r1, #-4]
    257c:	00000000 	andeq	r0, r0, r0
    2580:	10f31200 	rscsne	r1, r3, r0, lsl #4
    2584:	67010000 	strvs	r0, [r1, -r0]
    2588:	0000005d 	andeq	r0, r0, sp, asr r0
    258c:	00040305 	andeq	r0, r4, r5, lsl #6
    2590:	9c132000 	ldcls	0, cr2, [r3], {-0}
    2594:	01000011 	tsteq	r0, r1, lsl r0
    2598:	0001d563 	andeq	sp, r1, r3, ror #10
    259c:	03050100 	movweq	r0, #20736	; 0x5100
    25a0:	080010c8 	stmdaeq	r0, {r3, r6, r7, ip}
    25a4:	00005d14 	andeq	r5, r0, r4, lsl sp
    25a8:	016c0000 	cmneq	ip, r0
    25ac:	00020000 	andeq	r0, r2, r0
    25b0:	000009dd 	ldrdeq	r0, [r0], -sp
    25b4:	044a0104 	strbeq	r0, [sl], #-260	; 0x104
    25b8:	04010000 	streq	r0, [r1], #-0
    25bc:	02000012 	andeq	r0, r0, #18
    25c0:	ec000001 	stc	0, cr0, [r0], {1}
    25c4:	4808000d 	stmdami	r8, {r0, r2, r3}
    25c8:	3608000e 	strcc	r0, [r8], -lr
    25cc:	0200000a 	andeq	r0, r0, #10
    25d0:	0000090c 	andeq	r0, r0, ip, lsl #18
    25d4:	0030d302 	eorseq	sp, r0, r2, lsl #6
    25d8:	04030000 	streq	r0, [r3], #-0
    25dc:	00006507 	andeq	r6, r0, r7, lsl #10
    25e0:	06010300 	streq	r0, [r1], -r0, lsl #6
    25e4:	000002f0 	strdeq	r0, [r0], -r0	; <UNPREDICTABLE>
    25e8:	ee080103 	adfe	f0, f0, f3
    25ec:	03000002 	movweq	r0, #2
    25f0:	03020502 	movweq	r0, #9474	; 0x2502
    25f4:	02030000 	andeq	r0, r3, #0
    25f8:	00022d07 	andeq	r2, r2, r7, lsl #26
    25fc:	05040400 	streq	r0, [r4, #-1024]	; 0x400
    2600:	00746e69 	rsbseq	r6, r4, r9, ror #28
    2604:	a1050803 	tstge	r5, r3, lsl #16
    2608:	03000000 	movweq	r0, #0
    260c:	005b0708 	subseq	r0, fp, r8, lsl #14
    2610:	04030000 	streq	r0, [r3], #-0
    2614:	0000a605 	andeq	sl, r0, r5, lsl #12
    2618:	03040500 	movweq	r0, #17664	; 0x4500
    261c:	00600704 	rsbeq	r0, r0, r4, lsl #14
    2620:	01030000 	mrseq	r0, (UNDEF: 3)
    2624:	0002f708 	andeq	pc, r2, r8, lsl #14
    2628:	11f90600 	mvnsne	r0, r0, lsl #12
    262c:	0a000000 	beq	2634 <vector_table-0x7ffd9cc>
    2630:	00a35901 	adceq	r5, r3, r1, lsl #18
    2634:	64070000 	strvs	r0, [r7], #-0
    2638:	01000012 	tsteq	r0, r2, lsl r0
    263c:	0000a35c 	andeq	sl, r0, ip, asr r3
    2640:	124b0700 	subne	r0, fp, #0
    2644:	60010000 	andvs	r0, r1, r0
    2648:	000000af 	andeq	r0, r0, pc, lsr #1
    264c:	00a80800 	adceq	r0, r8, r0, lsl #16
    2650:	08030000 	stmdaeq	r3, {}	; <UNPREDICTABLE>
    2654:	00123704 	andseq	r3, r2, r4, lsl #14
    2658:	003e0900 	eorseq	r0, lr, r0, lsl #18
    265c:	00c00000 	sbceq	r0, r0, r0
    2660:	300a0000 	andcc	r0, sl, r0
    2664:	ff000000 			; <UNDEFINED> instruction: 0xff000000
    2668:	010b0009 	tsteq	fp, r9
    266c:	0000123e 	andeq	r1, r0, lr, lsr r2
    2670:	6f016601 	svcvs	0x00016601
    2674:	ec000000 	stc	0, cr0, [r0], {-0}
    2678:	2808000d 	stmdacs	r8, {r0, r2, r3}
    267c:	2d08000e 	stccs	0, cr0, [r8, #-56]	; 0xffffffc8
    2680:	fc000010 	stc2	0, cr0, [r0], {16}
    2684:	0c000000 	stceq	0, cr0, [r0], {-0}
    2688:	00001252 	andeq	r1, r0, r2, asr r2
    268c:	00256601 	eoreq	r6, r5, r1, lsl #12
    2690:	104d0000 	subne	r0, sp, r0
    2694:	e20d0000 	and	r0, sp, #0
    2698:	01000011 	tsteq	r0, r1, lsl r0
    269c:	00006f68 	andeq	r6, r0, r8, ror #30
    26a0:	00106b00 	andseq	r6, r0, r0, lsl #22
    26a4:	010e0000 	mrseq	r0, (UNDEF: 14)
    26a8:	000011d8 	ldrdeq	r1, [r0], -r8
    26ac:	28018f01 	stmdacs	r1, {r0, r8, r9, sl, fp, pc}
    26b0:	2a08000e 	bcs	2026f0 <vector_table-0x7dfd910>
    26b4:	0208000e 	andeq	r0, r8, #14
    26b8:	0121007d 	teqeq	r1, sp, ror r0
    26bc:	700f0000 	andvc	r0, pc, r0
    26c0:	8f010076 	svchi	0x00010076
    26c4:	0000006f 	andeq	r0, r0, pc, rrx
    26c8:	10005001 	andne	r5, r0, r1
    26cc:	0011ad01 	andseq	sl, r1, r1, lsl #26
    26d0:	01980100 	orrseq	r0, r8, r0, lsl #2
    26d4:	08000e2a 	stmdaeq	r0, {r1, r3, r5, r9, sl, fp}
    26d8:	08000e38 	stmdaeq	r0, {r3, r4, r5, r9, sl, fp}
    26dc:	11007d02 	tstne	r0, r2, lsl #26
    26e0:	0011c301 	andseq	ip, r1, r1, lsl #6
    26e4:	019f0100 	orrseq	r0, pc, r0, lsl #2
    26e8:	00000025 	andeq	r0, r0, r5, lsr #32
    26ec:	08000e38 	stmdaeq	r0, {r3, r4, r5, r9, sl, fp}
    26f0:	08000e48 	stmdaeq	r0, {r3, r6, r9, sl, fp}
    26f4:	12007d02 	andne	r7, r0, #128	; 0x80
    26f8:	0000125e 	andeq	r1, r0, lr, asr r2
    26fc:	007f6101 	rsbseq	r6, pc, r1, lsl #2
    2700:	03050000 	movweq	r0, #20480	; 0x5000
    2704:	20000168 	andcs	r0, r0, r8, ror #2
    2708:	0011eb12 	andseq	lr, r1, r2, lsl fp
    270c:	25630100 	strbcs	r0, [r3, #-256]!	; 0x100
    2710:	05000000 	streq	r0, [r0, #-0]
    2714:	00016003 	andeq	r6, r1, r3
    2718:	Address 0x0000000000002718 is out of bounds.


Disassembly of section .debug_line:

00000000 <.debug_line>:
   0:	00000157 	andeq	r0, r0, r7, asr r1
   4:	01370002 	teqeq	r7, r2
   8:	01020000 	mrseq	r0, (UNDEF: 2)
   c:	000d0efb 	strdeq	r0, [sp], -fp
  10:	01010101 	tsteq	r1, r1, lsl #2
  14:	01000000 	mrseq	r0, (UNDEF: 0)
  18:	2f010000 	svccs	0x00010000
  1c:	2f74706f 	svccs	0x0074706f
  20:	70706773 	rsbsvc	r6, r0, r3, ror r7
  24:	74696c2d 	strbtvc	r6, [r9], #-3117	; 0xc2d
  28:	72612d65 	rsbvc	r2, r1, #6464	; 0x1940
  2c:	61652d6d 	cmnvs	r5, sp, ror #26
  30:	622d6962 	eorvs	r6, sp, #1605632	; 0x188000
  34:	322d6e69 	eorcc	r6, sp, #1680	; 0x690
  38:	2e303130 	mrccs	1, 1, r3, cr0, cr0, {1}
  3c:	352e3930 	strcc	r3, [lr, #-2352]!	; 0x930
  40:	69622f31 	stmdbvs	r2!, {r0, r4, r5, r8, r9, sl, fp, sp}^
  44:	2e2e2f6e 	cdpcs	15, 2, cr2, cr14, cr14, {3}
  48:	62696c2f 	rsbvs	r6, r9, #12032	; 0x2f00
  4c:	6363672f 	cmnvs	r3, #12320768	; 0xbc0000
  50:	6d72612f 	ldfvse	f6, [r2, #-188]!	; 0xffffff44
  54:	6e6f6e2d 	cdpvs	14, 6, cr6, cr15, cr13, {1}
  58:	61652d65 	cmnvs	r5, r5, ror #26
  5c:	342f6962 	strtcc	r6, [pc], #-2402	; 64 <vector_table-0x7ffff9c>
  60:	312e352e 	teqcc	lr, lr, lsr #10
  64:	2f2e2e2f 	svccs	0x002e2e2f
  68:	2e2f2e2e 	cdpcs	14, 2, cr2, cr15, cr14, {1}
  6c:	2e2e2f2e 	cdpcs	15, 2, cr2, cr14, cr14, {1}
  70:	6d72612f 	ldfvse	f6, [r2, #-188]!	; 0xffffff44
  74:	6e6f6e2d 	cdpvs	14, 6, cr6, cr15, cr13, {1}
  78:	61652d65 	cmnvs	r5, r5, ror #26
  7c:	692f6962 	stmdbvs	pc!, {r1, r5, r6, r8, fp, sp, lr}	; <UNPREDICTABLE>
  80:	756c636e 	strbvc	r6, [ip, #-878]!	; 0x36e
  84:	732f6564 	teqvc	pc, #419430400	; 0x19000000
  88:	2f007379 	svccs	0x00007379
  8c:	2f74706f 	svccs	0x0074706f
  90:	70706773 	rsbsvc	r6, r0, r3, ror r7
  94:	74696c2d 	strbtvc	r6, [r9], #-3117	; 0xc2d
  98:	72612d65 	rsbvc	r2, r1, #6464	; 0x1940
  9c:	61652d6d 	cmnvs	r5, sp, ror #26
  a0:	622d6962 	eorvs	r6, sp, #1605632	; 0x188000
  a4:	322d6e69 	eorcc	r6, sp, #1680	; 0x690
  a8:	2e303130 	mrccs	1, 1, r3, cr0, cr0, {1}
  ac:	352e3930 	strcc	r3, [lr, #-2352]!	; 0x930
  b0:	69622f31 	stmdbvs	r2!, {r0, r4, r5, r8, r9, sl, fp, sp}^
  b4:	2e2e2f6e 	cdpcs	15, 2, cr2, cr14, cr14, {3}
  b8:	62696c2f 	rsbvs	r6, r9, #12032	; 0x2f00
  bc:	6363672f 	cmnvs	r3, #12320768	; 0xbc0000
  c0:	6d72612f 	ldfvse	f6, [r2, #-188]!	; 0xffffff44
  c4:	6e6f6e2d 	cdpvs	14, 6, cr6, cr15, cr13, {1}
  c8:	61652d65 	cmnvs	r5, r5, ror #26
  cc:	342f6962 	strtcc	r6, [pc], #-2402	; d4 <vector_table-0x7ffff2c>
  d0:	312e352e 	teqcc	lr, lr, lsr #10
  d4:	636e692f 	cmnvs	lr, #770048	; 0xbc000
  d8:	6564756c 	strbvs	r7, [r4, #-1388]!	; 0x56c
  dc:	2f2e2e00 	svccs	0x002e2e00
  e0:	65657246 	strbvs	r7, [r5, #-582]!	; 0x246
  e4:	534f5452 	movtpl	r5, #62546	; 0xf452
  e8:	312e3756 	teqcc	lr, r6, asr r7
  ec:	532f312e 	teqpl	pc, #-2147483637	; 0x8000000b
  f0:	6372756f 	cmnvs	r2, #465567744	; 0x1bc00000
  f4:	6e692f65 	cdpvs	15, 6, cr2, cr9, cr5, {3}
  f8:	64756c63 	ldrbtvs	r6, [r5], #-3171	; 0xc63
  fc:	77000065 	strvc	r0, [r0, -r5, rrx]
 100:	2e6b726f 	cdpcs	2, 6, cr7, cr11, cr15, {3}
 104:	00000063 	andeq	r0, r0, r3, rrx
 108:	636f6c00 	cmnvs	pc, #0
 10c:	00682e6b 	rsbeq	r2, r8, fp, ror #28
 110:	5f000001 	svcpl	0x00000001
 114:	65707974 	ldrbvs	r7, [r0, #-2420]!	; 0x974
 118:	00682e73 	rsbeq	r2, r8, r3, ror lr
 11c:	73000001 	movwvc	r0, #1
 120:	65646474 	strbvs	r6, [r4, #-1140]!	; 0x474
 124:	00682e66 	rsbeq	r2, r8, r6, ror #28
 128:	72000002 	andvc	r0, r0, #2
 12c:	746e6565 	strbtvc	r6, [lr], #-1381	; 0x565
 130:	0100682e 	tsteq	r0, lr, lsr #16
 134:	61740000 	cmnvs	r4, r0
 138:	682e6b73 	stmdavs	lr!, {r0, r1, r4, r5, r6, r8, r9, fp, sp, lr}
 13c:	00000300 	andeq	r0, r0, r0, lsl #6
 140:	02050000 	andeq	r0, r5, #0
 144:	08000040 	stmdaeq	r0, {r6}
 148:	27010903 	strcs	r0, [r1, -r3, lsl #18]
 14c:	3baf2101 	blcc	febc8558 <_estack+0xdebc455c>
 150:	200d036a 	andcs	r0, sp, sl, ror #6
 154:	02021727 	andeq	r1, r2, #10223616	; 0x9c0000
 158:	35010100 	strcc	r0, [r1, #-256]	; 0x100
 15c:	02000000 	andeq	r0, r0, #0
 160:	00002000 	andeq	r2, r0, r0
 164:	fb010200 	blx	4096e <vector_table-0x7fbf692>
 168:	01000d0e 	tsteq	r0, lr, lsl #26
 16c:	00010101 	andeq	r0, r1, r1, lsl #2
 170:	00010000 	andeq	r0, r1, r0
 174:	73000100 	movwvc	r0, #256	; 0x100
 178:	74726174 	ldrbtvc	r6, [r2], #-372	; 0x174
 17c:	632e7075 	teqvs	lr, #117	; 0x75
 180:	00000000 	andeq	r0, r0, r0
 184:	02050000 	andeq	r0, r5, #0
 188:	08000074 	stmdaeq	r0, {r2, r4, r5, r6}
 18c:	0211141a 	andseq	r1, r1, #436207616	; 0x1a000000
 190:	01010002 	tsteq	r1, r2
 194:	000000f2 	strdeq	r0, [r0], -r2
 198:	009e0002 	addseq	r0, lr, r2
 19c:	01020000 	mrseq	r0, (UNDEF: 2)
 1a0:	000d0efb 	strdeq	r0, [sp], -fp
 1a4:	01010101 	tsteq	r1, r1, lsl #2
 1a8:	01000000 	mrseq	r0, (UNDEF: 0)
 1ac:	2e010000 	cdpcs	0, 0, cr0, cr1, cr0, {0}
 1b0:	72462f2e 	subvc	r2, r6, #184	; 0xb8
 1b4:	54526565 	ldrbpl	r6, [r2], #-1381	; 0x565
 1b8:	3756534f 	ldrbcc	r5, [r6, -pc, asr #6]
 1bc:	312e312e 	teqcc	lr, lr, lsr #2
 1c0:	756f532f 	strbvc	r5, [pc, #-815]!	; fffffe99 <_estack+0xdfffbe9d>
 1c4:	00656372 	rsbeq	r6, r5, r2, ror r3
 1c8:	462f2e2e 	strtmi	r2, [pc], -lr, lsr #28
 1cc:	52656572 	rsbpl	r6, r5, #478150656	; 0x1c800000
 1d0:	56534f54 	usaxpl	r4, r3, r4
 1d4:	2e312e37 	mrccs	14, 1, r2, cr1, cr7, {1}
 1d8:	6f532f31 	svcvs	0x00532f31
 1dc:	65637275 	strbvs	r7, [r3, #-629]!	; 0x275
 1e0:	636e692f 	cmnvs	lr, #770048	; 0xbc000
 1e4:	6564756c 	strbvs	r7, [r4, #-1388]!	; 0x56c
 1e8:	2f2e2e00 	svccs	0x002e2e00
 1ec:	65657246 	strbvs	r7, [r5, #-582]!	; 0x246
 1f0:	534f5452 	movtpl	r5, #62546	; 0xf452
 1f4:	312e3756 	teqcc	lr, r6, asr r7
 1f8:	532f312e 	teqpl	pc, #-2147483637	; 0x8000000b
 1fc:	6372756f 	cmnvs	r2, #465567744	; 0x1bc00000
 200:	6f702f65 	svcvs	0x00702f65
 204:	62617472 	rsbvs	r7, r1, #1912602624	; 0x72000000
 208:	472f656c 	strmi	r6, [pc, -ip, ror #10]!
 20c:	412f4343 	teqmi	pc, r3, asr #6
 210:	435f4d52 	cmpmi	pc, #5248	; 0x1480
 214:	0000334d 	andeq	r3, r0, sp, asr #6
 218:	7473696c 	ldrbtvc	r6, [r3], #-2412	; 0x96c
 21c:	0100632e 	tsteq	r0, lr, lsr #6
 220:	696c0000 	stmdbvs	ip!, {}^	; <UNPREDICTABLE>
 224:	682e7473 	stmdavs	lr!, {r0, r1, r4, r5, r6, sl, ip, sp, lr}
 228:	00000200 	andeq	r0, r0, r0, lsl #4
 22c:	74726f70 	ldrbtvc	r6, [r2], #-3952	; 0xf70
 230:	7263616d 	rsbvc	r6, r3, #1073741851	; 0x4000001b
 234:	00682e6f 	rsbeq	r2, r8, pc, ror #28
 238:	00000003 	andeq	r0, r0, r3
 23c:	78020500 	stmdavc	r2, {r8, sl}
 240:	03080000 	movweq	r0, #32768	; 0x8000
 244:	160100cc 	strne	r0, [r1], -ip, asr #1
 248:	21283832 	teqcs	r8, r2, lsr r8
 24c:	14242f22 	strtne	r2, [r4], #-3874	; 0xf22
 250:	2219242f 	andscs	r2, r9, #788529152	; 0x2f000000
 254:	2f221f21 	svccs	0x00221f21
 258:	3d222321 	stccc	3, cr2, [r2, #-132]!	; 0xffffff7c
 25c:	031b1724 	tsteq	fp, #9437184	; 0x900000
 260:	033e200e 	teqeq	lr, #14
 264:	02002e14 	andeq	r2, r0, #320	; 0x140
 268:	3c060204 	sfmcc	f0, 4, [r6], {4}
 26c:	01040200 	mrseq	r0, R12_usr
 270:	27510620 	ldrbcs	r0, [r1, -r0, lsr #12]
 274:	1f207a03 	svcne	0x00207a03
 278:	3d262122 	stfccs	f2, [r6, #-136]!	; 0xffffff78
 27c:	323d1524 	eorscc	r1, sp, #150994944	; 0x9000000
 280:	2f313023 	svccs	0x00313023
 284:	0001023d 	andeq	r0, r1, sp, lsr r2
 288:	01550101 	cmpeq	r5, r1, lsl #2
 28c:	00020000 	andeq	r0, r2, r0
 290:	000000b0 	strheq	r0, [r0], -r0	; <UNPREDICTABLE>
 294:	0efb0102 	cdpeq	1, 15, cr0, cr11, cr2, {0}
 298:	0101000d 	tsteq	r1, sp
 29c:	00000101 	andeq	r0, r0, r1, lsl #2
 2a0:	00000100 	andeq	r0, r0, r0, lsl #2
 2a4:	2f2e2e01 	svccs	0x002e2e01
 2a8:	65657246 	strbvs	r7, [r5, #-582]!	; 0x246
 2ac:	534f5452 	movtpl	r5, #62546	; 0xf452
 2b0:	312e3756 	teqcc	lr, r6, asr r7
 2b4:	532f312e 	teqpl	pc, #-2147483637	; 0x8000000b
 2b8:	6372756f 	cmnvs	r2, #465567744	; 0x1bc00000
 2bc:	2e2e0065 	cdpcs	0, 2, cr0, cr14, cr5, {3}
 2c0:	6572462f 	ldrbvs	r4, [r2, #-1583]!	; 0x62f
 2c4:	4f545265 	svcmi	0x00545265
 2c8:	2e375653 	mrccs	6, 1, r5, cr7, cr3, {2}
 2cc:	2f312e31 	svccs	0x00312e31
 2d0:	72756f53 	rsbsvc	r6, r5, #332	; 0x14c
 2d4:	692f6563 	stmdbvs	pc!, {r0, r1, r5, r6, r8, sl, sp, lr}	; <UNPREDICTABLE>
 2d8:	756c636e 	strbvc	r6, [ip, #-878]!	; 0x36e
 2dc:	2e006564 	cfsh32cs	mvfx6, mvfx0, #52
 2e0:	72462f2e 	subvc	r2, r6, #184	; 0xb8
 2e4:	54526565 	ldrbpl	r6, [r2], #-1381	; 0x565
 2e8:	3756534f 	ldrbcc	r5, [r6, -pc, asr #6]
 2ec:	312e312e 	teqcc	lr, lr, lsr #2
 2f0:	756f532f 	strbvc	r5, [pc, #-815]!	; ffffffc9 <_estack+0xdfffbfcd>
 2f4:	2f656372 	svccs	0x00656372
 2f8:	74726f70 	ldrbtvc	r6, [r2], #-3952	; 0xf70
 2fc:	656c6261 	strbvs	r6, [ip, #-609]!	; 0x261
 300:	4343472f 	movtmi	r4, #14127	; 0x372f
 304:	4d52412f 	ldfmie	f4, [r2, #-188]	; 0xffffff44
 308:	334d435f 	movtcc	r4, #54111	; 0xd35f
 30c:	72630000 	rsbvc	r0, r3, #0
 310:	6974756f 	ldmdbvs	r4!, {r0, r1, r2, r3, r5, r6, r8, sl, ip, sp, lr}^
 314:	632e656e 	teqvs	lr, #461373440	; 0x1b800000
 318:	00000100 	andeq	r0, r0, r0, lsl #2
 31c:	7473696c 	ldrbtvc	r6, [r3], #-2412	; 0x96c
 320:	0200682e 	andeq	r6, r0, #3014656	; 0x2e0000
 324:	6f700000 	svcvs	0x00700000
 328:	616d7472 	smcvs	55106	; 0xd742
 32c:	2e6f7263 	cdpcs	2, 6, cr7, cr15, cr3, {3}
 330:	00030068 	andeq	r0, r3, r8, rrx
 334:	6f726300 	svcvs	0x00726300
 338:	6e697475 	mcrvs	4, 3, r7, cr9, cr5, {3}
 33c:	00682e65 	rsbeq	r2, r8, r5, ror #28
 340:	00000002 	andeq	r0, r0, r2
 344:	00020500 	andeq	r0, r2, r0, lsl #10
 348:	03080001 	movweq	r0, #32769	; 0x8001
 34c:	2e01018a 	adfcsd	f0, f1, #2.0
 350:	2f331b25 	svccs	0x00331b25
 354:	c7035a40 	strgt	r5, [r3, -r0, asr #20]
 358:	2b3f2001 	blcs	fc8364 <vector_table-0x7037c9c>
 35c:	3d3d2d4e 	ldccc	13, cr2, [sp, #-312]!	; 0xfffffec8
 360:	bd032f4e 	stclt	15, cr2, [r3, #-312]	; 0xfffffec8
 364:	231d747e 	tstcs	sp, #2113929216	; 0x7e000000
 368:	2f1b262b 	svccs	0x001b262b
 36c:	09032f32 	stmdbeq	r3, {r1, r4, r5, r8, r9, sl, fp, sp}
 370:	241c324a 	ldrcs	r3, [ip], #-586	; 0x24a
 374:	28207803 	stmdacs	r0!, {r0, r1, fp, ip, sp, lr}
 378:	273c7903 	ldrcs	r7, [ip, -r3, lsl #18]!
 37c:	4e324084 	cdpmi	0, 3, cr4, cr2, cr4, {4}
 380:	33251b25 	teqcc	r5, #37888	; 0x9400
 384:	24221e4f 	strtcs	r1, [r2], #-3663	; 0xe4f
 388:	20740334 	rsbscs	r0, r4, r4, lsr r3
 38c:	312e0c03 	teqcc	lr, r3, lsl #24
 390:	032c3e24 	teqeq	ip, #576	; 0x240
 394:	035800d7 	cmpeq	r8, #215	; 0xd7
 398:	4c2e7fb8 	stcmi	15, cr7, [lr], #-736	; 0xfffffd20
 39c:	4b4c4c2f 	blmi	1313460 <vector_table-0x6cecba0>
 3a0:	03ba7303 			; <UNDEFINED> instruction: 0x03ba7303
 3a4:	21695816 	cmncs	r9, r6, lsl r8
 3a8:	34232f1f 	strtcc	r2, [r3], #-3871	; 0xf1f
 3ac:	351f2121 	ldrcc	r2, [pc, #-289]	; 293 <vector_table-0x7fffd6d>
 3b0:	4d515e30 	ldclmi	14, cr5, [r1, #-192]	; 0xffffff40
 3b4:	034c4d30 	movteq	r4, #52528	; 0xcd30
 3b8:	6e03c865 	cdpvs	8, 0, cr12, cr3, cr5, {3}
 3bc:	4a31034a 	bmi	c410ec <vector_table-0x73bef14>
 3c0:	223c0d03 	eorscs	r0, ip, #192	; 0xc0
 3c4:	01040200 	mrseq	r0, R12_usr
 3c8:	740c0348 	strvc	r0, [ip], #-840	; 0x348
 3cc:	03207403 	teqeq	r0, #50331648	; 0x3000000
 3d0:	03d9200c 	bicseq	r2, r9, #12
 3d4:	2227821b 	eorcs	r8, r7, #-1342177279	; 0xb0000001
 3d8:	5a59211e 	bpl	1648858 <vector_table-0x69b77a8>
 3dc:	07023622 	streq	r3, [r2, -r2, lsr #12]
 3e0:	7b010100 	blvc	407e8 <vector_table-0x7fbf818>
 3e4:	02000002 	andeq	r0, r0, #2
 3e8:	00010700 	andeq	r0, r1, r0, lsl #14
 3ec:	fb010200 	blx	40bf6 <vector_table-0x7fbf40a>
 3f0:	01000d0e 	tsteq	r0, lr, lsl #26
 3f4:	00010101 	andeq	r0, r1, r1, lsl #2
 3f8:	00010000 	andeq	r0, r1, r0
 3fc:	2e2e0100 	sufcse	f0, f6, f0
 400:	6572462f 	ldrbvs	r4, [r2, #-1583]!	; 0x62f
 404:	4f545265 	svcmi	0x00545265
 408:	2e375653 	mrccs	6, 1, r5, cr7, cr3, {2}
 40c:	2f312e31 	svccs	0x00312e31
 410:	72756f53 	rsbsvc	r6, r5, #332	; 0x14c
 414:	2f006563 	svccs	0x00006563
 418:	2f74706f 	svccs	0x0074706f
 41c:	70706773 	rsbsvc	r6, r0, r3, ror r7
 420:	74696c2d 	strbtvc	r6, [r9], #-3117	; 0xc2d
 424:	72612d65 	rsbvc	r2, r1, #6464	; 0x1940
 428:	61652d6d 	cmnvs	r5, sp, ror #26
 42c:	622d6962 	eorvs	r6, sp, #1605632	; 0x188000
 430:	322d6e69 	eorcc	r6, sp, #1680	; 0x690
 434:	2e303130 	mrccs	1, 1, r3, cr0, cr0, {1}
 438:	352e3930 	strcc	r3, [lr, #-2352]!	; 0x930
 43c:	69622f31 	stmdbvs	r2!, {r0, r4, r5, r8, r9, sl, fp, sp}^
 440:	2e2e2f6e 	cdpcs	15, 2, cr2, cr14, cr14, {3}
 444:	62696c2f 	rsbvs	r6, r9, #12032	; 0x2f00
 448:	6363672f 	cmnvs	r3, #12320768	; 0xbc0000
 44c:	6d72612f 	ldfvse	f6, [r2, #-188]!	; 0xffffff44
 450:	6e6f6e2d 	cdpvs	14, 6, cr6, cr15, cr13, {1}
 454:	61652d65 	cmnvs	r5, r5, ror #26
 458:	342f6962 	strtcc	r6, [pc], #-2402	; 460 <vector_table-0x7fffba0>
 45c:	312e352e 	teqcc	lr, lr, lsr #10
 460:	636e692f 	cmnvs	lr, #770048	; 0xbc000
 464:	6564756c 	strbvs	r7, [r4, #-1388]!	; 0x56c
 468:	2f2e2e00 	svccs	0x002e2e00
 46c:	65657246 	strbvs	r7, [r5, #-582]!	; 0x246
 470:	534f5452 	movtpl	r5, #62546	; 0xf452
 474:	312e3756 	teqcc	lr, r6, asr r7
 478:	532f312e 	teqpl	pc, #-2147483637	; 0x8000000b
 47c:	6372756f 	cmnvs	r2, #465567744	; 0x1bc00000
 480:	6f702f65 	svcvs	0x00702f65
 484:	62617472 	rsbvs	r7, r1, #1912602624	; 0x72000000
 488:	472f656c 	strmi	r6, [pc, -ip, ror #10]!
 48c:	412f4343 	teqmi	pc, r3, asr #6
 490:	435f4d52 	cmpmi	pc, #5248	; 0x1480
 494:	2e00334d 	cdpcs	3, 0, cr3, cr0, cr13, {2}
 498:	72462f2e 	subvc	r2, r6, #184	; 0xb8
 49c:	54526565 	ldrbpl	r6, [r2], #-1381	; 0x565
 4a0:	3756534f 	ldrbcc	r5, [r6, -pc, asr #6]
 4a4:	312e312e 	teqcc	lr, lr, lsr #2
 4a8:	756f532f 	strbvc	r5, [pc, #-815]!	; 181 <vector_table-0x7fffe7f>
 4ac:	2f656372 	svccs	0x00656372
 4b0:	6c636e69 	stclvs	14, cr6, [r3], #-420	; 0xfffffe5c
 4b4:	00656475 	rsbeq	r6, r5, r5, ror r4
 4b8:	65757100 	ldrbvs	r7, [r5, #-256]!	; 0x100
 4bc:	632e6575 	teqvs	lr, #490733568	; 0x1d400000
 4c0:	00000100 	andeq	r0, r0, r0, lsl #2
 4c4:	64647473 	strbtvs	r7, [r4], #-1139	; 0x473
 4c8:	682e6665 	stmdavs	lr!, {r0, r2, r5, r6, r9, sl, sp, lr}
 4cc:	00000200 	andeq	r0, r0, r0, lsl #4
 4d0:	74726f70 	ldrbtvc	r6, [r2], #-3952	; 0xf70
 4d4:	7263616d 	rsbvc	r6, r3, #1073741851	; 0x4000001b
 4d8:	00682e6f 	rsbeq	r2, r8, pc, ror #28
 4dc:	6c000003 	stcvs	0, cr0, [r0], {3}
 4e0:	2e747369 	cdpcs	3, 7, cr7, cr4, cr9, {3}
 4e4:	00040068 	andeq	r0, r4, r8, rrx
 4e8:	73617400 	cmnvc	r1, #0
 4ec:	00682e6b 	rsbeq	r2, r8, fp, ror #28
 4f0:	00000004 	andeq	r0, r0, r4
 4f4:	38020500 	stmdacc	r2, {r8, sl}
 4f8:	03080003 	movweq	r0, #32771	; 0x8003
 4fc:	210109f1 	strdcs	r0, [r1, -r1]
 500:	4b22211f 	blmi	888984 <vector_table-0x777767c>
 504:	2c303030 	ldccs	0, cr3, [r0], #-192	; 0xffffff40
 508:	213c5203 	teqcs	ip, r3, lsl #4
 50c:	0321201f 	teqeq	r1, #31
 510:	3d22200d 	stccc	0, cr2, [r2, #-52]!	; 0xffffffcc
 514:	30211f3d 	eorcc	r1, r1, sp, lsr pc
 518:	1f3d3d41 	svcne	0x003d3d41
 51c:	22211f21 	eorcs	r1, r1, #132	; 0x84
 520:	12033d40 	andne	r3, r3, #4096	; 0x1000
 524:	31272020 	teqcc	r7, r0, lsr #32
 528:	315c3224 	cmpcc	ip, r4, lsr #4
 52c:	01040200 	mrseq	r0, R12_usr
 530:	033c7103 	teqeq	ip, #-1073741824	; 0xc0000000
 534:	313e3c17 	teqcc	lr, r7, lsl ip
 538:	5a302230 	bpl	c08e00 <vector_table-0x73f7200>
 53c:	04020031 	streq	r0, [r2], #-49	; 0x31
 540:	3c770301 	ldclcc	3, cr0, [r7], #-4
 544:	3f3c1103 	svccc	0x003c1103
 548:	77dd032d 	ldrbvc	r0, [sp, sp, lsr #6]
 54c:	7903192e 	stmdbvc	r3, {r1, r2, r3, r5, r8, fp, ip}
 550:	22272020 	eorcs	r2, r7, #32
 554:	3e223425 	cdpcc	4, 2, cr3, cr2, cr5, {1}
 558:	2339311e 	teqcs	r9, #-2147483641	; 0x80000007
 55c:	232b231e 	teqcs	fp, #2013265920	; 0x78000000
 560:	034b2321 	movteq	r2, #45857	; 0xb321
 564:	13036671 	movwne	r6, #13937	; 0x3671
 568:	03202420 	teqeq	r0, #536870912	; 0x20000000
 56c:	3d30200a 	ldccc	0, cr2, [r0, #-40]!	; 0xffffffd8
 570:	24593032 	ldrbcs	r3, [r9], #-50	; 0x32
 574:	0d032121 	stfeqs	f2, [r3, #-132]	; 0xffffff7c
 578:	3c5c0358 	mrrccc	3, 5, r0, ip, cr8
 57c:	033c2c03 	teqeq	ip, #768	; 0x300
 580:	2e2e01d0 	mcrcs	1, 1, r0, cr14, cr0, {6}
 584:	00ef034b 	rsceq	r0, pc, fp, asr #6
 588:	7f9c033c 	svcvc	0x009c033c
 58c:	5c4d322e 	sfmpl	f3, 2, [sp], {46}	; 0x2e
 590:	32326c30 	eorscc	r6, r2, #12288	; 0x3000
 594:	30333232 	eorscc	r3, r3, r2, lsr r2
 598:	2f334140 	svccs	0x00334140
 59c:	01040200 	mrseq	r0, R12_usr
 5a0:	02006606 	andeq	r6, r0, #6291456	; 0x600000
 5a4:	002e0204 	eoreq	r0, lr, r4, lsl #4
 5a8:	4a030402 	bmi	c15b8 <vector_table-0x7f3ea48>
 5ac:	04040200 	streq	r0, [r4], #-512	; 0x200
 5b0:	0402002e 	streq	r0, [r2], #-46	; 0x2e
 5b4:	03310604 	teqeq	r1, #4194304	; 0x400000
 5b8:	2f5805d4 	svccs	0x005805d4
 5bc:	7aac033d 	bvc	feb012b8 <_estack+0xdeafd2bc>
 5c0:	435f312e 	cmpmi	pc, #-2147483637	; 0x8000000b
 5c4:	423d424c 	eorsmi	r4, sp, #-1073741820	; 0xc0000004
 5c8:	0323333d 	teqeq	r3, #-201326592	; 0xf4000000
 5cc:	203c01d2 	ldrsbtcs	r0, [ip], -r2
 5d0:	4c2e0d03 	stcmi	13, cr0, [lr], #-12
 5d4:	304c4e4e 	subcc	r4, ip, lr, asr #28
 5d8:	2944366a 	stmdbcs	r4, {r1, r3, r5, r6, r9, sl, ip, sp}^
 5dc:	2e324d28 	cdpcs	13, 3, cr4, cr2, cr8, {1}
 5e0:	018e034b 	orreq	r0, lr, fp, asr #6
 5e4:	7eff033c 	mrcvc	3, 7, r0, cr15, cr12, {1}
 5e8:	2c33322e 	lfmcs	f3, 4, [r3], #-184	; 0xffffff48
 5ec:	03253022 	teqeq	r5, #34	; 0x22
 5f0:	03303c0d 	teqeq	r0, #3328	; 0xd00
 5f4:	241c7410 	ldrcs	r7, [ip], #-1040	; 0x410
 5f8:	2f345b24 	svccs	0x00345b24
 5fc:	30303232 	eorscc	r3, r0, r2, lsr r2
 600:	2f334140 	svccs	0x00334140
 604:	01040200 	mrseq	r0, R12_usr
 608:	02006606 	andeq	r6, r0, #6291456	; 0x600000
 60c:	002e0204 	eoreq	r0, lr, r4, lsl #4
 610:	4a030402 	bmi	c1620 <vector_table-0x7f3e9e0>
 614:	04040200 	streq	r0, [r4], #-512	; 0x200
 618:	0402002e 	streq	r0, [r2], #-46	; 0x2e
 61c:	03310604 	teqeq	r1, #4194304	; 0x400000
 620:	2f58029e 	svccs	0x0058029e
 624:	7de20321 	stclvc	3, cr0, [r2, #132]!	; 0x84
 628:	2011032e 	andscs	r0, r1, lr, lsr #6
 62c:	424c3d59 	submi	r3, ip, #5696	; 0x1640
 630:	303d413d 	eorscc	r4, sp, sp, lsr r1
 634:	36204023 	strtcc	r4, [r0], -r3, lsr #32
 638:	413d324d 	teqmi	sp, sp, asr #4
 63c:	366a304c 	strbtcc	r3, [sl], -ip, asr #32
 640:	324d2831 	subcc	r2, sp, #3211264	; 0x310000
 644:	212f2520 	teqcs	pc, r0, lsr #10
 648:	23173231 	tstcs	r7, #268435459	; 0x10000003
 64c:	3d252024 	stccc	0, cr2, [r5, #-144]!	; 0xffffff70
 650:	a3032d21 	movwge	r2, #15649	; 0x3d21
 654:	23162e01 	tstcs	r6, #16
 658:	16581003 	ldrbne	r1, [r8], -r3
 65c:	00050231 	andeq	r0, r5, r1, lsr r2
 660:	02cf0101 	sbceq	r0, pc, #1073741824	; 0x40000000
 664:	00020000 	andeq	r0, r2, r0
 668:	00000115 	andeq	r0, r0, r5, lsl r1
 66c:	0efb0102 	cdpeq	1, 15, cr0, cr11, cr2, {0}
 670:	0101000d 	tsteq	r1, sp
 674:	00000101 	andeq	r0, r0, r1, lsl #2
 678:	00000100 	andeq	r0, r0, r0, lsl #2
 67c:	2f2e2e01 	svccs	0x002e2e01
 680:	65657246 	strbvs	r7, [r5, #-582]!	; 0x246
 684:	534f5452 	movtpl	r5, #62546	; 0xf452
 688:	312e3756 	teqcc	lr, r6, asr r7
 68c:	532f312e 	teqpl	pc, #-2147483637	; 0x8000000b
 690:	6372756f 	cmnvs	r2, #465567744	; 0x1bc00000
 694:	6f2f0065 	svcvs	0x002f0065
 698:	732f7470 	teqvc	pc, #1879048192	; 0x70000000
 69c:	2d707067 	ldclcs	0, cr7, [r0, #-412]!	; 0xfffffe64
 6a0:	6574696c 	ldrbvs	r6, [r4, #-2412]!	; 0x96c
 6a4:	6d72612d 	ldfvse	f6, [r2, #-180]!	; 0xffffff4c
 6a8:	6261652d 	rsbvs	r6, r1, #188743680	; 0xb400000
 6ac:	69622d69 	stmdbvs	r2!, {r0, r3, r5, r6, r8, sl, fp, sp}^
 6b0:	30322d6e 	eorscc	r2, r2, lr, ror #26
 6b4:	302e3031 	eorcc	r3, lr, r1, lsr r0
 6b8:	31352e39 	teqcc	r5, r9, lsr lr
 6bc:	6e69622f 	cdpvs	2, 6, cr6, cr9, cr15, {1}
 6c0:	2f2e2e2f 	svccs	0x002e2e2f
 6c4:	2f62696c 	svccs	0x0062696c
 6c8:	2f636367 	svccs	0x00636367
 6cc:	2d6d7261 	sfmcs	f7, 2, [sp, #-388]!	; 0xfffffe7c
 6d0:	656e6f6e 	strbvs	r6, [lr, #-3950]!	; 0xf6e
 6d4:	6261652d 	rsbvs	r6, r1, #188743680	; 0xb400000
 6d8:	2e342f69 	cdpcs	15, 3, cr2, cr4, cr9, {3}
 6dc:	2f312e35 	svccs	0x00312e35
 6e0:	6c636e69 	stclvs	14, cr6, [r3], #-420	; 0xfffffe5c
 6e4:	00656475 	rsbeq	r6, r5, r5, ror r4
 6e8:	462f2e2e 	strtmi	r2, [pc], -lr, lsr #28
 6ec:	52656572 	rsbpl	r6, r5, #478150656	; 0x1c800000
 6f0:	56534f54 	usaxpl	r4, r3, r4
 6f4:	2e312e37 	mrccs	14, 1, r2, cr1, cr7, {1}
 6f8:	6f532f31 	svcvs	0x00532f31
 6fc:	65637275 	strbvs	r7, [r3, #-629]!	; 0x275
 700:	636e692f 	cmnvs	lr, #770048	; 0xbc000
 704:	6564756c 	strbvs	r7, [r4, #-1388]!	; 0x56c
 708:	2f2e2e00 	svccs	0x002e2e00
 70c:	65657246 	strbvs	r7, [r5, #-582]!	; 0x246
 710:	534f5452 	movtpl	r5, #62546	; 0xf452
 714:	312e3756 	teqcc	lr, r6, asr r7
 718:	532f312e 	teqpl	pc, #-2147483637	; 0x8000000b
 71c:	6372756f 	cmnvs	r2, #465567744	; 0x1bc00000
 720:	6f702f65 	svcvs	0x00702f65
 724:	62617472 	rsbvs	r7, r1, #1912602624	; 0x72000000
 728:	472f656c 	strmi	r6, [pc, -ip, ror #10]!
 72c:	412f4343 	teqmi	pc, r3, asr #6
 730:	435f4d52 	cmpmi	pc, #5248	; 0x1480
 734:	0000334d 	andeq	r3, r0, sp, asr #6
 738:	6b736174 	blvs	1cd8d10 <vector_table-0x63272f0>
 73c:	00632e73 	rsbeq	r2, r3, r3, ror lr
 740:	73000001 	movwvc	r0, #1
 744:	65646474 	strbvs	r6, [r4, #-1140]!	; 0x474
 748:	00682e66 	rsbeq	r2, r8, r6, ror #28
 74c:	70000002 	andvc	r0, r0, r2
 750:	646a6f72 	strbtvs	r6, [sl], #-3954	; 0xf72
 754:	2e736665 	cdpcs	6, 7, cr6, cr3, cr5, {3}
 758:	00030068 	andeq	r0, r3, r8, rrx
 75c:	726f7000 	rsbvc	r7, pc, #0
 760:	63616d74 	cmnvs	r1, #7424	; 0x1d00
 764:	682e6f72 	stmdavs	lr!, {r1, r4, r5, r6, r8, r9, sl, fp, sp, lr}
 768:	00000400 	andeq	r0, r0, r0, lsl #8
 76c:	7473696c 	ldrbtvc	r6, [r3], #-2412	; 0x96c
 770:	0300682e 	movweq	r6, #2094	; 0x82e
 774:	61740000 	cmnvs	r4, r0
 778:	682e6b73 	stmdavs	lr!, {r0, r1, r4, r5, r6, r8, r9, fp, sp, lr}
 77c:	00000300 	andeq	r0, r0, r0, lsl #6
 780:	02050000 	andeq	r0, r5, #0
 784:	08000748 	stmdaeq	r0, {r3, r6, r8, r9, sl}
 788:	0110b803 	tsteq	r0, r3, lsl #16
 78c:	1e221e14 	mcrne	14, 1, r1, cr2, cr4, {0}
 790:	033f2222 	teqeq	pc, #536870914	; 0x20000002
 794:	71033c0f 	tstvc	r3, pc, lsl #24
 798:	3e5d332e 	cdpcc	3, 5, cr3, cr13, cr14, {1}
 79c:	747e9303 	ldrbtvc	r9, [lr], #-771	; 0x303
 7a0:	4c201e03 	stcmi	14, cr1, [r0], #-12
 7a4:	58748e03 	ldmdapl	r4!, {r0, r1, r9, sl, fp, pc}^
 7a8:	0dcb032e 	stcleq	3, cr0, [fp, #184]	; 0xb8
 7ac:	72b50320 	adcsvc	r0, r5, #-2147483648	; 0x80000000
 7b0:	0dcb0320 	stcleq	3, cr0, [fp, #128]	; 0x80
 7b4:	924f3082 	subls	r3, pc, #130	; 0x82
 7b8:	c603503f 			; <UNDEFINED> instruction: 0xc603503f
 7bc:	f5035872 			; <UNDEFINED> instruction: 0xf5035872
 7c0:	8b03200b 	blhi	c87f4 <vector_table-0x7f3780c>
 7c4:	f5032e74 			; <UNDEFINED> instruction: 0xf5032e74
 7c8:	8b03200b 	blhi	c87fc <vector_table-0x7f37804>
 7cc:	f8032e74 			; <UNDEFINED> instruction: 0xf8032e74
 7d0:	03552e0b 	cmpeq	r5, #176	; 0xb0
 7d4:	70032e13 	andvc	r2, r3, r3, lsl lr
 7d8:	3c100320 	ldccc	3, cr0, [r0], {32}
 7dc:	35207903 	strcc	r7, [r0, #-2307]!	; 0x903
 7e0:	73f8032f 	mvnsvc	r0, #-1140850688	; 0xbc000000
 7e4:	0c8f034a 	stceq	3, cr0, [pc], {74}	; 0x4a
 7e8:	21232b2e 	teqcs	r3, lr, lsr #22
 7ec:	20749003 	rsbscs	r9, r4, r3
 7f0:	1e35416d 	rsfnesz	f4, f5, #5.0
 7f4:	22325930 	eorscs	r5, r2, #786432	; 0xc0000
 7f8:	4a0c9003 	bmi	32480c <vector_table-0x7cdb7f4>
 7fc:	302c303a 	eorcc	r3, ip, sl, lsr r0
 800:	2d3d252c 	cfldr32cs	mvfx2, [sp, #-176]!	; 0xffffff50
 804:	10033d2f 	andne	r3, r3, pc, lsr #26
 808:	e7032f4a 	str	r2, [r3, -sl, asr #30]
 80c:	3e3e3c73 	mrccc	12, 1, r3, cr14, cr3, {3}
 810:	3c0d0335 	stccc	3, cr0, [sp], {53}	; 0x35
 814:	22207303 	eorcs	r7, r0, #201326592	; 0xc000000
 818:	5a4a0903 	bpl	1282c2c <vector_table-0x6d7d3d4>
 81c:	2e0a03c0 	cdpcs	3, 0, cr0, cr10, cr0, {6}
 820:	74035a40 	strvc	r5, [r3], #-2624	; 0xa40
 824:	4a78033c 	bmi	1e0151c <vector_table-0x61feae4>
 828:	034a1a03 	movteq	r1, #43523	; 0xaa03
 82c:	034a03f6 	movteq	r0, #41974	; 0xa3f6
 830:	0d03200d 	stceq	0, cr2, [r3, #-52]	; 0xffffffcc
 834:	207303ac 	rsbscs	r0, r3, ip, lsr #7
 838:	03200d03 	teqeq	r0, #192	; 0xc0
 83c:	3d4c200a 	stclcc	0, cr2, [ip, #-40]	; 0xffffffd8
 840:	03201603 	teqeq	r0, #3145728	; 0x300000
 844:	0d033c73 	stceq	12, cr3, [r3, #-460]	; 0xfffffe34
 848:	4b16862e 	blmi	5a2108 <vector_table-0x7a5def8>
 84c:	154f114c 	strbne	r1, [pc, #-332]	; 708 <vector_table-0x7fff8f8>
 850:	00db0367 	sbcseq	r0, fp, r7, ror #6
 854:	3030244a 	eorscc	r2, r0, sl, asr #8
 858:	4b165c31 	blmi	597924 <vector_table-0x7a686dc>
 85c:	154e4d2f 	strbne	r4, [lr, #-3375]	; 0xd2f
 860:	01ae032f 			; <UNDEFINED> instruction: 0x01ae032f
 864:	4b68264a 	blmi	1a0a194 <vector_table-0x65f5e6c>
 868:	212e0903 	teqcs	lr, r3, lsl #18
 86c:	435a212f 	cmpmi	sl, #-1073741813	; 0xc000000b
 870:	00333d36 	eorseq	r3, r3, r6, lsr sp
 874:	06010402 	streq	r0, [r1], -r2, lsl #8
 878:	0402004a 	streq	r0, [r2], #-74	; 0x4a
 87c:	02004a02 	andeq	r4, r0, #8192	; 0x2000
 880:	742e0304 	strtvc	r0, [lr], #-772	; 0x304
 884:	05040200 	streq	r0, [r4, #-512]	; 0x200
 888:	0402002e 	streq	r0, [r2], #-46	; 0x2e
 88c:	02006606 	andeq	r6, r0, #6291456	; 0x600000
 890:	064a0704 	strbeq	r0, [sl], -r4, lsl #14
 894:	7dab03f6 	stcvc	3, cr0, [fp, #984]!	; 0x3d8
 898:	2e0f03c8 	cdpcs	3, 0, cr0, cr15, cr8, {6}
 89c:	4c5a301e 	mrrcmi	0, 1, r3, sl, cr14
 8a0:	2d2f3d44 	stccs	13, cr3, [pc, #-272]!	; 798 <vector_table-0x7fff868>
 8a4:	3eda3d2f 	cdpcc	13, 13, cr3, cr10, cr15, {1}
 8a8:	01040200 	mrseq	r0, R12_usr
 8ac:	033c7503 	teqeq	ip, #12582912	; 0xc00000
 8b0:	2f4e5812 	svccs	0x004e5812
 8b4:	01040200 	mrseq	r0, R12_usr
 8b8:	66100355 			; <UNDEFINED> instruction: 0x66100355
 8bc:	01040200 	mrseq	r0, R12_usr
 8c0:	4d062e06 	stcmi	14, cr2, [r6, #-24]	; 0xffffffe8
 8c4:	43032c3d 	movwmi	r2, #15421	; 0x3c3d
 8c8:	00c4032e 	sbceq	r0, r4, lr, lsr #6
 8cc:	f603313c 			; <UNDEFINED> instruction: 0xf603313c
 8d0:	3025747b 	eorcc	r7, r5, fp, ror r4
 8d4:	332e0e03 	teqcc	lr, #48	; 0x30
 8d8:	24333e4b 	ldrtcs	r3, [r3], #-3659	; 0xe4b
 8dc:	06e4032c 	strbteq	r0, [r4], ip, lsr #6
 8e0:	211f1358 	tstcs	pc, r8, asr r3	; <UNPREDICTABLE>
 8e4:	4a21034e 	bmi	841624 <vector_table-0x77be9dc>
 8e8:	01040200 	mrseq	r0, R12_usr
 8ec:	60089855 	andvs	r9, r8, r5, asr r8
 8f0:	03200b03 	teqeq	r0, #3072	; 0xc00
 8f4:	0b032075 	bleq	c8ad0 <vector_table-0x7f37530>
 8f8:	18034f20 	stmdane	r3, {r5, r8, r9, sl, fp, lr}
 8fc:	2b23214a 	blcs	8c8e2c <vector_table-0x77371d4>
 900:	033c2903 	teqeq	ip, #49152	; 0xc000
 904:	1c242011 	stcne	0, cr2, [r4], #-68	; 0xffffffbc
 908:	4b3e5a22 	blmi	f97198 <vector_table-0x7068e68>
 90c:	36265bc0 	strtcc	r5, [r6], -r0, asr #23
 910:	1f3d14a2 	svcne	0x003d14a2
 914:	204e2121 	subcs	r2, lr, r1, lsr #2
 918:	2e0d0334 	mcrcs	3, 0, r0, cr13, cr4, {1}
 91c:	01040200 	mrseq	r0, R12_usr
 920:	52067406 	andpl	r7, r6, #100663296	; 0x6000000
 924:	221f2169 	andscs	r2, pc, #1073741850	; 0x4000001a
 928:	23413d1e 	movtcs	r3, #7454	; 0x1d1e
 92c:	4b135c31 	blmi	4d79f8 <vector_table-0x7b28608>
 930:	01000402 	tsteq	r0, r2, lsl #8
 934:	00001901 	andeq	r1, r0, r1, lsl #18
 938:	13000200 	movwne	r0, #512	; 0x200
 93c:	02000000 	andeq	r0, r0, #0
 940:	0d0efb01 	vstreq	d15, [lr, #-4]
 944:	01010100 	mrseq	r0, (UNDEF: 17)
 948:	00000001 	andeq	r0, r0, r1
 94c:	01000001 	tsteq	r0, r1
 950:	00e00000 	rsceq	r0, r0, r0
 954:	00020000 	andeq	r0, r2, r0
 958:	00000089 	andeq	r0, r0, r9, lsl #1
 95c:	0efb0102 	cdpeq	1, 15, cr0, cr11, cr2, {0}
 960:	0101000d 	tsteq	r1, sp
 964:	00000101 	andeq	r0, r0, r1, lsl #2
 968:	00000100 	andeq	r0, r0, r0, lsl #2
 96c:	2f2e2e01 	svccs	0x002e2e01
 970:	65657246 	strbvs	r7, [r5, #-582]!	; 0x246
 974:	534f5452 	movtpl	r5, #62546	; 0xf452
 978:	312e3756 	teqcc	lr, r6, asr r7
 97c:	532f312e 	teqpl	pc, #-2147483637	; 0x8000000b
 980:	6372756f 	cmnvs	r2, #465567744	; 0x1bc00000
 984:	6f702f65 	svcvs	0x00702f65
 988:	62617472 	rsbvs	r7, r1, #1912602624	; 0x72000000
 98c:	472f656c 	strmi	r6, [pc, -ip, ror #10]!
 990:	412f4343 	teqmi	pc, r3, asr #6
 994:	435f4d52 	cmpmi	pc, #5248	; 0x1480
 998:	2e00334d 	cdpcs	3, 0, cr3, cr0, cr13, {2}
 99c:	72462f2e 	subvc	r2, r6, #184	; 0xb8
 9a0:	54526565 	ldrbpl	r6, [r2], #-1381	; 0x565
 9a4:	3756534f 	ldrbcc	r5, [r6, -pc, asr #6]
 9a8:	312e312e 	teqcc	lr, lr, lsr #2
 9ac:	756f532f 	strbvc	r5, [pc, #-815]!	; 685 <vector_table-0x7fff97b>
 9b0:	2f656372 	svccs	0x00656372
 9b4:	6c636e69 	stclvs	14, cr6, [r3], #-420	; 0xfffffe5c
 9b8:	00656475 	rsbeq	r6, r5, r5, ror r4
 9bc:	726f7000 	rsbvc	r7, pc, #0
 9c0:	00632e74 	rsbeq	r2, r3, r4, ror lr
 9c4:	70000001 	andvc	r0, r0, r1
 9c8:	646a6f72 	strbtvs	r6, [sl], #-3954	; 0xf72
 9cc:	2e736665 	cdpcs	6, 7, cr6, cr3, cr5, {3}
 9d0:	00020068 	andeq	r0, r2, r8, rrx
 9d4:	726f7000 	rsbvc	r7, pc, #0
 9d8:	63616d74 	cmnvs	r1, #7424	; 0x1d00
 9dc:	682e6f72 	stmdavs	lr!, {r1, r4, r5, r6, r8, r9, sl, fp, sp, lr}
 9e0:	00000100 	andeq	r0, r0, r0, lsl #2
 9e4:	02050000 	andeq	r0, r5, #0
 9e8:	08000cbc 	stmdaeq	r0, {r2, r3, r4, r5, r7, sl, fp}
 9ec:	0101a403 	tsteq	r1, r3, lsl #8
 9f0:	82090313 	andhi	r0, r9, #1275068416	; 0x4c000000
 9f4:	23015103 	movwcs	r5, #4355	; 0x1103
 9f8:	3e304c21 	cdpcc	12, 3, cr4, cr0, cr1, {1}
 9fc:	03134032 	tsteq	r3, #50	; 0x32
 a00:	1503f20e 	strne	pc, [r3, #-526]	; 0x20e
 a04:	221e1401 	andscs	r1, lr, #16777216	; 0x1000000
 a08:	20780328 	rsbscs	r0, r8, r8, lsr #6
 a0c:	00eb033d 	rsceq	r0, fp, sp, lsr r3
 a10:	9b034b4a 	blls	d3740 <vector_table-0x7f2c8c0>
 a14:	32313c7f 	eorscc	r3, r1, #32512	; 0x7f00
 a18:	14241586 	strtne	r1, [r4], #-1414	; 0x586
 a1c:	4b13404b 	blmi	4d0b50 <vector_table-0x7b2f4b0>
 a20:	4b134e4b 	blmi	4d4354 <vector_table-0x7b2bcac>
 a24:	03157a22 	tsteq	r5, #139264	; 0x22000
 a28:	16c8081c 			; <UNDEFINED> instruction: 0x16c8081c
 a2c:	304c4d25 	subcc	r4, ip, r5, lsr #26
 a30:	0005024b 	andeq	r0, r5, fp, asr #4
 a34:	00dd0101 	sbcseq	r0, sp, r1, lsl #2
 a38:	00020000 	andeq	r0, r2, r0
 a3c:	000000a7 	andeq	r0, r0, r7, lsr #1
 a40:	0efb0102 	cdpeq	1, 15, cr0, cr11, cr2, {0}
 a44:	0101000d 	tsteq	r1, sp
 a48:	00000101 	andeq	r0, r0, r1, lsl #2
 a4c:	00000100 	andeq	r0, r0, r0, lsl #2
 a50:	2f2e2e01 	svccs	0x002e2e01
 a54:	65657246 	strbvs	r7, [r5, #-582]!	; 0x246
 a58:	534f5452 	movtpl	r5, #62546	; 0xf452
 a5c:	312e3756 	teqcc	lr, r6, asr r7
 a60:	532f312e 	teqpl	pc, #-2147483637	; 0x8000000b
 a64:	6372756f 	cmnvs	r2, #465567744	; 0x1bc00000
 a68:	6f702f65 	svcvs	0x00702f65
 a6c:	62617472 	rsbvs	r7, r1, #1912602624	; 0x72000000
 a70:	4d2f656c 	cfstr32mi	mvfx6, [pc, #-432]!	; 8c8 <vector_table-0x7fff738>
 a74:	614d6d65 	cmpvs	sp, r5, ror #26
 a78:	2f00676e 	svccs	0x0000676e
 a7c:	2f74706f 	svccs	0x0074706f
 a80:	70706773 	rsbsvc	r6, r0, r3, ror r7
 a84:	74696c2d 	strbtvc	r6, [r9], #-3117	; 0xc2d
 a88:	72612d65 	rsbvc	r2, r1, #6464	; 0x1940
 a8c:	61652d6d 	cmnvs	r5, sp, ror #26
 a90:	622d6962 	eorvs	r6, sp, #1605632	; 0x188000
 a94:	322d6e69 	eorcc	r6, sp, #1680	; 0x690
 a98:	2e303130 	mrccs	1, 1, r3, cr0, cr0, {1}
 a9c:	352e3930 	strcc	r3, [lr, #-2352]!	; 0x930
 aa0:	69622f31 	stmdbvs	r2!, {r0, r4, r5, r8, r9, sl, fp, sp}^
 aa4:	2e2e2f6e 	cdpcs	15, 2, cr2, cr14, cr14, {3}
 aa8:	62696c2f 	rsbvs	r6, r9, #12032	; 0x2f00
 aac:	6363672f 	cmnvs	r3, #12320768	; 0xbc0000
 ab0:	6d72612f 	ldfvse	f6, [r2, #-188]!	; 0xffffff44
 ab4:	6e6f6e2d 	cdpvs	14, 6, cr6, cr15, cr13, {1}
 ab8:	61652d65 	cmnvs	r5, r5, ror #26
 abc:	342f6962 	strtcc	r6, [pc], #-2402	; ac4 <vector_table-0x7fff53c>
 ac0:	312e352e 	teqcc	lr, lr, lsr #10
 ac4:	636e692f 	cmnvs	lr, #770048	; 0xbc000
 ac8:	6564756c 	strbvs	r7, [r4, #-1388]!	; 0x56c
 acc:	65680000 	strbvs	r0, [r8, #-0]!
 ad0:	315f7061 	cmpcc	pc, r1, rrx
 ad4:	0100632e 	tsteq	r0, lr, lsr #6
 ad8:	74730000 	ldrbtvc	r0, [r3], #-0
 adc:	66656464 	strbtvs	r6, [r5], -r4, ror #8
 ae0:	0200682e 	andeq	r6, r0, #3014656	; 0x2e0000
 ae4:	00000000 	andeq	r0, r0, r0
 ae8:	0dec0205 	sfmeq	f0, 2, [ip, #20]!
 aec:	e6030800 	str	r0, [r3], -r0, lsl #16
 af0:	29170100 	ldmdbcs	r7, {r8}
 af4:	314e2820 	cmpcc	lr, r0, lsr #16
 af8:	01040200 	mrseq	r0, R12_usr
 afc:	33066606 	movwcc	r6, #26118	; 0x6606
 b00:	2e6c033d 	mcrcs	3, 3, r0, cr12, cr13, {1}
 b04:	03201703 	teqeq	r0, #786432	; 0xc0000
 b08:	174e2e0d 	strbne	r2, [lr, -sp, lsl #28]
 b0c:	4e3d1424 	cdpmi	4, 3, cr1, cr13, cr4, {1}
 b10:	06022f13 			; <UNDEFINED> instruction: 0x06022f13
 b14:	Address 0x0000000000000b14 is out of bounds.


Disassembly of section .debug_loc:

00000000 <.debug_loc>:
       0:	00000002 	andeq	r0, r0, r2
       4:	00000004 	andeq	r0, r0, r4
       8:	007d0002 	rsbseq	r0, sp, r2
       c:	00000004 	andeq	r0, r0, r4
      10:	0000002c 	andeq	r0, r0, ip, lsr #32
      14:	187d0002 	ldmdane	sp!, {r1}^
	...
      20:	00000030 	andeq	r0, r0, r0, lsr r0
      24:	00000032 	andeq	r0, r0, r2, lsr r0
      28:	00500001 	subseq	r0, r0, r1
      2c:	00000000 	andeq	r0, r0, r0
      30:	36000000 	strcc	r0, [r0], -r0
      34:	3a000000 	bcc	3c <vector_table-0x7ffffc4>
      38:	02000000 	andeq	r0, r0, #0
      3c:	3a007d00 	bcc	1f444 <vector_table-0x7fe0bbc>
      40:	68000000 	stmdavs	r0, {}	; <UNPREDICTABLE>
      44:	02000000 	andeq	r0, r0, #0
      48:	00087d00 	andeq	r7, r8, r0, lsl #26
      4c:	00000000 	andeq	r0, r0, r0
      50:	42000000 	andmi	r0, r0, #0
      54:	44000000 	strmi	r0, [r0], #-0
      58:	01000000 	mrseq	r0, (UNDEF: 0)
      5c:	00485300 	subeq	r5, r8, r0, lsl #6
      60:	004c0000 	subeq	r0, ip, r0
      64:	00010000 	andeq	r0, r1, r0
      68:	00004c53 	andeq	r4, r0, r3, asr ip
      6c:	00006200 	andeq	r6, r0, r0, lsl #4
      70:	53000100 	movwpl	r0, #256	; 0x100
      74:	00000062 	andeq	r0, r0, r2, rrx
      78:	00000068 	andeq	r0, r0, r8, rrx
      7c:	08710002 	ldmdaeq	r1!, {r1}^
	...
      8c:	00000004 	andeq	r0, r0, r4
      90:	007d0002 	rsbseq	r0, sp, r2
      94:	00000004 	andeq	r0, r0, r4
      98:	000000b4 	strheq	r0, [r0], -r4
      9c:	287d0002 	ldmdacs	sp!, {r1}^
	...
      ac:	00000008 	andeq	r0, r0, r8
      b0:	08500001 	ldmdaeq	r0, {r0}^
      b4:	b4000000 	strlt	r0, [r0], #-0
      b8:	01000000 	mrseq	r0, (UNDEF: 0)
      bc:	00005400 	andeq	r5, r0, r0, lsl #8
	...
      c8:	000f0000 	andeq	r0, pc, r0
      cc:	00010000 	andeq	r0, r1, r0
      d0:	00000f51 	andeq	r0, r0, r1, asr pc
      d4:	00005e00 	andeq	r5, r0, r0, lsl #28
      d8:	55000100 	strpl	r0, [r0, #-256]	; 0x100
      dc:	0000005e 	andeq	r0, r0, lr, asr r0
      e0:	000000a8 	andeq	r0, r0, r8, lsr #1
      e4:	a8590001 	ldmdage	r9, {r0}^
      e8:	b4000000 	strlt	r0, [r0], #-0
      ec:	01000000 	mrseq	r0, (UNDEF: 0)
      f0:	00005500 	andeq	r5, r0, r0, lsl #10
	...
      fc:	000f0000 	andeq	r0, pc, r0
     100:	00010000 	andeq	r0, r1, r0
     104:	00000f52 	andeq	r0, r0, r2, asr pc
     108:	0000b400 	andeq	fp, r0, r0, lsl #8
     10c:	5b000100 	blpl	514 <vector_table-0x7fffaec>
	...
     118:	000000a2 	andeq	r0, r0, r2, lsr #1
     11c:	000000a8 	andeq	r0, r0, r8, lsr #1
     120:	9f310002 	svcls	0x00310002
     124:	000000ac 	andeq	r0, r0, ip, lsr #1
     128:	000000b4 	strheq	r0, [r0], -r4
     12c:	00500001 	subseq	r0, r0, r1
     130:	00000000 	andeq	r0, r0, r0
     134:	10000000 	andne	r0, r0, r0
     138:	24000000 	strcs	r0, [r0], #-0
     13c:	01000000 	mrseq	r0, (UNDEF: 0)
     140:	00245000 	eoreq	r5, r4, r0
     144:	00b40000 	adcseq	r0, r4, r0
     148:	00010000 	andeq	r0, r1, r0
     14c:	00000056 	andeq	r0, r0, r6, asr r0
     150:	00000000 	andeq	r0, r0, r0
     154:	00002200 	andeq	r2, r0, r0, lsl #4
     158:	00002800 	andeq	r2, r0, r0, lsl #16
     15c:	30000200 	andcc	r0, r0, r0, lsl #4
     160:	0000289f 	muleq	r0, pc, r8	; <UNPREDICTABLE>
     164:	00003400 	andeq	r3, r0, r0, lsl #8
     168:	31000200 	mrscc	r0, R8_usr
     16c:	0000349f 	muleq	r0, pc, r4	; <UNPREDICTABLE>
     170:	00005400 	andeq	r5, r0, r0, lsl #8
     174:	32000200 	andcc	r0, r0, #0
     178:	0000009f 	muleq	r0, pc, r0	; <UNPREDICTABLE>
     17c:	00000000 	andeq	r0, r0, r0
     180:	0000b400 	andeq	fp, r0, r0, lsl #8
     184:	0000b600 	andeq	fp, r0, r0, lsl #12
     188:	7d000200 	sfmvc	f0, 4, [r0, #-0]
     18c:	0000b600 	andeq	fp, r0, r0, lsl #12
     190:	0000f000 	andeq	pc, r0, r0
     194:	7d000200 	sfmvc	f0, 4, [r0, #-0]
     198:	00000010 	andeq	r0, r0, r0, lsl r0
     19c:	00000000 	andeq	r0, r0, r0
     1a0:	0000b400 	andeq	fp, r0, r0, lsl #8
     1a4:	0000c000 	andeq	ip, r0, r0
     1a8:	50000100 	andpl	r0, r0, r0, lsl #2
	...
     1b4:	000000b4 	strheq	r0, [r0], -r4
     1b8:	000000c5 	andeq	r0, r0, r5, asr #1
     1bc:	c5510001 	ldrbgt	r0, [r1, #-1]
     1c0:	f0000000 			; <UNDEFINED> instruction: 0xf0000000
     1c4:	01000000 	mrseq	r0, (UNDEF: 0)
     1c8:	00005500 	andeq	r5, r0, r0, lsl #10
     1cc:	00000000 	andeq	r0, r0, r0
     1d0:	00f00000 	rscseq	r0, r0, r0
     1d4:	00f20000 	rscseq	r0, r2, r0
     1d8:	00020000 	andeq	r0, r2, r0
     1dc:	00f2007d 	rscseq	r0, r2, sp, ror r0
     1e0:	02080000 	andeq	r0, r8, #0
     1e4:	00020000 	andeq	r0, r2, r0
     1e8:	0000107d 	andeq	r1, r0, sp, ror r0
     1ec:	00000000 	andeq	r0, r0, r0
     1f0:	01000000 	mrseq	r0, (UNDEF: 0)
     1f4:	01300000 	teqeq	r0, r0
     1f8:	00010000 	andeq	r0, r1, r0
     1fc:	00000054 	andeq	r0, r0, r4, asr r0
     200:	00000000 	andeq	r0, r0, r0
     204:	00016200 	andeq	r6, r1, r0, lsl #4
     208:	0001aa00 	andeq	sl, r1, r0, lsl #20
     20c:	55000100 	strpl	r0, [r0, #-256]	; 0x100
	...
     218:	00000156 	andeq	r0, r0, r6, asr r1
     21c:	0000015e 	andeq	r0, r0, lr, asr r1
     220:	70030005 	andvc	r0, r3, r5
     224:	00200000 	eoreq	r0, r0, r0
     228:	00000000 	andeq	r0, r0, r0
     22c:	dc000000 	stcle	0, cr0, [r0], {-0}
     230:	f2000001 	vhadd.s8	d0, d0, d1
     234:	0b000001 	bleq	240 <vector_table-0x7fffdc0>
     238:	44007300 	strmi	r7, [r0], #-768	; 0x300
     23c:	000c031e 	andeq	r0, ip, lr, lsl r3
     240:	9f222000 	svcls	0x00222000
     244:	000001f2 	strdeq	r0, [r0], -r2
     248:	000001fd 	strdeq	r0, [r0], -sp
     24c:	7803000f 	stmdavc	r3, {r0, r1, r2, r3}
     250:	06200000 	strteq	r0, [r0], -r0
     254:	0c031e44 	stceq	14, cr1, [r3], {68}	; 0x44
     258:	22200000 	eorcs	r0, r0, #0
     25c:	0000009f 	muleq	r0, pc, r0	; <UNPREDICTABLE>
     260:	00000000 	andeq	r0, r0, r0
     264:	00020800 	andeq	r0, r2, r0, lsl #16
     268:	00020a00 	andeq	r0, r2, r0, lsl #20
     26c:	7d000200 	sfmvc	f0, 4, [r0, #-0]
     270:	00020a00 	andeq	r0, r2, r0, lsl #20
     274:	00023800 	andeq	r3, r2, r0, lsl #16
     278:	7d000200 	sfmvc	f0, 4, [r0, #-0]
     27c:	00000010 	andeq	r0, r0, r0, lsl r0
     280:	00000000 	andeq	r0, r0, r0
     284:	00020800 	andeq	r0, r2, r0, lsl #16
     288:	00021600 	andeq	r1, r2, r0, lsl #12
     28c:	50000100 	andpl	r0, r0, r0, lsl #2
	...
     29c:	00000002 	andeq	r0, r0, r2
     2a0:	007d0002 	rsbseq	r0, sp, r2
     2a4:	00000002 	andeq	r0, r0, r2
     2a8:	00000026 	andeq	r0, r0, r6, lsr #32
     2ac:	0c7d0002 	ldcleq	0, cr0, [sp], #-8
	...
     2bc:	00000012 	andeq	r0, r0, r2, lsl r0
     2c0:	12500001 	subsne	r0, r0, #1
     2c4:	23000000 	movwcs	r0, #0
     2c8:	01000000 	mrseq	r0, (UNDEF: 0)
     2cc:	00245300 	eoreq	r5, r4, r0, lsl #6
     2d0:	00260000 	eoreq	r0, r6, r0
     2d4:	00010000 	andeq	r0, r1, r0
     2d8:	00000050 	andeq	r0, r0, r0, asr r0
	...
     2e4:	00001c00 	andeq	r1, r0, r0, lsl #24
     2e8:	51000100 	mrspl	r0, (UNDEF: 16)
     2ec:	0000001c 	andeq	r0, r0, ip, lsl r0
     2f0:	00000023 	andeq	r0, r0, r3, lsr #32
     2f4:	24500001 	ldrbcs	r0, [r0], #-1
     2f8:	26000000 	strcs	r0, [r0], -r0
     2fc:	01000000 	mrseq	r0, (UNDEF: 0)
     300:	00005100 	andeq	r5, r0, r0, lsl #2
     304:	00000000 	andeq	r0, r0, r0
     308:	00260000 	eoreq	r0, r6, r0
     30c:	002c0000 	eoreq	r0, ip, r0
     310:	00020000 	andeq	r0, r2, r0
     314:	002c007d 	eoreq	r0, ip, sp, ror r0
     318:	00700000 	rsbseq	r0, r0, r0
     31c:	00020000 	andeq	r0, r2, r0
     320:	0000087d 	andeq	r0, r0, sp, ror r8
     324:	00000000 	andeq	r0, r0, r0
     328:	00260000 	eoreq	r0, r6, r0
     32c:	00340000 	eorseq	r0, r4, r0
     330:	00010000 	andeq	r0, r1, r0
     334:	00003450 	andeq	r3, r0, r0, asr r4
     338:	00007000 	andeq	r7, r0, r0
     33c:	54000100 	strpl	r0, [r0], #-256	; 0x100
	...
     348:	00000026 	andeq	r0, r0, r6, lsr #32
     34c:	00000037 	andeq	r0, r0, r7, lsr r0
     350:	4c510001 	mrrcmi	0, 0, r0, r1, cr1
     354:	51000000 	mrspl	r0, (UNDEF: 0)
     358:	01000000 	mrseq	r0, (UNDEF: 0)
     35c:	00005100 	andeq	r5, r0, r0, lsl #2
     360:	00000000 	andeq	r0, r0, r0
     364:	00260000 	eoreq	r0, r6, r0
     368:	002a0000 	eoreq	r0, sl, r0
     36c:	00010000 	andeq	r0, r1, r0
     370:	00002a52 	andeq	r2, r0, r2, asr sl
     374:	00003700 	andeq	r3, r0, r0, lsl #14
     378:	53000100 	movwpl	r0, #256	; 0x100
     37c:	0000004c 	andeq	r0, r0, ip, asr #32
     380:	00000051 	andeq	r0, r0, r1, asr r0
     384:	00530001 	subseq	r0, r3, r1
     388:	00000000 	andeq	r0, r0, r0
     38c:	70000000 	andvc	r0, r0, r0
     390:	72000000 	andvc	r0, r0, #0
     394:	02000000 	andeq	r0, r0, #0
     398:	72007d00 	andvc	r7, r0, #0
     39c:	d4000000 	strle	r0, [r0], #-0
     3a0:	02000000 	andeq	r0, r0, #0
     3a4:	00087d00 	andeq	r7, r8, r0, lsl #26
     3a8:	00000000 	andeq	r0, r0, r0
     3ac:	70000000 	andvc	r0, r0, r0
     3b0:	77000000 	strvc	r0, [r0, -r0]
     3b4:	01000000 	mrseq	r0, (UNDEF: 0)
     3b8:	00775000 	rsbseq	r5, r7, r0
     3bc:	00d40000 	sbcseq	r0, r4, r0
     3c0:	00010000 	andeq	r0, r1, r0
     3c4:	00000054 	andeq	r0, r0, r4, asr r0
     3c8:	00000000 	andeq	r0, r0, r0
     3cc:	0000d400 	andeq	sp, r0, r0, lsl #8
     3d0:	0000d800 	andeq	sp, r0, r0, lsl #16
     3d4:	7d000200 	sfmvc	f0, 4, [r0, #-0]
     3d8:	0000d800 	andeq	sp, r0, r0, lsl #16
     3dc:	00011e00 	andeq	r1, r1, r0, lsl #28
     3e0:	7d000200 	sfmvc	f0, 4, [r0, #-0]
     3e4:	00000008 	andeq	r0, r0, r8
     3e8:	00000000 	andeq	r0, r0, r0
     3ec:	0000d400 	andeq	sp, r0, r0, lsl #8
     3f0:	0000e000 	andeq	lr, r0, r0
     3f4:	50000100 	andpl	r0, r0, r0, lsl #2
     3f8:	000000e0 	andeq	r0, r0, r0, ror #1
     3fc:	0000011e 	andeq	r0, r0, lr, lsl r1
     400:	00540001 	subseq	r0, r4, r1
     404:	00000000 	andeq	r0, r0, r0
     408:	d4000000 	strle	r0, [r0], #-0
     40c:	ea000000 	b	414 <vector_table-0x7fffbec>
     410:	01000000 	mrseq	r0, (UNDEF: 0)
     414:	011a5100 	tsteq	sl, r0, lsl #2
     418:	011e0000 	tsteq	lr, r0
     41c:	00010000 	andeq	r0, r1, r0
     420:	00000051 	andeq	r0, r0, r1, asr r0
     424:	00000000 	andeq	r0, r0, r0
     428:	0000d400 	andeq	sp, r0, r0, lsl #8
     42c:	0000de00 	andeq	sp, r0, r0, lsl #28
     430:	31000200 	mrscc	r0, R8_usr
     434:	0000de9f 	muleq	r0, pc, lr	; <UNPREDICTABLE>
     438:	0000e400 	andeq	lr, r0, r0, lsl #8
     43c:	73000500 	movwvc	r0, #1280	; 0x500
     440:	9f293000 	svcls	0x00293000
     444:	0000011a 	andeq	r0, r0, sl, lsl r1
     448:	0000011e 	andeq	r0, r0, lr, lsl r1
     44c:	00730005 	rsbseq	r0, r3, r5
     450:	009f2930 	addseq	r2, pc, r0, lsr r9	; <UNPREDICTABLE>
     454:	00000000 	andeq	r0, r0, r0
     458:	1e000000 	cdpne	0, 0, cr0, cr0, cr0, {0}
     45c:	20000001 	andcs	r0, r0, r1
     460:	02000001 	andeq	r0, r0, #1
     464:	20007d00 	andcs	r7, r0, r0, lsl #26
     468:	5e000001 	cdppl	0, 0, cr0, cr0, cr1, {0}
     46c:	02000001 	andeq	r0, r0, #1
     470:	00187d00 	andseq	r7, r8, r0, lsl #26
     474:	00000000 	andeq	r0, r0, r0
     478:	1e000000 	cdpne	0, 0, cr0, cr0, cr0, {0}
     47c:	28000001 	stmdacs	r0, {r0}
     480:	01000001 	tsteq	r0, r1
     484:	01285000 	teqeq	r8, r0
     488:	015e0000 	cmpeq	lr, r0
     48c:	00010000 	andeq	r0, r1, r0
     490:	00000055 	andeq	r0, r0, r5, asr r0
     494:	00000000 	andeq	r0, r0, r0
     498:	00011e00 	andeq	r1, r1, r0, lsl #28
     49c:	00012b00 	andeq	r2, r1, r0, lsl #22
     4a0:	51000100 	mrspl	r0, (UNDEF: 16)
     4a4:	0000012b 	andeq	r0, r0, fp, lsr #2
     4a8:	0000015e 	andeq	r0, r0, lr, asr r1
     4ac:	00570001 	subseq	r0, r7, r1
     4b0:	00000000 	andeq	r0, r0, r0
     4b4:	1e000000 	cdpne	0, 0, cr0, cr0, cr0, {0}
     4b8:	2b000001 	blcs	4c4 <vector_table-0x7fffb3c>
     4bc:	01000001 	tsteq	r0, r1
     4c0:	01585200 	cmpeq	r8, r0, lsl #4
     4c4:	015a0000 	cmpeq	sl, r0
     4c8:	00010000 	andeq	r0, r1, r0
     4cc:	00000052 	andeq	r0, r0, r2, asr r0
     4d0:	00000000 	andeq	r0, r0, r0
     4d4:	00012c00 	andeq	r2, r1, r0, lsl #24
     4d8:	00013400 	andeq	r3, r1, r0, lsl #8
     4dc:	50000100 	andpl	r0, r0, r0, lsl #2
     4e0:	00000134 	andeq	r0, r0, r4, lsr r1
     4e4:	00000156 	andeq	r0, r0, r6, asr r1
     4e8:	00540001 	subseq	r0, r4, r1
     4ec:	00000000 	andeq	r0, r0, r0
     4f0:	30000000 	andcc	r0, r0, r0
     4f4:	58000001 	stmdapl	r0, {r0}
     4f8:	08000001 	stmdaeq	r0, {r0}
     4fc:	75007700 	strvc	r7, [r0, #-1792]	; 0x700
     500:	01231e00 	teqeq	r3, r0, lsl #28
     504:	0000009f 	muleq	r0, pc, r0	; <UNPREDICTABLE>
     508:	00000000 	andeq	r0, r0, r0
     50c:	00011e00 	andeq	r1, r1, r0, lsl #28
     510:	00014c00 	andeq	r4, r1, r0, lsl #24
     514:	30000200 	andcc	r0, r0, r0, lsl #4
     518:	00014c9f 	muleq	r1, pc, ip	; <UNPREDICTABLE>
     51c:	00014e00 	andeq	r4, r1, r0, lsl #28
     520:	54000100 	strpl	r0, [r0], #-256	; 0x100
     524:	0000014e 	andeq	r0, r0, lr, asr #2
     528:	0000015a 	andeq	r0, r0, sl, asr r1
     52c:	9f300002 	svcls	0x00300002
     530:	0000015a 	andeq	r0, r0, sl, asr r1
     534:	0000015e 	andeq	r0, r0, lr, asr r1
     538:	00540001 	subseq	r0, r4, r1
     53c:	00000000 	andeq	r0, r0, r0
     540:	5e000000 	cdppl	0, 0, cr0, cr0, cr0, {0}
     544:	62000001 	andvs	r0, r0, #1
     548:	02000001 	andeq	r0, r0, #1
     54c:	62007d00 	andvs	r7, r0, #0
     550:	3e000001 	cdpcc	0, 0, cr0, cr0, cr1, {0}
     554:	02000002 	andeq	r0, r0, #2
     558:	00287d00 	eoreq	r7, r8, r0, lsl #26
     55c:	00000000 	andeq	r0, r0, r0
     560:	5e000000 	cdppl	0, 0, cr0, cr0, cr0, {0}
     564:	70000001 	andvc	r0, r0, r1
     568:	01000001 	tsteq	r0, r1
     56c:	01705000 	cmneq	r0, r0
     570:	023e0000 	eorseq	r0, lr, #0
     574:	00010000 	andeq	r0, r1, r0
     578:	00000054 	andeq	r0, r0, r4, asr r0
     57c:	00000000 	andeq	r0, r0, r0
     580:	00015e00 	andeq	r5, r1, r0, lsl #28
     584:	00017000 	andeq	r7, r1, r0
     588:	51000100 	mrspl	r0, (UNDEF: 16)
     58c:	00000170 	andeq	r0, r0, r0, ror r1
     590:	0000023e 	andeq	r0, r0, lr, lsr r2
     594:	00550001 	subseq	r0, r5, r1
     598:	00000000 	andeq	r0, r0, r0
     59c:	5e000000 	cdppl	0, 0, cr0, cr0, cr0, {0}
     5a0:	62000001 	andvs	r0, r0, #1
     5a4:	01000001 	tsteq	r0, r1
     5a8:	01665200 	cmneq	r6, r0, lsl #4
     5ac:	01700000 	cmneq	r0, r0
     5b0:	00010000 	andeq	r0, r1, r0
     5b4:	00017052 	andeq	r7, r1, r2, asr r0
     5b8:	00023e00 	andeq	r3, r2, r0, lsl #28
     5bc:	91000200 	mrsls	r0, R8_usr
     5c0:	0000005c 	andeq	r0, r0, ip, asr r0
     5c4:	00000000 	andeq	r0, r0, r0
     5c8:	00015e00 	andeq	r5, r1, r0, lsl #28
     5cc:	00017000 	andeq	r7, r1, r0
     5d0:	53000100 	movwpl	r0, #256	; 0x100
     5d4:	00000170 	andeq	r0, r0, r0, ror r1
     5d8:	0000023e 	andeq	r0, r0, lr, lsr r2
     5dc:	00560001 	subseq	r0, r6, r1
     5e0:	00000000 	andeq	r0, r0, r0
     5e4:	5e000000 	cdppl	0, 0, cr0, cr0, cr0, {0}
     5e8:	70000001 	andvc	r0, r0, r1
     5ec:	02000001 	andeq	r0, r0, #1
     5f0:	709f3000 	addsvc	r3, pc, r0
     5f4:	74000001 	strvc	r0, [r0], #-1
     5f8:	02000001 	andeq	r0, r0, #1
     5fc:	749f3100 	ldrvc	r3, [pc], #256	; 604 <vector_table-0x7fff9fc>
     600:	be000001 	cdplt	0, 0, cr0, cr0, cr1, {0}
     604:	01000001 	tsteq	r0, r1
     608:	01be5800 			; <UNDEFINED> instruction: 0x01be5800
     60c:	02380000 	eorseq	r0, r8, #0
     610:	00020000 	andeq	r0, r2, r0
     614:	00009f31 	andeq	r9, r0, r1, lsr pc
     618:	00000000 	andeq	r0, r0, r0
     61c:	01700000 	cmneq	r0, r0
     620:	01740000 	cmneq	r4, r0
     624:	00010000 	andeq	r0, r1, r0
     628:	0001f054 	andeq	pc, r1, r4, asr r0	; <UNPREDICTABLE>
     62c:	00022c00 	andeq	r2, r2, r0, lsl #24
     630:	54000100 	strpl	r0, [r0], #-256	; 0x100
	...
     63c:	00000170 	andeq	r0, r0, r0, ror r1
     640:	00000174 	andeq	r0, r0, r4, ror r1
     644:	00780006 	rsbseq	r0, r8, r6
     648:	9f290077 	svcls	0x00290077
     64c:	000001fa 	strdeq	r0, [r0], -sl
     650:	000001fd 	strdeq	r0, [r0], -sp
     654:	00780007 	rsbseq	r0, r8, r7
     658:	29063c74 	stmdbcs	r6, {r2, r4, r5, r6, sl, fp, ip, sp}
     65c:	0001fd9f 	muleq	r1, pc, sp	; <UNPREDICTABLE>
     660:	00022c00 	andeq	r2, r2, r0, lsl #24
     664:	78000600 	stmdavc	r0, {r9, sl}
     668:	29007700 	stmdbcs	r0, {r8, r9, sl, ip, sp, lr}
     66c:	0000009f 	muleq	r0, pc, r0	; <UNPREDICTABLE>
     670:	00000000 	andeq	r0, r0, r0
     674:	00023e00 	andeq	r3, r2, r0, lsl #28
     678:	00024000 	andeq	r4, r2, r0
     67c:	7d000200 	sfmvc	f0, 4, [r0, #-0]
     680:	00024000 	andeq	r4, r2, r0
     684:	00029000 	andeq	r9, r2, r0
     688:	7d000200 	sfmvc	f0, 4, [r0, #-0]
     68c:	00000010 	andeq	r0, r0, r0, lsl r0
     690:	00000000 	andeq	r0, r0, r0
     694:	00023e00 	andeq	r3, r2, r0, lsl #28
     698:	00024c00 	andeq	r4, r2, r0, lsl #24
     69c:	50000100 	andpl	r0, r0, r0, lsl #2
     6a0:	0000024c 	andeq	r0, r0, ip, asr #4
     6a4:	00000290 	muleq	r0, r0, r2
     6a8:	00540001 	subseq	r0, r4, r1
     6ac:	00000000 	andeq	r0, r0, r0
     6b0:	3e000000 	cdpcc	0, 0, cr0, cr0, cr0, {0}
     6b4:	5b000002 	blpl	6c4 <vector_table-0x7fff93c>
     6b8:	01000002 	tsteq	r0, r2
     6bc:	027e5100 	rsbseq	r5, lr, #0
     6c0:	02820000 	addeq	r0, r2, #0
     6c4:	00010000 	andeq	r0, r1, r0
     6c8:	00000051 	andeq	r0, r0, r1, asr r0
     6cc:	00000000 	andeq	r0, r0, r0
     6d0:	00023e00 	andeq	r3, r2, r0, lsl #28
     6d4:	00025000 	andeq	r5, r2, r0
     6d8:	52000100 	andpl	r0, r0, #0
     6dc:	00000250 	andeq	r0, r0, r0, asr r2
     6e0:	00000290 	muleq	r0, r0, r2
     6e4:	00550001 	subseq	r0, r5, r1
     6e8:	00000000 	andeq	r0, r0, r0
     6ec:	3e000000 	cdpcc	0, 0, cr0, cr0, cr0, {0}
     6f0:	5b000002 	blpl	700 <vector_table-0x7fff900>
     6f4:	01000002 	tsteq	r0, r2
     6f8:	027e5300 	rsbseq	r5, lr, #0
     6fc:	02800000 	addeq	r0, r0, #0
     700:	00010000 	andeq	r0, r1, r0
     704:	00000053 	andeq	r0, r0, r3, asr r0
     708:	00000000 	andeq	r0, r0, r0
     70c:	00029000 	andeq	r9, r2, r0
     710:	00029400 	andeq	r9, r2, r0, lsl #8
     714:	7d000200 	sfmvc	f0, 4, [r0, #-0]
     718:	00029400 	andeq	r9, r2, r0, lsl #8
     71c:	00038000 	andeq	r8, r3, r0
     720:	7d000200 	sfmvc	f0, 4, [r0, #-0]
     724:	00000028 	andeq	r0, r0, r8, lsr #32
     728:	00000000 	andeq	r0, r0, r0
     72c:	00029000 	andeq	r9, r2, r0
     730:	0002a200 	andeq	sl, r2, r0, lsl #4
     734:	50000100 	andpl	r0, r0, r0, lsl #2
     738:	000002a2 	andeq	r0, r0, r2, lsr #5
     73c:	00000380 	andeq	r0, r0, r0, lsl #7
     740:	00540001 	subseq	r0, r4, r1
     744:	00000000 	andeq	r0, r0, r0
     748:	90000000 	andls	r0, r0, r0
     74c:	a2000002 	andge	r0, r0, #2
     750:	01000002 	tsteq	r0, r2
     754:	02a25100 	adceq	r5, r2, #0
     758:	03800000 	orreq	r0, r0, #0
     75c:	00010000 	andeq	r0, r1, r0
     760:	00000055 	andeq	r0, r0, r5, asr r0
     764:	00000000 	andeq	r0, r0, r0
     768:	00029000 	andeq	r9, r2, r0
     76c:	00029400 	andeq	r9, r2, r0, lsl #8
     770:	52000100 	andpl	r0, r0, #0
     774:	00000298 	muleq	r0, r8, r2
     778:	000002a2 	andeq	r0, r0, r2, lsr #5
     77c:	a2520001 	subsge	r0, r2, #1
     780:	80000002 	andhi	r0, r0, r2
     784:	02000003 	andeq	r0, r0, #3
     788:	005c9100 	subseq	r9, ip, r0, lsl #2
     78c:	00000000 	andeq	r0, r0, r0
     790:	90000000 	andls	r0, r0, r0
     794:	a2000002 	andge	r0, r0, #2
     798:	01000002 	tsteq	r0, r2
     79c:	02a25300 	adceq	r5, r2, #0
     7a0:	03800000 	orreq	r0, r0, #0
     7a4:	00010000 	andeq	r0, r1, r0
     7a8:	00000057 	andeq	r0, r0, r7, asr r0
     7ac:	00000000 	andeq	r0, r0, r0
     7b0:	00029000 	andeq	r9, r2, r0
     7b4:	0002a200 	andeq	sl, r2, r0, lsl #4
     7b8:	30000200 	andcc	r0, r0, r0, lsl #4
     7bc:	0002a29f 	muleq	r2, pc, r2	; <UNPREDICTABLE>
     7c0:	0002a600 	andeq	sl, r2, r0, lsl #12
     7c4:	31000200 	mrscc	r0, R8_usr
     7c8:	0002a69f 	muleq	r2, pc, r6	; <UNPREDICTABLE>
     7cc:	00030600 	andeq	r0, r3, r0, lsl #12
     7d0:	58000100 	stmdapl	r0, {r8}
     7d4:	00000306 	andeq	r0, r0, r6, lsl #6
     7d8:	0000037a 	andeq	r0, r0, sl, ror r3
     7dc:	9f310002 	svcls	0x00310002
	...
     7e8:	000002b4 			; <UNDEFINED> instruction: 0x000002b4
     7ec:	000002b7 			; <UNDEFINED> instruction: 0x000002b7
     7f0:	0c740002 	ldcleq	0, cr0, [r4], #-8
     7f4:	000002b7 			; <UNDEFINED> instruction: 0x000002b7
     7f8:	000002ee 	andeq	r0, r0, lr, ror #5
     7fc:	00560001 	subseq	r0, r6, r1
     800:	00000000 	andeq	r0, r0, r0
     804:	a2000000 	andge	r0, r0, #0
     808:	a6000002 	strge	r0, [r0], -r2
     80c:	01000002 	tsteq	r0, r2
     810:	03385400 	teqeq	r8, #0
     814:	036e0000 	cmneq	lr, #0
     818:	00010000 	andeq	r0, r1, r0
     81c:	00000054 	andeq	r0, r0, r4, asr r0
     820:	00000000 	andeq	r0, r0, r0
     824:	0002a200 	andeq	sl, r2, r0, lsl #4
     828:	0002a600 	andeq	sl, r2, r0, lsl #12
     82c:	76000500 	strvc	r0, [r0], -r0, lsl #10
     830:	9f293000 	svcls	0x00293000
     834:	0000033e 	andeq	r0, r0, lr, lsr r3
     838:	0000036e 	andeq	r0, r0, lr, ror #6
     83c:	00760005 	rsbseq	r0, r6, r5
     840:	009f2930 	addseq	r2, pc, r0, lsr r9	; <UNPREDICTABLE>
     844:	00000000 	andeq	r0, r0, r0
     848:	80000000 	andhi	r0, r0, r0
     84c:	82000003 	andhi	r0, r0, #3
     850:	02000003 	andeq	r0, r0, #3
     854:	82007d00 	andhi	r7, r0, #0
     858:	cc000003 	stcgt	0, cr0, [r0], {3}
     85c:	02000003 	andeq	r0, r0, #3
     860:	00107d00 	andseq	r7, r0, r0, lsl #26
     864:	00000000 	andeq	r0, r0, r0
     868:	80000000 	andhi	r0, r0, r0
     86c:	8e000003 	cdphi	0, 0, cr0, cr0, cr3, {0}
     870:	01000003 	tsteq	r0, r3
     874:	038e5000 	orreq	r5, lr, #0
     878:	03cc0000 	biceq	r0, ip, #0
     87c:	00010000 	andeq	r0, r1, r0
     880:	00000054 	andeq	r0, r0, r4, asr r0
     884:	00000000 	andeq	r0, r0, r0
     888:	00038000 	andeq	r8, r3, r0
     88c:	00039700 	andeq	r9, r3, r0, lsl #14
     890:	51000100 	mrspl	r0, (UNDEF: 16)
	...
     89c:	00000380 	andeq	r0, r0, r0, lsl #7
     8a0:	00000397 	muleq	r0, r7, r3
     8a4:	97520001 	ldrbls	r0, [r2, -r1]
     8a8:	cc000003 	stcgt	0, cr0, [r0], {3}
     8ac:	01000003 	tsteq	r0, r3
     8b0:	00005500 	andeq	r5, r0, r0, lsl #10
     8b4:	00000000 	andeq	r0, r0, r0
     8b8:	03cc0000 	biceq	r0, ip, #0
     8bc:	03ce0000 	biceq	r0, lr, #0
     8c0:	00020000 	andeq	r0, r2, r0
     8c4:	03ce007d 	biceq	r0, lr, #125	; 0x7d
     8c8:	03de0000 	bicseq	r0, lr, #0
     8cc:	00020000 	andeq	r0, r2, r0
     8d0:	0000087d 	andeq	r0, r0, sp, ror r8
     8d4:	00000000 	andeq	r0, r0, r0
     8d8:	03cc0000 	biceq	r0, ip, #0
     8dc:	03d30000 	bicseq	r0, r3, #0
     8e0:	00010000 	andeq	r0, r1, r0
     8e4:	0003d350 	andeq	sp, r3, r0, asr r3
     8e8:	0003d600 	andeq	sp, r3, r0, lsl #12
     8ec:	54000100 	strpl	r0, [r0], #-256	; 0x100
	...
     8f8:	000003de 	ldrdeq	r0, [r0], -lr
     8fc:	000003e0 	andeq	r0, r0, r0, ror #7
     900:	00500001 	subseq	r0, r0, r1
     904:	00000000 	andeq	r0, r0, r0
     908:	e2000000 	and	r0, r0, #0
     90c:	e4000003 	str	r0, [r0], #-3
     910:	02000003 	andeq	r0, r0, #3
     914:	e4007d00 	str	r7, [r0], #-3328	; 0xd00
     918:	f6000003 			; <UNDEFINED> instruction: 0xf6000003
     91c:	02000003 	andeq	r0, r0, #3
     920:	00087d00 	andeq	r7, r8, r0, lsl #26
     924:	00000000 	andeq	r0, r0, r0
     928:	e2000000 	and	r0, r0, #0
     92c:	e8000003 	stmda	r0, {r0, r1}
     930:	01000003 	tsteq	r0, r3
     934:	03e85000 	mvneq	r5, #0
     938:	03f60000 	mvnseq	r0, #0
     93c:	00010000 	andeq	r0, r1, r0
     940:	00000054 	andeq	r0, r0, r4, asr r0
     944:	00000000 	andeq	r0, r0, r0
     948:	0003f600 	andeq	pc, r3, r0, lsl #12
     94c:	0003f800 	andeq	pc, r3, r0, lsl #16
     950:	50000100 	andpl	r0, r0, r0, lsl #2
	...
     95c:	000003f8 	strdeq	r0, [r0], -r8
     960:	000003fc 	strdeq	r0, [r0], -ip
     964:	00700005 	rsbseq	r0, r0, r5
     968:	009f2930 	addseq	r2, pc, r0, lsr r9	; <UNPREDICTABLE>
     96c:	00000000 	andeq	r0, r0, r0
     970:	02000000 	andeq	r0, r0, #0
     974:	0a000004 	beq	98c <vector_table-0x7fff674>
     978:	01000004 	tsteq	r0, r4
     97c:	00005000 	andeq	r5, r0, r0
     980:	00000000 	andeq	r0, r0, r0
     984:	04040000 	streq	r0, [r4], #-0
     988:	040a0000 	streq	r0, [sl], #-0
     98c:	00070000 	andeq	r0, r7, r0
     990:	3c700072 	ldclcc	0, cr0, [r0], #-456	; 0xfffffe38
     994:	009f2906 	addseq	r2, pc, r6, lsl #18
	...
     9a0:	04000000 	streq	r0, [r0], #-0
     9a4:	02000000 	andeq	r0, r0, #0
     9a8:	04007d00 	streq	r7, [r0], #-3328	; 0xd00
     9ac:	3c000000 	stccc	0, cr0, [r0], {-0}
     9b0:	02000000 	andeq	r0, r0, #0
     9b4:	00087d00 	andeq	r7, r8, r0, lsl #26
	...
     9c0:	12000000 	andne	r0, r0, #0
     9c4:	01000000 	mrseq	r0, (UNDEF: 0)
     9c8:	00125000 	andseq	r5, r2, r0
     9cc:	003c0000 	eorseq	r0, ip, r0
     9d0:	00010000 	andeq	r0, r1, r0
     9d4:	00000054 	andeq	r0, r0, r4, asr r0
     9d8:	00000000 	andeq	r0, r0, r0
     9dc:	00003c00 	andeq	r3, r0, r0, lsl #24
     9e0:	00003e00 	andeq	r3, r0, r0, lsl #28
     9e4:	7d000200 	sfmvc	f0, 4, [r0, #-0]
     9e8:	00003e00 	andeq	r3, r0, r0, lsl #28
     9ec:	00005000 	andeq	r5, r0, r0
     9f0:	7d000200 	sfmvc	f0, 4, [r0, #-0]
     9f4:	00000008 	andeq	r0, r0, r8
     9f8:	00000000 	andeq	r0, r0, r0
     9fc:	00003c00 	andeq	r3, r0, r0, lsl #24
     a00:	00003e00 	andeq	r3, r0, r0, lsl #28
     a04:	50000100 	andpl	r0, r0, r0, lsl #2
	...
     a10:	00000050 	andeq	r0, r0, r0, asr r0
     a14:	00000054 	andeq	r0, r0, r4, asr r0
     a18:	007d0002 	rsbseq	r0, sp, r2
     a1c:	00000054 	andeq	r0, r0, r4, asr r0
     a20:	000001cc 	andeq	r0, r0, ip, asr #3
     a24:	287d0002 	ldmdacs	sp!, {r1}^
	...
     a30:	00000050 	andeq	r0, r0, r0, asr r0
     a34:	00000058 	andeq	r0, r0, r8, asr r0
     a38:	58500001 	ldmdapl	r0, {r0}^
     a3c:	06000000 	streq	r0, [r0], -r0
     a40:	01000001 	tsteq	r0, r1
     a44:	01b45a00 			; <UNDEFINED> instruction: 0x01b45a00
     a48:	01bc0000 			; <UNDEFINED> instruction: 0x01bc0000
     a4c:	00010000 	andeq	r0, r1, r0
     a50:	0000005a 	andeq	r0, r0, sl, asr r0
     a54:	00000000 	andeq	r0, r0, r0
     a58:	00005000 	andeq	r5, r0, r0
     a5c:	00006b00 	andeq	r6, r0, r0, lsl #22
     a60:	51000100 	mrspl	r0, (UNDEF: 16)
     a64:	0000006b 	andeq	r0, r0, fp, rrx
     a68:	000000be 	strheq	r0, [r0], -lr
     a6c:	b4550001 	ldrblt	r0, [r5], #-1
     a70:	bc000001 	stclt	0, cr0, [r0], {1}
     a74:	01000001 	tsteq	r0, r1
     a78:	00005500 	andeq	r5, r0, r0, lsl #10
     a7c:	00000000 	andeq	r0, r0, r0
     a80:	00500000 	subseq	r0, r0, r0
     a84:	006b0000 	rsbeq	r0, fp, r0
     a88:	00010000 	andeq	r0, r1, r0
     a8c:	00000052 	andeq	r0, r0, r2, asr r0
     a90:	00000000 	andeq	r0, r0, r0
     a94:	00005000 	andeq	r5, r0, r0
     a98:	00006b00 	andeq	r6, r0, r0, lsl #22
     a9c:	53000100 	movwpl	r0, #256	; 0x100
     aa0:	0000006b 	andeq	r0, r0, fp, rrx
     aa4:	00000118 	andeq	r0, r0, r8, lsl r1
     aa8:	56590001 	ldrbpl	r0, [r9], -r1
     aac:	66000001 	strvs	r0, [r0], -r1
     ab0:	01000001 	tsteq	r0, r1
     ab4:	01b45900 			; <UNDEFINED> instruction: 0x01b45900
     ab8:	01bc0000 			; <UNDEFINED> instruction: 0x01bc0000
     abc:	00010000 	andeq	r0, r1, r0
     ac0:	00000059 	andeq	r0, r0, r9, asr r0
     ac4:	00000000 	andeq	r0, r0, r0
     ac8:	00019a00 	andeq	r9, r1, r0, lsl #20
     acc:	0001b400 	andeq	fp, r1, r0, lsl #8
     ad0:	31000200 	mrscc	r0, R8_usr
     ad4:	0001bc9f 	muleq	r1, pc, ip	; <UNPREDICTABLE>
     ad8:	0001cc00 	andeq	ip, r1, r0, lsl #24
     adc:	31000200 	mrscc	r0, R8_usr
     ae0:	0000009f 	muleq	r0, pc, r0	; <UNPREDICTABLE>
     ae4:	00000000 	andeq	r0, r0, r0
     ae8:	00005c00 	andeq	r5, r0, r0, lsl #24
     aec:	00006b00 	andeq	r6, r0, r0, lsl #22
     af0:	52000100 	andpl	r0, r0, #0
     af4:	0000006b 	andeq	r0, r0, fp, rrx
     af8:	000000a6 	andeq	r0, r0, r6, lsr #1
     afc:	b4540001 	ldrblt	r0, [r4], #-1
     b00:	bc000001 	stclt	0, cr0, [r0], {1}
     b04:	01000001 	tsteq	r0, r1
     b08:	00005400 	andeq	r5, r0, r0, lsl #8
     b0c:	00000000 	andeq	r0, r0, r0
     b10:	006c0000 	rsbeq	r0, ip, r0
     b14:	007c0000 	rsbseq	r0, ip, r0
     b18:	00010000 	andeq	r0, r1, r0
     b1c:	00007c50 	andeq	r7, r0, r0, asr ip
     b20:	00009200 	andeq	r9, r0, r0, lsl #4
     b24:	56000100 	strpl	r0, [r0], -r0, lsl #2
     b28:	00000092 	muleq	r0, r2, r0
     b2c:	00000094 	muleq	r0, r4, r0
     b30:	9f300002 	svcls	0x00300002
     b34:	00000094 	muleq	r0, r4, r0
     b38:	000001b4 			; <UNDEFINED> instruction: 0x000001b4
     b3c:	bc560001 	mrrclt	0, 0, r0, r6, cr1
     b40:	cc000001 	stcgt	0, cr0, [r0], {1}
     b44:	01000001 	tsteq	r0, r1
     b48:	00005600 	andeq	r5, r0, r0, lsl #12
     b4c:	00000000 	andeq	r0, r0, r0
     b50:	009e0000 	addseq	r0, lr, r0
     b54:	00a60000 	adceq	r0, r6, r0
     b58:	00090000 	andeq	r0, r9, r0
     b5c:	24327f74 	ldrtcs	r7, [r2], #-3956	; 0xf74
     b60:	22063076 	andcs	r3, r6, #118	; 0x76
     b64:	0000a69f 	muleq	r0, pc, r6	; <UNPREDICTABLE>
     b68:	0000ae00 	andeq	sl, r0, r0, lsl #28
     b6c:	74000900 	strvc	r0, [r0], #-2304	; 0x900
     b70:	76243200 	strtvc	r3, [r4], -r0, lsl #4
     b74:	9f220630 	svcls	0x00220630
     b78:	000000ae 	andeq	r0, r0, lr, lsr #1
     b7c:	000000da 	ldrdeq	r0, [r0], -sl
     b80:	da540001 	ble	1500b8c <vector_table-0x6aff474>
     b84:	fc000000 	stc2	0, cr0, [r0], {-0}
     b88:	01000000 	mrseq	r0, (UNDEF: 0)
     b8c:	00005400 	andeq	r5, r0, r0, lsl #8
     b90:	00000000 	andeq	r0, r0, r0
     b94:	00da0000 	sbcseq	r0, sl, r0
     b98:	01340000 	teqeq	r4, r0
     b9c:	00010000 	andeq	r0, r1, r0
     ba0:	0001565b 	andeq	r5, r1, fp, asr r6
     ba4:	00016600 	andeq	r6, r1, r0, lsl #12
     ba8:	5b000100 	blpl	fb0 <vector_table-0x7fff050>
	...
     bb4:	000000da 	ldrdeq	r0, [r0], -sl
     bb8:	000001b4 			; <UNDEFINED> instruction: 0x000001b4
     bbc:	bc560001 	mrrclt	0, 0, r0, r6, cr1
     bc0:	cc000001 	stcgt	0, cr0, [r0], {1}
     bc4:	01000001 	tsteq	r0, r1
     bc8:	00005600 	andeq	r5, r0, r0, lsl #12
     bcc:	00000000 	andeq	r0, r0, r0
     bd0:	01260000 	teqeq	r6, r0
     bd4:	013a0000 	teqeq	sl, r0
     bd8:	00010000 	andeq	r0, r1, r0
     bdc:	00000059 	andeq	r0, r0, r9, asr r0
     be0:	00000000 	andeq	r0, r0, r0
     be4:	0001cc00 	andeq	ip, r1, r0, lsl #24
     be8:	0001ce00 	andeq	ip, r1, r0, lsl #28
     bec:	7d000200 	sfmvc	f0, 4, [r0, #-0]
     bf0:	0001ce00 	andeq	ip, r1, r0, lsl #28
     bf4:	00021400 	andeq	r1, r2, r0, lsl #8
     bf8:	7d000200 	sfmvc	f0, 4, [r0, #-0]
     bfc:	00000018 	andeq	r0, r0, r8, lsl r0
     c00:	00000000 	andeq	r0, r0, r0
     c04:	0001e800 	andeq	lr, r1, r0, lsl #16
     c08:	0001f200 	andeq	pc, r1, r0, lsl #4
     c0c:	50000100 	andpl	r0, r0, r0, lsl #2
     c10:	000001f2 	strdeq	r0, [r0], -r2
     c14:	00000203 	andeq	r0, r0, r3, lsl #4
     c18:	04530001 	ldrbeq	r0, [r3], #-1
     c1c:	14000002 	strne	r0, [r0], #-2
     c20:	01000002 	tsteq	r0, r2
     c24:	00005000 	andeq	r5, r0, r0
     c28:	00000000 	andeq	r0, r0, r0
     c2c:	02400000 	subeq	r0, r0, #0
     c30:	02420000 	subeq	r0, r2, #0
     c34:	00020000 	andeq	r0, r2, r0
     c38:	0242007d 	subeq	r0, r2, #125	; 0x7d
     c3c:	02580000 	subseq	r0, r8, #0
     c40:	00020000 	andeq	r0, r2, r0
     c44:	0000087d 	andeq	r0, r0, sp, ror r8
     c48:	00000000 	andeq	r0, r0, r0
     c4c:	02800000 	addeq	r0, r0, #0
     c50:	02820000 	addeq	r0, r2, #0
     c54:	00020000 	andeq	r0, r2, r0
     c58:	0282007d 	addeq	r0, r2, #125	; 0x7d
     c5c:	03340000 	teqeq	r4, #0
     c60:	00020000 	andeq	r0, r2, r0
     c64:	0000187d 	andeq	r1, r0, sp, ror r8
     c68:	00000000 	andeq	r0, r0, r0
     c6c:	02bc0000 	adcseq	r0, ip, #0
     c70:	02be0000 	adcseq	r0, lr, #0
     c74:	00010000 	andeq	r0, r1, r0
     c78:	0002da53 	andeq	sp, r2, r3, asr sl
     c7c:	0002e200 	andeq	lr, r2, r0, lsl #4
     c80:	56000100 	strpl	r0, [r0], -r0, lsl #2
     c84:	000002e6 	andeq	r0, r0, r6, ror #5
     c88:	0000031a 	andeq	r0, r0, sl, lsl r3
     c8c:	00560001 	subseq	r0, r6, r1
     c90:	00000000 	andeq	r0, r0, r0
     c94:	9c000000 	stcls	0, cr0, [r0], {-0}
     c98:	a6000002 	strge	r0, [r0], -r2
     c9c:	01000002 	tsteq	r0, r2
     ca0:	02a65300 	adceq	r5, r6, #0
     ca4:	02c00000 	sbceq	r0, r0, #0
     ca8:	00050000 	andeq	r0, r5, r0
     cac:	00009003 	andeq	r9, r0, r3
     cb0:	00000020 	andeq	r0, r0, r0, lsr #32
     cb4:	00000000 	andeq	r0, r0, r0
     cb8:	0002de00 	andeq	sp, r2, r0, lsl #28
     cbc:	0002e200 	andeq	lr, r2, r0, lsl #4
     cc0:	76000200 	strvc	r0, [r0], -r0, lsl #4
     cc4:	0002e604 	andeq	lr, r2, r4, lsl #12
     cc8:	0002ed00 	andeq	lr, r2, r0, lsl #26
     ccc:	53000100 	movwpl	r0, #256	; 0x100
	...
     cd8:	00000334 	andeq	r0, r0, r4, lsr r3
     cdc:	00000338 	andeq	r0, r0, r8, lsr r3
     ce0:	007d0002 	rsbseq	r0, sp, r2
     ce4:	00000338 	andeq	r0, r0, r8, lsr r3
     ce8:	000003f4 	strdeq	r0, [r0], -r4
     cec:	187d0002 	ldmdane	sp!, {r1}^
	...
     cf8:	0000035c 	andeq	r0, r0, ip, asr r3
     cfc:	00000396 	muleq	r0, r6, r3
     d00:	00550001 	subseq	r0, r5, r1
     d04:	00000000 	andeq	r0, r0, r0
     d08:	34000000 	strcc	r0, [r0], #-0
     d0c:	ce000003 	cdpgt	0, 0, cr0, cr0, cr3, {0}
     d10:	02000003 	andeq	r0, r0, #3
     d14:	ce9f3000 	cdpgt	0, 9, cr3, cr15, cr0, {0}
     d18:	dc000003 	stcle	0, cr0, [r0], {3}
     d1c:	02000003 	andeq	r0, r0, #3
     d20:	dc9f3100 	ldfles	f3, [pc], {0}
     d24:	e2000003 	and	r0, r0, #3
     d28:	02000003 	andeq	r0, r0, #3
     d2c:	e29f3000 	adds	r3, pc, #0
     d30:	f4000003 	vst4.8	{d0-d3}, [r0], r3
     d34:	01000003 	tsteq	r0, r3
     d38:	00005400 	andeq	r5, r0, r0, lsl #8
     d3c:	00000000 	andeq	r0, r0, r0
     d40:	03560000 	cmpeq	r6, #0
     d44:	03960000 	orrseq	r0, r6, #0
     d48:	00010000 	andeq	r0, r1, r0
     d4c:	00039656 	andeq	r9, r3, r6, asr r6
     d50:	0003dc00 	andeq	sp, r3, r0, lsl #24
     d54:	56000100 	strpl	r0, [r0], -r0, lsl #2
	...
     d60:	000003f4 	strdeq	r0, [r0], -r4
     d64:	000003f6 	strdeq	r0, [r0], -r6
     d68:	007d0002 	rsbseq	r0, sp, r2
     d6c:	000003f6 	strdeq	r0, [r0], -r6
     d70:	00000424 	andeq	r0, r0, r4, lsr #8
     d74:	107d0002 	rsbsne	r0, sp, r2
	...
     d80:	000003f4 	strdeq	r0, [r0], -r4
     d84:	000003fd 	strdeq	r0, [r0], -sp
     d88:	fd500001 	ldc2l	0, cr0, [r0, #-4]
     d8c:	24000003 	strcs	r0, [r0], #-3
     d90:	01000004 	tsteq	r0, r4
     d94:	00005400 	andeq	r5, r0, r0, lsl #8
     d98:	00000000 	andeq	r0, r0, r0
     d9c:	04020000 	streq	r0, [r2], #-0
     da0:	04160000 	ldreq	r0, [r6], #-0
     da4:	00060000 	andeq	r0, r6, r0
     da8:	00750074 	rsbseq	r0, r5, r4, ror r0
     dac:	041e9f22 	ldreq	r9, [lr], #-3874	; 0xf22
     db0:	04240000 	strteq	r0, [r4], #-0
     db4:	00060000 	andeq	r0, r6, r0
     db8:	00750074 	rsbseq	r0, r5, r4, ror r0
     dbc:	00009f22 	andeq	r9, r0, r2, lsr #30
     dc0:	00000000 	andeq	r0, r0, r0
     dc4:	03f40000 	mvnseq	r0, #0
     dc8:	04140000 	ldreq	r0, [r4], #-0
     dcc:	00020000 	andeq	r0, r2, r0
     dd0:	04149f30 	ldreq	r9, [r4], #-3888	; 0xf30
     dd4:	04160000 	ldreq	r0, [r6], #-0
     dd8:	00010000 	andeq	r0, r1, r0
     ddc:	00041e50 	andeq	r1, r4, r0, asr lr
     de0:	00042400 	andeq	r2, r4, r0, lsl #8
     de4:	50000100 	andpl	r0, r0, r0, lsl #2
	...
     df0:	00000424 	andeq	r0, r0, r4, lsr #8
     df4:	00000428 	andeq	r0, r0, r8, lsr #8
     df8:	007d0002 	rsbseq	r0, sp, r2
     dfc:	00000428 	andeq	r0, r0, r8, lsr #8
     e00:	00000480 	andeq	r0, r0, r0, lsl #9
     e04:	0c7d0002 	ldcleq	0, cr0, [sp], #-8
	...
     e10:	00000458 	andeq	r0, r0, r8, asr r4
     e14:	00000474 	andeq	r0, r0, r4, ror r4
     e18:	0074000b 	rsbseq	r0, r4, fp
     e1c:	98031e44 	stmdals	r3, {r2, r6, r9, sl, fp, ip}
     e20:	22200000 	eorcs	r0, r0, #0
     e24:	0000009f 	muleq	r0, pc, r0	; <UNPREDICTABLE>
     e28:	00000000 	andeq	r0, r0, r0
     e2c:	00048000 	andeq	r8, r4, r0
     e30:	00048200 	andeq	r8, r4, r0, lsl #4
     e34:	7d000200 	sfmvc	f0, 4, [r0, #-0]
     e38:	00048200 	andeq	r8, r4, r0, lsl #4
     e3c:	0004a400 	andeq	sl, r4, r0, lsl #8
     e40:	7d000200 	sfmvc	f0, 4, [r0, #-0]
     e44:	00000010 	andeq	r0, r0, r0, lsl r0
     e48:	00000000 	andeq	r0, r0, r0
     e4c:	00048000 	andeq	r8, r4, r0
     e50:	00048d00 	andeq	r8, r4, r0, lsl #26
     e54:	50000100 	andpl	r0, r0, r0, lsl #2
	...
     e60:	00000480 	andeq	r0, r0, r0, lsl #9
     e64:	00000488 	andeq	r0, r0, r8, lsl #9
     e68:	88510001 	ldmdahi	r1, {r0}^
     e6c:	a4000004 	strge	r0, [r0], #-4
     e70:	01000004 	tsteq	r0, r4
     e74:	00005500 	andeq	r5, r0, r0, lsl #10
     e78:	00000000 	andeq	r0, r0, r0
     e7c:	04980000 	ldreq	r0, [r8], #0
     e80:	049a0000 	ldreq	r0, [sl], #0
     e84:	00060000 	andeq	r0, r6, r0
     e88:	00700075 	rsbseq	r0, r0, r5, ror r0
     e8c:	049a9f22 	ldreq	r9, [sl], #3874	; 0xf22
     e90:	049f0000 	ldreq	r0, [pc], #0	; e98 <vector_table-0x7fff168>
     e94:	00010000 	andeq	r0, r1, r0
     e98:	00000050 	andeq	r0, r0, r0, asr r0
     e9c:	00000000 	andeq	r0, r0, r0
     ea0:	0004a400 	andeq	sl, r4, r0, lsl #8
     ea4:	0004a600 	andeq	sl, r4, r0, lsl #12
     ea8:	7d000200 	sfmvc	f0, 4, [r0, #-0]
     eac:	0004a600 	andeq	sl, r4, r0, lsl #12
     eb0:	00050000 	andeq	r0, r5, r0
     eb4:	7d000200 	sfmvc	f0, 4, [r0, #-0]
     eb8:	00000010 	andeq	r0, r0, r0, lsl r0
     ebc:	00000000 	andeq	r0, r0, r0
     ec0:	0004a400 	andeq	sl, r4, r0, lsl #8
     ec4:	0004b200 	andeq	fp, r4, r0, lsl #4
     ec8:	50000100 	andpl	r0, r0, r0, lsl #2
	...
     ed4:	000004e8 	andeq	r0, r0, r8, ror #9
     ed8:	000004ec 	andeq	r0, r0, ip, ror #9
     edc:	2c740008 	ldclcs	0, cr0, [r4], #-32	; 0xffffffe0
     ee0:	062c7306 	strteq	r7, [ip], -r6, lsl #6
     ee4:	04ec9f2a 	strbteq	r9, [ip], #3882	; 0xf2a
     ee8:	05000000 	streq	r0, [r0, #-0]
     eec:	00070000 	andeq	r0, r7, r0
     ef0:	73062c74 	movwvc	r2, #27764	; 0x6c74
     ef4:	009f2a00 	addseq	r2, pc, r0, lsl #20
     ef8:	00000000 	andeq	r0, r0, r0
     efc:	14000000 	strne	r0, [r0], #-0
     f00:	16000005 	strne	r0, [r0], -r5
     f04:	02000005 	andeq	r0, r0, #5
     f08:	16007d00 	strne	r7, [r0], -r0, lsl #26
     f0c:	64000005 	strvs	r0, [r0], #-5
     f10:	02000005 	andeq	r0, r0, #5
     f14:	00107d00 	andseq	r7, r0, r0, lsl #26
     f18:	00000000 	andeq	r0, r0, r0
     f1c:	14000000 	strne	r0, [r0], #-0
     f20:	1d000005 	stcne	0, cr0, [r0, #-20]	; 0xffffffec
     f24:	01000005 	tsteq	r0, r5
     f28:	051d5000 	ldreq	r5, [sp, #-0]
     f2c:	05480000 	strbeq	r0, [r8, #-0]
     f30:	00010000 	andeq	r0, r1, r0
     f34:	00054854 	andeq	r4, r5, r4, asr r8
     f38:	00055100 	andeq	r5, r5, r0, lsl #2
     f3c:	50000100 	andpl	r0, r0, r0, lsl #2
     f40:	00000554 	andeq	r0, r0, r4, asr r5
     f44:	00000556 	andeq	r0, r0, r6, asr r5
     f48:	00540001 	subseq	r0, r4, r1
     f4c:	00000000 	andeq	r0, r0, r0
     f50:	14000000 	strne	r0, [r0], #-0
     f54:	1d000005 	stcne	0, cr0, [r0, #-20]	; 0xffffffec
     f58:	01000005 	tsteq	r0, r5
     f5c:	051d5100 	ldreq	r5, [sp, #-256]	; 0x100
     f60:	05640000 	strbeq	r0, [r4, #-0]!
     f64:	00010000 	andeq	r0, r1, r0
     f68:	00000055 	andeq	r0, r0, r5, asr r0
     f6c:	00000000 	andeq	r0, r0, r0
     f70:	00055200 	andeq	r5, r5, r0, lsl #4
     f74:	00055400 	andeq	r5, r5, r0, lsl #8
     f78:	30000200 	andcc	r0, r0, r0, lsl #4
     f7c:	0005569f 	muleq	r5, pc, r6	; <UNPREDICTABLE>
     f80:	00056400 	andeq	r6, r5, r0, lsl #8
     f84:	54000100 	strpl	r0, [r0], #-256	; 0x100
	...
     f90:	00000010 	andeq	r0, r0, r0, lsl r0
     f94:	00000012 	andeq	r0, r0, r2, lsl r0
     f98:	007d0002 	rsbseq	r0, sp, r2
     f9c:	00000012 	andeq	r0, r0, r2, lsl r0
     fa0:	00000030 	andeq	r0, r0, r0, lsr r0
     fa4:	087d0002 	ldmdaeq	sp!, {r1}^
	...
     fb0:	00000010 	andeq	r0, r0, r0, lsl r0
     fb4:	00000014 	andeq	r0, r0, r4, lsl r0
     fb8:	14500001 	ldrbne	r0, [r0], #-1
     fbc:	1c000000 	stcne	0, cr0, [r0], {-0}
     fc0:	01000000 	mrseq	r0, (UNDEF: 0)
     fc4:	00005300 	andeq	r5, r0, r0, lsl #6
     fc8:	00000000 	andeq	r0, r0, r0
     fcc:	00100000 	andseq	r0, r0, r0
     fd0:	00220000 	eoreq	r0, r2, r0
     fd4:	00010000 	andeq	r0, r1, r0
     fd8:	00002251 	andeq	r2, r0, r1, asr r2
     fdc:	00003000 	andeq	r3, r0, r0
     fe0:	73000200 	movwvc	r0, #512	; 0x200
     fe4:	0000007c 	andeq	r0, r0, ip, ror r0
     fe8:	00000000 	andeq	r0, r0, r0
     fec:	00005000 	andeq	r5, r0, r0
     ff0:	00005400 	andeq	r5, r0, r0, lsl #8
     ff4:	7d000200 	sfmvc	f0, 4, [r0, #-0]
     ff8:	00005400 	andeq	r5, r0, r0, lsl #8
     ffc:	00008c00 	andeq	r8, r0, r0, lsl #24
    1000:	7d000200 	sfmvc	f0, 4, [r0, #-0]
    1004:	00000008 	andeq	r0, r0, r8
    1008:	00000000 	andeq	r0, r0, r0
    100c:	00010800 	andeq	r0, r1, r0, lsl #16
    1010:	00010a00 	andeq	r0, r1, r0, lsl #20
    1014:	7d000200 	sfmvc	f0, 4, [r0, #-0]
    1018:	00010a00 	andeq	r0, r1, r0, lsl #20
    101c:	00012c00 	andeq	r2, r1, r0, lsl #24
    1020:	7d000200 	sfmvc	f0, 4, [r0, #-0]
    1024:	00000008 	andeq	r0, r0, r8
	...
    1030:	00000600 	andeq	r0, r0, r0, lsl #12
    1034:	7d000200 	sfmvc	f0, 4, [r0, #-0]
    1038:	00000600 	andeq	r0, r0, r0, lsl #12
    103c:	00003c00 	andeq	r3, r0, r0, lsl #24
    1040:	7d000200 	sfmvc	f0, 4, [r0, #-0]
    1044:	00000010 	andeq	r0, r0, r0, lsl r0
	...
    1050:	00001000 	andeq	r1, r0, r0
    1054:	50000100 	andpl	r0, r0, r0, lsl #2
    1058:	00000010 	andeq	r0, r0, r0, lsl r0
    105c:	0000001a 	andeq	r0, r0, sl, lsl r0
    1060:	00550001 	subseq	r0, r5, r1
	...
    106c:	2a000000 	bcs	1074 <vector_table-0x7ffef8c>
    1070:	02000000 	andeq	r0, r0, #0
    1074:	2a9f3000 	bcs	fe7cd07c <_estack+0xde7c9080>
    1078:	2e000000 	cdpcs	0, 0, cr0, cr0, cr0, {0}
    107c:	01000000 	mrseq	r0, (UNDEF: 0)
    1080:	002e5400 	eoreq	r5, lr, r0, lsl #8
    1084:	00300000 	eorseq	r0, r0, r0
    1088:	00020000 	andeq	r0, r2, r0
    108c:	00309f30 	eorseq	r9, r0, r0, lsr pc
    1090:	003c0000 	eorseq	r0, ip, r0
    1094:	00010000 	andeq	r0, r1, r0
    1098:	00000054 	andeq	r0, r0, r4, asr r0
    109c:	00000000 	andeq	r0, r0, r0
	...

Disassembly of section .debug_pubnames:

00000000 <.debug_pubnames>:
   0:	00000061 	andeq	r0, r0, r1, rrx
   4:	00000002 	andeq	r0, r0, r2
   8:	097a0000 	ldmdbeq	sl!, {}^	; <UNPREDICTABLE>
   c:	089f0000 	ldmeq	pc, {}	; <UNPREDICTABLE>
  10:	61740000 	cmnvs	r4, r0
  14:	00316b73 	eorseq	r6, r1, r3, ror fp
  18:	000008c5 	andeq	r0, r0, r5, asr #17
  1c:	6b726f77 	blvs	1c9be00 <vector_table-0x6364200>
  20:	0008da00 	andeq	sp, r8, r0, lsl #20
  24:	70417600 	subvc	r7, r1, r0, lsl #12
  28:	63696c70 	cmnvs	r9, #28672	; 0x7000
  2c:	6f697461 	svcvs	0x00697461
  30:	6174536e 	cmnvs	r4, lr, ror #6
  34:	764f6b63 	strbvc	r6, [pc], -r3, ror #22
  38:	6c667265 	sfmvs	f7, 2, [r6], #-404	; 0xfffffe6c
  3c:	6f48776f 	svcvs	0x0048776f
  40:	13006b6f 	movwne	r6, #2927	; 0xb6f
  44:	61000009 	tstvs	r0, r9
  48:	72657373 	rsbvc	r7, r5, #-872415231	; 0xcc000001
  4c:	61665f74 	smcvs	26100	; 0x65f4
  50:	64656c69 	strbtvs	r6, [r5], #-3177	; 0xc69
  54:	00094600 	andeq	r4, r9, r0, lsl #12
  58:	62735f00 	rsbsvs	r5, r3, #0
  5c:	725f6b72 	subsvc	r6, pc, #116736	; 0x1c800
  60:	00000000 	andeq	r0, r0, r0
  64:	00003100 	andeq	r3, r0, r0, lsl #2
  68:	7a000200 	bvc	870 <vector_table-0x7fff790>
  6c:	86000009 	strhi	r0, [r0], -r9
  70:	25000000 	strcs	r0, [r0, #-0]
  74:	72000000 	andvc	r0, r0, #0
  78:	74657365 	strbtvc	r7, [r5], #-869	; 0x365
  7c:	6e61685f 	mcrvs	8, 3, r6, cr1, cr15, {2}
  80:	72656c64 	rsbvc	r6, r5, #25600	; 0x6400
  84:	00007300 	andeq	r7, r0, r0, lsl #6
  88:	63657600 	cmnvs	r5, #0
  8c:	5f726f74 	svcpl	0x00726f74
  90:	6c626174 	stfvse	f6, [r2], #-464	; 0xfffffe30
  94:	00000065 	andeq	r0, r0, r5, rrx
  98:	006d0000 	rsbeq	r0, sp, r0
  9c:	00020000 	andeq	r0, r2, r0
  a0:	00000a00 	andeq	r0, r0, r0, lsl #20
  a4:	0000029c 	muleq	r0, ip, r2
  a8:	00000181 	andeq	r0, r0, r1, lsl #3
  ac:	73694c76 	cmnvc	r9, #30208	; 0x7600
  b0:	696e4974 	stmdbvs	lr!, {r2, r4, r5, r6, r8, fp, lr}^
  b4:	6c616974 	stclvs	9, cr6, [r1], #-464	; 0xfffffe30
  b8:	00657369 	rsbeq	r7, r5, r9, ror #6
  bc:	000001ad 	andeq	r0, r0, sp, lsr #3
  c0:	73694c76 	cmnvc	r9, #30208	; 0x7600
  c4:	696e4974 	stmdbvs	lr!, {r2, r4, r5, r6, r8, fp, lr}^
  c8:	6c616974 	stclvs	9, cr6, [r1], #-464	; 0xfffffe30
  cc:	49657369 	stmdbmi	r5!, {r0, r3, r5, r6, r8, r9, ip, sp, lr}^
  d0:	006d6574 	rsbeq	r6, sp, r4, ror r5
  d4:	000001d9 	ldrdeq	r0, [r0], -r9
  d8:	73694c76 	cmnvc	r9, #30208	; 0x7600
  dc:	736e4974 	cmnvc	lr, #1900544	; 0x1d0000
  e0:	45747265 	ldrbmi	r7, [r4, #-613]!	; 0x265
  e4:	1a00646e 	bne	192a4 <vector_table-0x7fe6d5c>
  e8:	76000002 	strvc	r0, [r0], -r2
  ec:	7473694c 	ldrbtvc	r6, [r3], #-2380	; 0x94c
  f0:	65736e49 	ldrbvs	r6, [r3, #-3657]!	; 0xe49
  f4:	6b007472 	blvs	1d2c4 <vector_table-0x7fe2d3c>
  f8:	76000002 	strvc	r0, [r0], -r2
  fc:	7473694c 	ldrbtvc	r6, [r3], #-2380	; 0x94c
 100:	6f6d6552 	svcvs	0x006d6552
 104:	00006576 	andeq	r6, r0, r6, ror r5
 108:	92000000 	andls	r0, r0, #0
 10c:	02000000 	andeq	r0, r0, #0
 110:	000c9c00 	andeq	r9, ip, r0, lsl #24
 114:	00050900 	andeq	r0, r5, r0, lsl #18
 118:	00021200 	andeq	r1, r2, r0, lsl #4
 11c:	6f437800 	svcvs	0x00437800
 120:	74756f52 	ldrbtvc	r6, [r5], #-3922	; 0xf52
 124:	43656e69 	cmnmi	r5, #1680	; 0x690
 128:	74616572 	strbtvc	r6, [r1], #-1394	; 0x572
 12c:	02a40065 	adceq	r0, r4, #101	; 0x65
 130:	43760000 	cmnmi	r6, #0
 134:	756f526f 	strbvc	r5, [pc, #-623]!	; fffffecd <_estack+0xdfffbed1>
 138:	656e6974 	strbvs	r6, [lr, #-2420]!	; 0x974
 13c:	54646441 	strbtpl	r6, [r4], #-1089	; 0x441
 140:	6c65446f 	cfstrdvs	mvd4, [r5], #-444	; 0xfffffe44
 144:	64657961 	strbtvs	r7, [r5], #-2401	; 0x961
 148:	7473694c 	ldrbtvc	r6, [r3], #-2380	; 0x94c
 14c:	00033300 	andeq	r3, r3, r0, lsl #6
 150:	6f437600 	svcvs	0x00437600
 154:	74756f52 	ldrbtvc	r6, [r5], #-3922	; 0xf52
 158:	53656e69 	cmnpl	r5, #1680	; 0x690
 15c:	64656863 	strbtvs	r6, [r5], #-2147	; 0x863
 160:	00656c75 	rsbeq	r6, r5, r5, ror ip
 164:	000003cc 	andeq	r0, r0, ip, asr #7
 168:	526f4378 	rsbpl	r4, pc, #-536870911	; 0xe0000001
 16c:	6974756f 	ldmdbvs	r4!, {r0, r1, r2, r3, r5, r6, r8, sl, ip, sp, lr}^
 170:	6552656e 	ldrbvs	r6, [r2, #-1390]	; 0x56e
 174:	65766f6d 	ldrbvs	r6, [r6, #-3949]!	; 0xf6d
 178:	6d6f7246 	sfmvs	f7, 2, [pc, #-280]!	; 68 <vector_table-0x7ffff98>
 17c:	6e657645 	cdpvs	6, 6, cr7, cr5, cr5, {2}
 180:	73694c74 	cmnvc	r9, #29696	; 0x7400
 184:	04f60074 	ldrbteq	r0, [r6], #116	; 0x74
 188:	78700000 	ldmdavc	r0!, {}^	; <UNPREDICTABLE>
 18c:	72727543 	rsbsvc	r7, r2, #281018368	; 0x10c00000
 190:	43746e65 	cmnmi	r4, #1616	; 0x650
 194:	756f526f 	strbvc	r5, [pc, #-623]!	; ffffff2d <_estack+0xdfffbf31>
 198:	656e6974 	strbvs	r6, [lr, #-2420]!	; 0x974
 19c:	00000000 	andeq	r0, r0, r0
 1a0:	00012b00 	andeq	r2, r1, r0, lsl #22
 1a4:	a5000200 	strge	r0, [r0, #-512]	; 0x200
 1a8:	e3000011 	movw	r0, #17
 1ac:	43000007 	movwmi	r0, #7
 1b0:	78000003 	stmdavc	r0, {r0, r1}
 1b4:	75657551 	strbvc	r7, [r5, #-1361]!	; 0x551
 1b8:	6e654765 	cdpvs	7, 6, cr4, cr5, cr5, {3}
 1bc:	63697265 	cmnvs	r9, #1342177286	; 0x50000006
 1c0:	65736552 	ldrbvs	r6, [r3, #-1362]!	; 0x552
 1c4:	03920074 	orrseq	r0, r2, #116	; 0x74
 1c8:	51780000 	cmnpl	r8, r0
 1cc:	65756575 	ldrbvs	r6, [r5, #-1397]!	; 0x575
 1d0:	656e6547 	strbvs	r6, [lr, #-1351]!	; 0x547
 1d4:	43636972 	cmnmi	r3, #1867776	; 0x1c8000
 1d8:	74616572 	strbtvc	r6, [r1], #-1394	; 0x572
 1dc:	04410065 	strbeq	r0, [r1], #-101	; 0x65
 1e0:	51780000 	cmnpl	r8, r0
 1e4:	65756575 	ldrbvs	r6, [r5, #-1397]!	; 0x575
 1e8:	656e6547 	strbvs	r6, [lr, #-1351]!	; 0x547
 1ec:	53636972 	cmnpl	r3, #1867776	; 0x1c8000
 1f0:	00646e65 	rsbeq	r6, r4, r5, ror #28
 1f4:	000004f1 	strdeq	r0, [r0], -r1
 1f8:	65755178 	ldrbvs	r5, [r5, #-376]!	; 0x178
 1fc:	65476575 	strbvs	r6, [r7, #-1397]	; 0x575
 200:	6972656e 	ldmdbvs	r2!, {r1, r2, r3, r5, r6, r8, sl, sp, lr}^
 204:	6e655363 	cdpvs	3, 6, cr5, cr5, cr3, {3}
 208:	6f724664 	svcvs	0x00724664
 20c:	5253496d 	subspl	r4, r3, #1785856	; 0x1b4000
 210:	00059c00 	andeq	r9, r5, r0, lsl #24
 214:	75517800 	ldrbvc	r7, [r1, #-2048]	; 0x800
 218:	47657565 	strbmi	r7, [r5, -r5, ror #10]!
 21c:	72656e65 	rsbvc	r6, r5, #1616	; 0x650
 220:	65526369 	ldrbvs	r6, [r2, #-873]	; 0x369
 224:	76696563 	strbtvc	r6, [r9], -r3, ror #10
 228:	065c0065 	ldrbeq	r0, [ip], -r5, rrx
 22c:	51780000 	cmnpl	r8, r0
 230:	65756575 	ldrbvs	r6, [r5, #-1397]!	; 0x575
 234:	65636552 	strbvs	r6, [r3, #-1362]!	; 0x552
 238:	46657669 	strbtmi	r7, [r5], -r9, ror #12
 23c:	496d6f72 	stmdbmi	sp!, {r1, r4, r5, r6, r8, r9, sl, fp, sp, lr}^
 240:	c6005253 			; <UNDEFINED> instruction: 0xc6005253
 244:	75000006 	strvc	r0, [r0, #-6]
 248:	65755178 	ldrbvs	r5, [r5, #-376]!	; 0x178
 24c:	654d6575 	strbvs	r6, [sp, #-1397]	; 0x575
 250:	67617373 			; <UNDEFINED> instruction: 0x67617373
 254:	61577365 	cmpvs	r7, r5, ror #6
 258:	6e697469 	cdpvs	4, 6, cr7, cr9, cr9, {3}
 25c:	07030067 	streq	r0, [r3, -r7, rrx]
 260:	78750000 	ldmdavc	r5!, {}^	; <UNPREDICTABLE>
 264:	75657551 	strbvc	r7, [r5, #-1361]!	; 0x551
 268:	73654d65 	cmnvc	r5, #6464	; 0x1940
 26c:	65676173 	strbvs	r6, [r7, #-371]!	; 0x173
 270:	69615773 	stmdbvs	r1!, {r0, r1, r4, r5, r6, r8, r9, sl, ip, lr}^
 274:	676e6974 			; <UNDEFINED> instruction: 0x676e6974
 278:	6d6f7246 	sfmvs	f7, 2, [pc, #-280]!	; 168 <vector_table-0x7fffe98>
 27c:	00525349 	subseq	r5, r2, r9, asr #6
 280:	0000073f 	andeq	r0, r0, pc, lsr r7
 284:	65755176 	ldrbvs	r5, [r5, #-374]!	; 0x176
 288:	65446575 	strbvs	r6, [r4, #-1397]	; 0x575
 28c:	6574656c 	ldrbvs	r6, [r4, #-1388]!	; 0x56c
 290:	00076a00 	andeq	r6, r7, r0, lsl #20
 294:	75517800 	ldrbvc	r7, [r1, #-2048]	; 0x800
 298:	49657565 	stmdbmi	r5!, {r0, r2, r5, r6, r8, sl, ip, sp, lr}^
 29c:	65755173 	ldrbvs	r5, [r5, #-371]!	; 0x173
 2a0:	6d456575 	cfstr64vs	mvdx6, [r5, #-468]	; 0xfffffe2c
 2a4:	46797470 			; <UNDEFINED> instruction: 0x46797470
 2a8:	496d6f72 	stmdbmi	sp!, {r1, r4, r5, r6, r8, r9, sl, fp, sp, lr}^
 2ac:	a8005253 	stmdage	r0, {r0, r1, r4, r6, r9, ip, lr}
 2b0:	78000007 	stmdavc	r0, {r0, r1, r2}
 2b4:	75657551 	strbvc	r7, [r5, #-1361]!	; 0x551
 2b8:	51734965 	cmnpl	r3, r5, ror #18
 2bc:	65756575 	ldrbvs	r6, [r5, #-1397]!	; 0x575
 2c0:	6c6c7546 	cfstr64vs	mvdx7, [ip], #-280	; 0xfffffee8
 2c4:	6d6f7246 	sfmvs	f7, 2, [pc, #-280]!	; 1b4 <vector_table-0x7fffe4c>
 2c8:	00525349 	subseq	r5, r2, r9, asr #6
 2cc:	00000000 	andeq	r0, r0, r0
 2d0:	00000194 	muleq	r0, r4, r1
 2d4:	19880002 	stmibne	r8, {r1}
 2d8:	09f70000 	ldmibeq	r7!, {}^	; <UNPREDICTABLE>
 2dc:	03d30000 	bicseq	r0, r3, #0
 2e0:	54780000 	ldrbtpl	r0, [r8], #-0
 2e4:	476b7361 	strbmi	r7, [fp, -r1, ror #6]!
 2e8:	72656e65 	rsbvc	r6, r5, #1616	; 0x650
 2ec:	72436369 	subvc	r6, r3, #-1543503871	; 0xa4000001
 2f0:	65746165 	ldrbvs	r6, [r4, #-357]!	; 0x165
 2f4:	00053100 	andeq	r3, r5, r0, lsl #2
 2f8:	61547600 	cmpvs	r4, r0, lsl #12
 2fc:	74536b73 	ldrbvc	r6, [r3], #-2931	; 0xb73
 300:	53747261 	cmnpl	r4, #268435462	; 0x10000006
 304:	64656863 	strbtvs	r6, [r5], #-2147	; 0x863
 308:	72656c75 	rsbvc	r6, r5, #29952	; 0x7500
 30c:	00055c00 	andeq	r5, r5, r0, lsl #24
 310:	61547600 	cmpvs	r4, r0, lsl #12
 314:	6e456b73 	vmovvs.8	d5[3], r6
 318:	68635364 	stmdavs	r3!, {r2, r5, r6, r8, r9, ip, lr}^
 31c:	6c756465 	cfldrdvs	mvd6, [r5], #-404	; 0xfffffe6c
 320:	71007265 	tstvc	r0, r5, ror #4
 324:	76000005 	strvc	r0, [r0], -r5
 328:	6b736154 	blvs	1cd8880 <vector_table-0x6327780>
 32c:	70737553 	rsbsvc	r7, r3, r3, asr r5
 330:	41646e65 	cmnmi	r4, r5, ror #28
 334:	86006c6c 	strhi	r6, [r0], -ip, ror #24
 338:	78000005 	stmdavc	r0, {r0, r2}
 33c:	6b736154 	blvs	1cd8894 <vector_table-0x632776c>
 340:	54746547 	ldrbtpl	r6, [r4], #-1351	; 0x547
 344:	436b6369 	cmnmi	fp, #-1543503871	; 0xa4000001
 348:	746e756f 	strbtvc	r7, [lr], #-1391	; 0x56f
 34c:	0005b300 	andeq	fp, r5, r0, lsl #6
 350:	61547800 	cmpvs	r4, r0, lsl #16
 354:	65476b73 	strbvs	r6, [r7, #-2931]	; 0xb73
 358:	63695474 	cmnvs	r9, #1946157056	; 0x74000000
 35c:	756f436b 	strbvc	r4, [pc, #-875]!	; fffffff9 <_estack+0xdfffbffd>
 360:	7246746e 	subvc	r7, r6, #1845493760	; 0x6e000000
 364:	53496d6f 	movtpl	r6, #40303	; 0x9d6f
 368:	05ec0052 	strbeq	r0, [ip, #82]!	; 0x52
 36c:	78750000 	ldmdavc	r5!, {}^	; <UNPREDICTABLE>
 370:	6b736154 	blvs	1cd88c8 <vector_table-0x6327738>
 374:	4e746547 	cdpmi	5, 7, cr6, cr4, cr7, {2}
 378:	65626d75 	strbvs	r6, [r2, #-3445]!	; 0xd75
 37c:	54664f72 	strbtpl	r4, [r6], #-3954	; 0xf72
 380:	736b7361 	cmnvc	fp, #-2080374783	; 0x84000001
 384:	00060500 	andeq	r0, r6, r0, lsl #10
 388:	61547600 	cmpvs	r4, r0, lsl #12
 38c:	6e496b73 	vmovvs.8	d9[3], r6
 390:	6d657263 	sfmvs	f7, 2, [r5, #-396]!	; 0xfffffe74
 394:	54746e65 	ldrbtpl	r6, [r4], #-3685	; 0xe65
 398:	006b6369 	rsbeq	r6, fp, r9, ror #6
 39c:	0000066e 	andeq	r0, r0, lr, ror #12
 3a0:	73615478 	cmnvc	r1, #2013265920	; 0x78000000
 3a4:	7365526b 	cmnvc	r5, #-1342177274	; 0xb0000006
 3a8:	41656d75 	smcmi	22229	; 0x56d5
 3ac:	c3006c6c 	movwgt	r6, #3180	; 0xc6c
 3b0:	76000006 	strvc	r0, [r0], -r6
 3b4:	6b736154 	blvs	1cd890c <vector_table-0x63276f4>
 3b8:	616c6544 	cmnvs	ip, r4, asr #10
 3bc:	070e0079 	smlsdxeq	lr, r9, r0, r0
 3c0:	54760000 	ldrbtpl	r0, [r6], #-0
 3c4:	536b7361 	cmnpl	fp, #-2080374783	; 0x84000001
 3c8:	63746977 	cmnvs	r4, #1949696	; 0x1dc000
 3cc:	6e6f4368 	cdpvs	3, 6, cr4, cr15, cr8, {3}
 3d0:	74786574 	ldrbtvc	r6, [r8], #-1396	; 0x574
 3d4:	00074800 	andeq	r4, r7, r0, lsl #16
 3d8:	61547600 	cmpvs	r4, r0, lsl #12
 3dc:	6c506b73 	mrrcvs	11, 7, r6, r0, cr3
 3e0:	4f656361 	svcmi	0x00656361
 3e4:	6576456e 	ldrbvs	r4, [r6, #-1390]!	; 0x56e
 3e8:	694c746e 	stmdbvs	ip, {r1, r2, r3, r5, r6, sl, ip, sp, lr}^
 3ec:	a3007473 	movwge	r7, #1139	; 0x473
 3f0:	78000007 	stmdavc	r0, {r0, r1, r2}
 3f4:	6b736154 	blvs	1cd894c <vector_table-0x63276b4>
 3f8:	6f6d6552 	svcvs	0x006d6552
 3fc:	72466576 	subvc	r6, r6, #494927872	; 0x1d800000
 400:	76456d6f 	strbvc	r6, [r5], -pc, ror #26
 404:	4c746e65 	ldclmi	14, cr6, [r4], #-404	; 0xfffffe6c
 408:	00747369 	rsbseq	r7, r4, r9, ror #6
 40c:	000007f0 	strdeq	r0, [r0], -r0	; <UNPREDICTABLE>
 410:	73615476 	cmnvc	r1, #1979711488	; 0x76000000
 414:	7465536b 	strbtvc	r5, [r5], #-875	; 0x36b
 418:	656d6954 	strbvs	r6, [sp, #-2388]!	; 0x954
 41c:	5374754f 	cmnpl	r4, #331350016	; 0x13c00000
 420:	65746174 	ldrbvs	r6, [r4, #-372]!	; 0x174
 424:	00082300 	andeq	r2, r8, r0, lsl #6
 428:	61547800 	cmpvs	r4, r0, lsl #16
 42c:	68436b73 	stmdavs	r3, {r0, r1, r4, r5, r6, r8, r9, fp, sp, lr}^
 430:	466b6365 	strbtmi	r6, [fp], -r5, ror #6
 434:	6954726f 	ldmdbvs	r4, {r0, r1, r2, r3, r5, r6, r9, ip, sp, lr}^
 438:	754f656d 	strbvc	r6, [pc, #-1389]	; fffffed3 <_estack+0xdfffbed7>
 43c:	087d0074 	ldmdaeq	sp!, {r2, r4, r5, r6}^
 440:	54760000 	ldrbtpl	r0, [r6], #-0
 444:	4d6b7361 	stclmi	3, cr7, [fp, #-388]!	; 0xfffffe7c
 448:	65737369 	ldrbvs	r7, [r3, #-873]!	; 0x369
 44c:	65695964 	strbvs	r5, [r9, #-2404]!	; 0x964
 450:	e400646c 	str	r6, [r0], #-1132	; 0x46c
 454:	70000009 	andvc	r0, r0, r9
 458:	72754378 	rsbsvc	r4, r5, #-536870911	; 0xe0000001
 45c:	746e6572 	strbtvc	r6, [lr], #-1394	; 0x572
 460:	00424354 	subeq	r4, r2, r4, asr r3
 464:	00000000 	andeq	r0, r0, r0
 468:	000000f1 	strdeq	r0, [r0], -r1
 46c:	23cf0002 	biccs	r0, pc, #2
 470:	01db0000 	bicseq	r0, fp, r0
 474:	00920000 	addseq	r0, r2, r0
 478:	78700000 	ldmdavc	r0!, {}^	; <UNPREDICTABLE>
 47c:	74726f50 	ldrbtvc	r6, [r2], #-3920	; 0xf50
 480:	74696e49 	strbtvc	r6, [r9], #-3657	; 0xe49
 484:	696c6169 	stmdbvs	ip!, {r0, r3, r5, r6, r8, sp, lr}^
 488:	74536573 	ldrbvc	r6, [r3], #-1395	; 0x573
 48c:	006b6361 	rsbeq	r6, fp, r1, ror #6
 490:	000000db 	ldrdeq	r0, [r0], -fp
 494:	726f5076 	rsbvc	r5, pc, #118	; 0x76
 498:	43565374 	cmpmi	r6, #-805306367	; 0xd0000001
 49c:	646e6148 	strbtvs	r6, [lr], #-328	; 0x148
 4a0:	0072656c 	rsbseq	r6, r2, ip, ror #10
 4a4:	000000f9 	strdeq	r0, [r0], -r9
 4a8:	726f5078 	rsbvc	r5, pc, #120	; 0x78
 4ac:	61745374 	cmnvs	r4, r4, ror r3
 4b0:	63537472 	cmpvs	r3, #1912602624	; 0x72000000
 4b4:	75646568 	strbvc	r6, [r4, #-1384]!	; 0x568
 4b8:	0072656c 	rsbseq	r6, r2, ip, ror #10
 4bc:	00000126 	andeq	r0, r0, r6, lsr #2
 4c0:	726f5076 	rsbvc	r5, pc, #118	; 0x76
 4c4:	646e4574 	strbtvs	r4, [lr], #-1396	; 0x574
 4c8:	65686353 	strbvs	r6, [r8, #-851]!	; 0x353
 4cc:	656c7564 	strbvs	r7, [ip, #-1380]!	; 0x564
 4d0:	013a0072 	teqeq	sl, r2, ror r0
 4d4:	50760000 	rsbspl	r0, r6, r0
 4d8:	5974726f 	ldmdbpl	r4!, {r0, r1, r2, r3, r5, r6, r9, ip, sp, lr}^
 4dc:	646c6569 	strbtvs	r6, [ip], #-1385	; 0x569
 4e0:	6d6f7246 	sfmvs	f7, 2, [pc, #-280]!	; 3d0 <vector_table-0x7fffc30>
 4e4:	00525349 	subseq	r5, r2, r9, asr #6
 4e8:	0000014e 	andeq	r0, r0, lr, asr #2
 4ec:	726f5076 	rsbvc	r5, pc, #118	; 0x76
 4f0:	746e4574 	strbtvc	r4, [lr], #-1396	; 0x574
 4f4:	72437265 	subvc	r7, r3, #1342177286	; 0x50000006
 4f8:	63697469 	cmnvs	r9, #1761607680	; 0x69000000
 4fc:	62006c61 	andvs	r6, r0, #24832	; 0x6100
 500:	76000001 	strvc	r0, [r0], -r1
 504:	74726f50 	ldrbtvc	r6, [r2], #-3920	; 0xf50
 508:	74697845 	strbtvc	r7, [r9], #-2117	; 0x845
 50c:	74697243 	strbtvc	r7, [r9], #-579	; 0x243
 510:	6c616369 	stclvs	3, cr6, [r1], #-420	; 0xfffffe5c
 514:	00017600 	andeq	r7, r1, r0, lsl #12
 518:	6f507800 	svcvs	0x00507800
 51c:	65507472 	ldrbvs	r7, [r0, #-1138]	; 0x472
 520:	5653646e 	ldrbpl	r6, [r3], -lr, ror #8
 524:	646e6148 	strbtvs	r6, [lr], #-328	; 0x148
 528:	0072656c 	rsbseq	r6, r2, ip, ror #10
 52c:	0000018a 	andeq	r0, r0, sl, lsl #3
 530:	726f5078 	rsbvc	r5, pc, #120	; 0x78
 534:	73795374 	cmnvc	r9, #-805306367	; 0xd0000001
 538:	6b636954 	blvs	18daa90 <vector_table-0x6725570>
 53c:	646e6148 	strbtvs	r6, [lr], #-328	; 0x148
 540:	0072656c 	rsbseq	r6, r2, ip, ror #10
 544:	000001c3 	andeq	r0, r0, r3, asr #3
 548:	654b6c75 	strbvs	r6, [fp, #-3189]	; 0xc75
 54c:	6c656e72 	stclvs	14, cr6, [r5], #-456	; 0xfffffe38
 550:	6f697250 	svcvs	0x00697250
 554:	79746972 	ldmdbvc	r4!, {r1, r4, r5, r6, r8, fp, sp, lr}^
 558:	00000000 	andeq	r0, r0, r0
 55c:	00006000 	andeq	r6, r0, r0
 560:	aa000200 	bge	d68 <vector_table-0x7fff298>
 564:	70000025 	andvc	r0, r0, r5, lsr #32
 568:	c0000001 	andgt	r0, r0, r1
 56c:	70000000 	andvc	r0, r0, r0
 570:	726f5076 	rsbvc	r5, pc, #118	; 0x76
 574:	6c614d74 	stclvs	13, cr4, [r1], #-464	; 0xfffffe30
 578:	00636f6c 	rsbeq	r6, r3, ip, ror #30
 57c:	000000fc 	strdeq	r0, [r0], -ip
 580:	726f5076 	rsbvc	r5, pc, #118	; 0x76
 584:	65724674 	ldrbvs	r4, [r2, #-1652]!	; 0x674
 588:	01210065 	teqeq	r1, r5, rrx
 58c:	50760000 	rsbspl	r0, r6, r0
 590:	4974726f 	ldmdbmi	r4!, {r0, r1, r2, r3, r5, r6, r9, ip, sp, lr}^
 594:	6974696e 	ldmdbvs	r4!, {r1, r2, r3, r5, r6, r8, fp, sp, lr}^
 598:	73696c61 	cmnvc	r9, #24832	; 0x6100
 59c:	6f6c4265 	svcvs	0x006c4265
 5a0:	00736b63 	rsbseq	r6, r3, r3, ror #22
 5a4:	00000135 	andeq	r0, r0, r5, lsr r1
 5a8:	726f5078 	rsbvc	r5, pc, #120	; 0x78
 5ac:	74654774 	strbtvc	r4, [r5], #-1908	; 0x774
 5b0:	65657246 	strbvs	r7, [r5, #-582]!	; 0x246
 5b4:	70616548 	rsbvc	r6, r1, r8, asr #10
 5b8:	657a6953 	ldrbvs	r6, [sl, #-2387]!	; 0x953
 5bc:	00000000 	andeq	r0, r0, r0
	...

Disassembly of section .debug_pubtypes:

00000000 <.debug_pubtypes>:
   0:	00000104 	andeq	r0, r0, r4, lsl #2
   4:	00000002 	andeq	r0, r0, r2
   8:	097a0000 	ldmdbeq	sl!, {}^	; <UNPREDICTABLE>
   c:	005d0000 	subseq	r0, sp, r0
  10:	4c5f0000 	mrami	r0, pc, acc0
  14:	5f4b434f 	svcpl	0x004b434f
  18:	55434552 	strbpl	r4, [r3, #-1362]	; 0x552
  1c:	56495352 			; <UNDEFINED> instruction: 0x56495352
  20:	00545f45 	subseq	r5, r4, r5, asr #30
  24:	0000006f 	andeq	r0, r0, pc, rrx
  28:	6f70665f 	svcvs	0x0070665f
  2c:	00745f73 	rsbseq	r5, r4, r3, ror pc
  30:	0000007a 	andeq	r0, r0, sl, ror r0
  34:	746e6977 	strbtvc	r6, [lr], #-2423	; 0x977
  38:	da00745f 	ble	1d1bc <vector_table-0x7fe2e44>
  3c:	5f000000 	svcpl	0x00000000
  40:	7473626d 	ldrbtvc	r6, [r3], #-621	; 0x26d
  44:	5f657461 	svcpl	0x00657461
  48:	00e50074 	rsceq	r0, r5, r4, ror r0
  4c:	665f0000 	ldrbvs	r0, [pc], -r0
  50:	6b636f6c 	blvs	18dbe08 <vector_table-0x67241f8>
  54:	f200745f 	vqshl.s8	<illegal reg q3.5>, <illegal reg q7.5>, q0
  58:	5f000000 	svcpl	0x00000000
  5c:	6f4c555f 	svcvs	0x004c555f
  60:	0400676e 	streq	r6, [r0], #-1902	; 0x76e
  64:	5f000001 	svcpl	0x00000001
  68:	69676942 	stmdbvs	r7!, {r1, r6, r8, fp, sp, lr}^
  6c:	7900746e 	stmdbvc	r0, {r1, r2, r3, r5, r6, sl, ip, sp, lr}
  70:	5f000001 	svcpl	0x00000001
  74:	006d745f 	rsbeq	r7, sp, pc, asr r4
  78:	00000204 	andeq	r0, r0, r4, lsl #4
  7c:	5f6e6f5f 	svcpl	0x006e6f5f
  80:	74697865 	strbtvc	r7, [r9], #-2149	; 0x865
  84:	6772615f 			; <UNDEFINED> instruction: 0x6772615f
  88:	025d0073 	subseq	r0, sp, #115	; 0x73
  8c:	615f0000 	cmpvs	pc, r0
  90:	69786574 	ldmdbvs	r8!, {r2, r4, r5, r6, r8, sl, sp, lr}^
  94:	02c70074 	sbceq	r0, r7, #116	; 0x74
  98:	5f5f0000 	svcpl	0x005f0000
  9c:	66756273 			; <UNDEFINED> instruction: 0x66756273
  a0:	00047600 	andeq	r7, r4, r0, lsl #12
  a4:	735f5f00 	cmpvc	pc, #0
  a8:	454c4946 	strbmi	r4, [ip, #-2374]	; 0x946
  ac:	00069200 	andeq	r9, r6, r0, lsl #4
  b0:	465f5f00 	ldrbmi	r5, [pc], -r0, lsl #30
  b4:	00454c49 	subeq	r4, r5, r9, asr #24
  b8:	0000069e 	muleq	r0, lr, r6
  bc:	756c675f 	strbvc	r6, [ip, #-1887]!	; 0x75f
  c0:	06e50065 	strbteq	r0, [r5], r5, rrx
  c4:	725f0000 	subsvc	r0, pc, #0
  c8:	34646e61 	strbtcc	r6, [r4], #-3681	; 0xe61
  cc:	073f0038 			; <UNDEFINED> instruction: 0x073f0038
  d0:	6d5f0000 	ldclvs	0, cr0, [pc, #-0]	; d8 <vector_table-0x7ffff28>
  d4:	63657270 	cmnvs	r5, #7
  d8:	00078f00 	andeq	r8, r7, r0, lsl #30
  dc:	696d5f00 	stmdbvs	sp!, {r8, r9, sl, fp, ip, lr}^
  e0:	725f6373 	subsvc	r6, pc, #-872415231	; 0xcc000001
  e4:	746e6565 	strbtvc	r6, [lr], #-1381	; 0x565
  e8:	0002f600 	andeq	pc, r2, r0, lsl #12
  ec:	65725f00 	ldrbvs	r5, [r2, #-3840]!	; 0xf00
  f0:	00746e65 	rsbseq	r6, r4, r5, ror #28
  f4:	00000894 	muleq	r0, r4, r8
  f8:	73615478 	cmnvc	r1, #2013265920	; 0x78000000
  fc:	6e61486b 	cdpvs	8, 6, cr4, cr1, cr11, {3}
 100:	00656c64 	rsbeq	r6, r5, r4, ror #24
 104:	00000000 	andeq	r0, r0, r0
 108:	00000076 	andeq	r0, r0, r6, ror r0
 10c:	0a000002 	beq	11c <vector_table-0x7fffee4>
 110:	029c0000 	addseq	r0, ip, #0
 114:	00740000 	rsbseq	r0, r4, r0
 118:	6f700000 	svcvs	0x00700000
 11c:	69547472 	ldmdbvs	r4, {r1, r4, r5, r6, sl, ip, sp, lr}^
 120:	79546b63 	ldmdbvc	r4, {r0, r1, r5, r6, r8, r9, fp, sp, lr}^
 124:	7f006570 	svcvc	0x00006570
 128:	78000000 	stmdavc	r0, {}	; <UNPREDICTABLE>
 12c:	5453494c 	ldrbpl	r4, [r3], #-2380	; 0x94c
 130:	4554495f 	ldrbmi	r4, [r4, #-2399]	; 0x95f
 134:	00dd004d 	sbcseq	r0, sp, sp, asr #32
 138:	4c780000 	ldclmi	0, cr0, [r8], #-0
 13c:	49747369 	ldmdbmi	r4!, {r0, r3, r5, r6, r8, r9, ip, sp, lr}^
 140:	006d6574 	rsbeq	r6, sp, r4, ror r5
 144:	000000e8 	andeq	r0, r0, r8, ror #1
 148:	4e494d78 	mcrmi	13, 2, r4, cr9, cr8, {3}
 14c:	494c5f49 	stmdbmi	ip, {r0, r3, r6, r8, r9, sl, fp, ip, lr}^
 150:	495f5453 	ldmdbmi	pc, {r0, r1, r4, r6, sl, ip, lr}^	; <UNPREDICTABLE>
 154:	004d4554 	subeq	r4, sp, r4, asr r5
 158:	0000011f 	andeq	r0, r0, pc, lsl r1
 15c:	6e694d78 	mcrvs	13, 3, r4, cr9, cr8, {3}
 160:	73694c69 	cmnvc	r9, #26880	; 0x6900
 164:	65744974 	ldrbvs	r4, [r4, #-2420]!	; 0x974
 168:	012a006d 	teqeq	sl, sp, rrx
 16c:	4c780000 	ldclmi	0, cr0, [r8], #-0
 170:	00545349 	subseq	r5, r4, r9, asr #6
 174:	00000176 	andeq	r0, r0, r6, ror r1
 178:	73694c78 	cmnvc	r9, #30720	; 0x7800
 17c:	00000074 	andeq	r0, r0, r4, ror r0
 180:	00c90000 	sbceq	r0, r9, r0
 184:	00020000 	andeq	r0, r2, r0
 188:	00000c9c 	muleq	r0, ip, ip
 18c:	00000509 	andeq	r0, r0, r9, lsl #10
 190:	00000035 	andeq	r0, r0, r5, lsr r0
 194:	74726f70 	ldrbtvc	r6, [r2], #-3952	; 0xf70
 198:	6b636954 	blvs	18da6f0 <vector_table-0x6725910>
 19c:	65707954 	ldrbvs	r7, [r0, #-2388]!	; 0x954
 1a0:	00004e00 	andeq	r4, r0, r0, lsl #28
 1a4:	494c7800 	stmdbmi	ip, {fp, ip, sp, lr}^
 1a8:	495f5453 	ldmdbmi	pc, {r0, r1, r4, r6, sl, ip, lr}^	; <UNPREDICTABLE>
 1ac:	004d4554 	subeq	r4, sp, r4, asr r5
 1b0:	000000ac 	andeq	r0, r0, ip, lsr #1
 1b4:	73694c78 	cmnvc	r9, #30720	; 0x7800
 1b8:	65744974 	ldrbvs	r4, [r4, #-2420]!	; 0x974
 1bc:	00b7006d 	adcseq	r0, r7, sp, rrx
 1c0:	4d780000 	ldclmi	0, cr0, [r8, #-0]
 1c4:	5f494e49 	svcpl	0x00494e49
 1c8:	5453494c 	ldrbpl	r4, [r3], #-2380	; 0x94c
 1cc:	4554495f 	ldrbmi	r4, [r4, #-2399]	; 0x95f
 1d0:	00ee004d 	rsceq	r0, lr, sp, asr #32
 1d4:	4d780000 	ldclmi	0, cr0, [r8, #-0]
 1d8:	4c696e69 	stclmi	14, cr6, [r9], #-420	; 0xfffffe5c
 1dc:	49747369 	ldmdbmi	r4!, {r0, r3, r5, r6, r8, r9, ip, sp, lr}^
 1e0:	006d6574 	rsbeq	r6, sp, r4, ror r5
 1e4:	000000f9 	strdeq	r0, [r0], -r9
 1e8:	53494c78 	movtpl	r4, #40056	; 0x9c78
 1ec:	01450054 	qdaddeq	r0, r4, r5
 1f0:	4c780000 	ldclmi	0, cr0, [r8], #-0
 1f4:	00747369 	rsbseq	r7, r4, r9, ror #6
 1f8:	0000015e 	andeq	r0, r0, lr, asr r1
 1fc:	526f4378 	rsbpl	r4, pc, #-536870911	; 0xe0000001
 200:	6974756f 	ldmdbvs	r4!, {r0, r1, r2, r3, r5, r6, r8, sl, ip, sp, lr}^
 204:	6148656e 	cmpvs	r8, lr, ror #10
 208:	656c646e 	strbvs	r6, [ip, #-1134]!	; 0x46e
 20c:	00016900 	andeq	r6, r1, r0, lsl #18
 210:	43726300 	cmnmi	r2, #0
 214:	554f524f 	strbpl	r5, [pc, #-591]	; ffffffcd <_estack+0xdfffbfd1>
 218:	454e4954 	strbmi	r4, [lr, #-2388]	; 0x954
 21c:	444f435f 	strbmi	r4, [pc], #-863	; 224 <vector_table-0x7fffddc>
 220:	018b0045 	orreq	r0, fp, r5, asr #32
 224:	6f630000 	svcvs	0x00630000
 228:	526f4372 	rsbpl	r4, pc, #-939524095	; 0xc8000001
 22c:	6974756f 	ldmdbvs	r4!, {r0, r1, r2, r3, r5, r6, r8, sl, ip, sp, lr}^
 230:	6f43656e 	svcvs	0x0043656e
 234:	6f72746e 	svcvs	0x0072746e
 238:	6f6c426c 	svcvs	0x006c426c
 23c:	ec006b63 	stc	11, cr6, [r0], {99}	; 0x63
 240:	63000001 	movwvs	r0, #1
 244:	5243726f 	subpl	r7, r3, #-268435450	; 0xf0000006
 248:	00004243 	andeq	r4, r0, r3, asr #4
 24c:	d0000000 	andle	r0, r0, r0
 250:	02000000 	andeq	r0, r0, #0
 254:	0011a500 	andseq	sl, r1, r0, lsl #10
 258:	0007e300 	andeq	lr, r7, r0, lsl #6
 25c:	00002500 	andeq	r2, r0, r0, lsl #10
 260:	7a697300 	bvc	1a5ce68 <vector_table-0x65a3198>
 264:	00745f65 	rsbseq	r5, r4, r5, ror #30
 268:	0000007f 	andeq	r0, r0, pc, ror r0
 26c:	74726f70 	ldrbtvc	r6, [r2], #-3952	; 0xf70
 270:	6b636954 	blvs	18da7c8 <vector_table-0x6725838>
 274:	65707954 	ldrbvs	r7, [r0, #-2388]!	; 0x954
 278:	00008a00 	andeq	r8, r0, r0, lsl #20
 27c:	494c7800 	stmdbmi	ip, {fp, ip, sp, lr}^
 280:	495f5453 	ldmdbmi	pc, {r0, r1, r4, r6, sl, ip, lr}^	; <UNPREDICTABLE>
 284:	004d4554 	subeq	r4, sp, r4, asr r5
 288:	000000e8 	andeq	r0, r0, r8, ror #1
 28c:	73694c78 	cmnvc	r9, #30720	; 0x7800
 290:	65744974 	ldrbvs	r4, [r4, #-2420]!	; 0x974
 294:	00f3006d 	rscseq	r0, r3, sp, rrx
 298:	4d780000 	ldclmi	0, cr0, [r8, #-0]
 29c:	5f494e49 	svcpl	0x00494e49
 2a0:	5453494c 	ldrbpl	r4, [r3], #-2380	; 0x94c
 2a4:	4554495f 	ldrbmi	r4, [r4, #-2399]	; 0x95f
 2a8:	012a004d 	teqeq	sl, sp, asr #32
 2ac:	4d780000 	ldclmi	0, cr0, [r8, #-0]
 2b0:	4c696e69 	stclmi	14, cr6, [r9], #-420	; 0xfffffe5c
 2b4:	49747369 	ldmdbmi	r4!, {r0, r3, r5, r6, r8, r9, ip, sp, lr}^
 2b8:	006d6574 	rsbeq	r6, sp, r4, ror r5
 2bc:	00000135 	andeq	r0, r0, r5, lsr r1
 2c0:	53494c78 	movtpl	r4, #40056	; 0x9c78
 2c4:	01810054 	orreq	r0, r1, r4, asr r0
 2c8:	4c780000 	ldclmi	0, cr0, [r8], #-0
 2cc:	00747369 	rsbseq	r7, r4, r9, ror #6
 2d0:	0000018c 	andeq	r0, r0, ip, lsl #3
 2d4:	4d495478 	cfstrdmi	mvd5, [r9, #-480]	; 0xfffffe20
 2d8:	554f5f45 	strbpl	r5, [pc, #-3909]	; fffff39b <_estack+0xdfffb39f>
 2dc:	01b50054 			; <UNDEFINED> instruction: 0x01b50054
 2e0:	54780000 	ldrbtpl	r0, [r8], #-0
 2e4:	4f656d69 	svcmi	0x00656d69
 2e8:	79547475 	ldmdbvc	r4, {r0, r2, r4, r5, r6, sl, ip, sp, lr}^
 2ec:	c0006570 	andgt	r6, r0, r0, ror r5
 2f0:	51000001 	tstpl	r0, r1
 2f4:	65756575 	ldrbvs	r6, [r5, #-1397]!	; 0x575
 2f8:	69666544 	stmdbvs	r6!, {r2, r6, r8, sl, sp, lr}^
 2fc:	6974696e 	ldmdbvs	r4!, {r1, r2, r3, r5, r6, r8, fp, sp, lr}^
 300:	6d006e6f 	stcvs	14, cr6, [r0, #-444]	; 0xfffffe44
 304:	78000002 	stmdavc	r0, {r1}
 308:	55455551 	strbpl	r5, [r5, #-1361]	; 0x551
 30c:	02780045 	rsbseq	r0, r8, #69	; 0x45
 310:	51780000 	cmnpl	r8, r0
 314:	65756575 	ldrbvs	r6, [r5, #-1397]!	; 0x575
 318:	646e6148 	strbtvs	r6, [lr], #-328	; 0x148
 31c:	0000656c 	andeq	r6, r0, ip, ror #10
 320:	08000000 	stmdaeq	r0, {}	; <UNPREDICTABLE>
 324:	02000001 	andeq	r0, r0, #1
 328:	00198800 	andseq	r8, r9, r0, lsl #16
 32c:	0009f700 	andeq	pc, r9, r0, lsl #14
 330:	00002500 	andeq	r2, r0, r0, lsl #10
 334:	7a697300 	bvc	1a5cf3c <vector_table-0x65a30c4>
 338:	00745f65 	rsbseq	r5, r4, r5, ror #30
 33c:	0000007f 	andeq	r0, r0, pc, ror r0
 340:	41546470 	cmpmi	r4, r0, ror r4
 344:	435f4b53 	cmpmi	pc, #84992	; 0x14c00
 348:	0045444f 	subeq	r4, r5, pc, asr #8
 34c:	0000009c 	muleq	r0, ip, r0
 350:	74726f70 	ldrbtvc	r6, [r2], #-3952	; 0xf70
 354:	6b636954 	blvs	18da8ac <vector_table-0x6725754>
 358:	65707954 	ldrbvs	r7, [r0, #-2388]!	; 0x954
 35c:	0000a700 	andeq	sl, r0, r0, lsl #14
 360:	494c7800 	stmdbmi	ip, {fp, ip, sp, lr}^
 364:	495f5453 	ldmdbmi	pc, {r0, r1, r4, r6, sl, ip, lr}^	; <UNPREDICTABLE>
 368:	004d4554 	subeq	r4, sp, r4, asr r5
 36c:	00000105 	andeq	r0, r0, r5, lsl #2
 370:	73694c78 	cmnvc	r9, #30720	; 0x7800
 374:	65744974 	ldrbvs	r4, [r4, #-2420]!	; 0x974
 378:	0110006d 	tsteq	r0, sp, rrx
 37c:	4d780000 	ldclmi	0, cr0, [r8, #-0]
 380:	5f494e49 	svcpl	0x00494e49
 384:	5453494c 	ldrbpl	r4, [r3], #-2380	; 0x94c
 388:	4554495f 	ldrbmi	r4, [r4, #-2399]	; 0x95f
 38c:	0147004d 	cmpeq	r7, sp, asr #32
 390:	4d780000 	ldclmi	0, cr0, [r8, #-0]
 394:	4c696e69 	stclmi	14, cr6, [r9], #-420	; 0xfffffe5c
 398:	49747369 	ldmdbmi	r4!, {r0, r3, r5, r6, r8, r9, ip, sp, lr}^
 39c:	006d6574 	rsbeq	r6, sp, r4, ror r5
 3a0:	00000152 	andeq	r0, r0, r2, asr r1
 3a4:	53494c78 	movtpl	r4, #40056	; 0x9c78
 3a8:	019e0054 	orrseq	r0, lr, r4, asr r0
 3ac:	4c780000 	ldclmi	0, cr0, [r8], #-0
 3b0:	00747369 	rsbseq	r7, r4, r9, ror #6
 3b4:	000001a9 	andeq	r0, r0, r9, lsr #3
 3b8:	73615478 	cmnvc	r1, #2013265920	; 0x78000000
 3bc:	6e61486b 	cdpvs	8, 6, cr4, cr1, cr11, {3}
 3c0:	00656c64 	rsbeq	r6, r5, r4, ror #24
 3c4:	000001b4 			; <UNDEFINED> instruction: 0x000001b4
 3c8:	4d495478 	cfstrdmi	mvd5, [r9, #-480]	; 0xfffffe20
 3cc:	554f5f45 	strbpl	r5, [pc, #-3909]	; fffff48f <_estack+0xdfffb493>
 3d0:	01dd0054 	bicseq	r0, sp, r4, asr r0
 3d4:	54780000 	ldrbtpl	r0, [r8], #-0
 3d8:	4f656d69 	svcmi	0x00656d69
 3dc:	79547475 	ldmdbvc	r4, {r0, r2, r4, r5, r6, sl, ip, sp, lr}^
 3e0:	e8006570 	stmda	r0, {r4, r5, r6, r8, sl, sp, lr}
 3e4:	78000001 	stmdavc	r0, {r0}
 3e8:	4f4d454d 	svcmi	0x004d454d
 3ec:	525f5952 	subspl	r5, pc, #1343488	; 0x148000
 3f0:	4f494745 	svcmi	0x00494745
 3f4:	021f004e 	andseq	r0, pc, #78	; 0x4e
 3f8:	4d780000 	ldclmi	0, cr0, [r8, #-0]
 3fc:	726f6d65 	rsbvc	r6, pc, #6464	; 0x1940
 400:	67655279 			; <UNDEFINED> instruction: 0x67655279
 404:	006e6f69 	rsbeq	r6, lr, r9, ror #30
 408:	00000240 	andeq	r0, r0, r0, asr #4
 40c:	546b7374 	strbtpl	r7, [fp], #-884	; 0x374
 410:	436b7361 	cmnmi	fp, #-2080374783	; 0x84000001
 414:	72746e6f 	rsbsvc	r6, r4, #1776	; 0x6f0
 418:	6c426c6f 	mcrrvs	12, 6, r6, r2, cr15
 41c:	006b636f 	rsbeq	r6, fp, pc, ror #6
 420:	000002b7 			; <UNDEFINED> instruction: 0x000002b7
 424:	546b7374 	strbtpl	r7, [fp], #-884	; 0x374
 428:	00004243 	andeq	r4, r0, r3, asr #4
 42c:	0e000000 	cdpeq	0, 0, cr0, cr0, cr0, {0}
 430:	02000000 	andeq	r0, r0, #0
 434:	00237f00 	eoreq	r7, r3, r0, lsl #30
 438:	00005000 	andeq	r5, r0, r0
 43c:	00000000 	andeq	r0, r0, r0
 440:	00002f00 	andeq	r2, r0, r0, lsl #30
 444:	cf000200 	svcgt	0x00000200
 448:	db000023 	blle	4dc <vector_table-0x7fffb24>
 44c:	33000001 	movwcc	r0, #1
 450:	70000000 	andvc	r0, r0, r0
 454:	53415464 	movtpl	r5, #5220	; 0x1464
 458:	4f435f4b 	svcmi	0x00435f4b
 45c:	52004544 	andpl	r4, r0, #285212672	; 0x11000000
 460:	70000000 	andvc	r0, r0, r0
 464:	5474726f 	ldrbtpl	r7, [r4], #-623	; 0x26f
 468:	546b6369 	strbtpl	r6, [fp], #-873	; 0x369
 46c:	00657079 	rsbeq	r7, r5, r9, ror r0
 470:	00000000 	andeq	r0, r0, r0
 474:	00000028 	andeq	r0, r0, r8, lsr #32
 478:	25aa0002 	strcs	r0, [sl, #2]!
 47c:	01700000 	cmneq	r0, r0
 480:	00250000 	eoreq	r0, r5, r0
 484:	69730000 	ldmdbvs	r3!, {}^	; <UNPREDICTABLE>
 488:	745f657a 	ldrbvc	r6, [pc], #-1402	; 490 <vector_table-0x7fffb70>
 48c:	00007f00 	andeq	r7, r0, r0, lsl #30
 490:	54527800 	ldrbpl	r7, [r2], #-2048	; 0x800
 494:	485f534f 	ldmdami	pc, {r0, r1, r2, r3, r6, r8, r9, ip, lr}^	; <UNPREDICTABLE>
 498:	00504145 	subseq	r4, r0, r5, asr #2
 49c:	00000000 	andeq	r0, r0, r0

Disassembly of section .debug_aranges:

00000000 <.debug_aranges>:
   0:	0000001c 	andeq	r0, r0, ip, lsl r0
   4:	00000002 	andeq	r0, r0, r2
   8:	00040000 	andeq	r0, r4, r0
   c:	00000000 	andeq	r0, r0, r0
  10:	08000040 	stmdaeq	r0, {r6}
  14:	00000034 	andeq	r0, r0, r4, lsr r0
	...
  20:	0000001c 	andeq	r0, r0, ip, lsl r0
  24:	097a0002 	ldmdbeq	sl!, {r1}^
  28:	00040000 	andeq	r0, r4, r0
  2c:	00000000 	andeq	r0, r0, r0
  30:	08000074 	stmdaeq	r0, {r2, r4, r5, r6}
  34:	00000004 	andeq	r0, r0, r4
	...
  40:	0000001c 	andeq	r0, r0, ip, lsl r0
  44:	0a000002 	beq	54 <vector_table-0x7ffffac>
  48:	00040000 	andeq	r0, r4, r0
  4c:	00000000 	andeq	r0, r0, r0
  50:	08000078 	stmdaeq	r0, {r3, r4, r5, r6}
  54:	00000088 	andeq	r0, r0, r8, lsl #1
	...
  60:	0000001c 	andeq	r0, r0, ip, lsl r0
  64:	0c9c0002 	ldceq	0, cr0, [ip], {2}
  68:	00040000 	andeq	r0, r4, r0
  6c:	00000000 	andeq	r0, r0, r0
  70:	08000100 	stmdaeq	r0, {r8}
  74:	00000238 	andeq	r0, r0, r8, lsr r2
	...
  80:	0000001c 	andeq	r0, r0, ip, lsl r0
  84:	11a50002 			; <UNDEFINED> instruction: 0x11a50002
  88:	00040000 	andeq	r0, r4, r0
  8c:	00000000 	andeq	r0, r0, r0
  90:	08000338 	stmdaeq	r0, {r3, r4, r5, r8, r9}
  94:	00000410 	andeq	r0, r0, r0, lsl r4
	...
  a0:	0000001c 	andeq	r0, r0, ip, lsl r0
  a4:	19880002 	stmibne	r8, {r1}
  a8:	00040000 	andeq	r0, r4, r0
  ac:	00000000 	andeq	r0, r0, r0
  b0:	08000748 	stmdaeq	r0, {r3, r6, r8, r9, sl}
  b4:	00000574 	andeq	r0, r0, r4, ror r5
	...
  c0:	0000001c 	andeq	r0, r0, ip, lsl r0
  c4:	23cf0002 	biccs	r0, pc, #2
  c8:	00040000 	andeq	r0, r4, r0
  cc:	00000000 	andeq	r0, r0, r0
  d0:	08000cbc 	stmdaeq	r0, {r2, r3, r4, r5, r7, sl, fp}
  d4:	0000012c 	andeq	r0, r0, ip, lsr #2
	...
  e0:	0000001c 	andeq	r0, r0, ip, lsl r0
  e4:	25aa0002 	strcs	r0, [sl, #2]!
  e8:	00040000 	andeq	r0, r4, r0
  ec:	00000000 	andeq	r0, r0, r0
  f0:	08000dec 	stmdaeq	r0, {r2, r3, r5, r6, r7, r8, sl, fp}
  f4:	0000005c 	andeq	r0, r0, ip, asr r0
	...

Disassembly of section .debug_str:

00000000 <.debug_str>:
       0:	6f73645f 	svcvs	0x0073645f
       4:	6e61685f 	mcrvs	8, 3, r6, cr1, cr15, {2}
       8:	00656c64 	rsbeq	r6, r5, r4, ror #24
       c:	5f73695f 	svcpl	0x0073695f
      10:	00617863 	rsbeq	r7, r1, r3, ror #16
      14:	7a69735f 	bvc	1a5cd98 <vector_table-0x65a3268>
      18:	6f770065 	svcvs	0x00770065
      1c:	5f006b72 	svcpl	0x00006b72
      20:	646e6172 	strbtvs	r6, [lr], #-370	; 0x172
      24:	5f003834 	svcpl	0x00003834
      28:	72656d65 	rsbvc	r6, r5, #6464	; 0x1940
      2c:	636e6567 	cmnvs	lr, #432013312	; 0x19c00000
      30:	615f0079 	cmpvs	pc, r9, ror r0	; <UNPREDICTABLE>
      34:	69786574 	ldmdbvs	r8!, {r2, r4, r5, r6, r8, sl, sp, lr}^
      38:	5f003074 	svcpl	0x00003074
      3c:	74726377 	ldrbtvc	r6, [r2], #-887	; 0x377
      40:	5f626d6f 	svcpl	0x00626d6f
      44:	74617473 	strbtvc	r7, [r1], #-1139	; 0x473
      48:	775f0065 	ldrbvc	r0, [pc, -r5, rrx]
      4c:	74727363 	ldrbtvc	r7, [r2], #-867	; 0x363
      50:	73626d6f 	cmnvc	r2, #7104	; 0x1bc0
      54:	6174735f 	cmnvs	r4, pc, asr r3
      58:	6c006574 	cfstr32vs	mvfx6, [r0], {116}	; 0x74
      5c:	20676e6f 	rsbcs	r6, r7, pc, ror #28
      60:	676e6f6c 	strbvs	r6, [lr, -ip, ror #30]!
      64:	736e7520 	cmnvc	lr, #134217728	; 0x8000000
      68:	656e6769 	strbvs	r6, [lr, #-1897]!	; 0x769
      6c:	6e692064 	cdpvs	0, 6, cr2, cr9, cr4, {3}
      70:	6c5f0074 	mrrcvs	0, 7, r0, pc, cr4	; <UNPREDICTABLE>
      74:	69736662 	ldmdbvs	r3!, {r1, r5, r6, r9, sl, sp, lr}^
      78:	5f00657a 	svcpl	0x0000657a
      7c:	7472626d 	ldrbtvc	r6, [r2], #-621	; 0x26d
      80:	5f63776f 	svcpl	0x0063776f
      84:	74617473 	strbtvc	r7, [r1], #-1139	; 0x473
      88:	775f0065 	ldrbvc	r0, [pc, -r5, rrx]
      8c:	6d6f7463 	cfstrdvs	mvd7, [pc, #-396]!	; ffffff08 <_estack+0xdfffbf0c>
      90:	74735f62 	ldrbtvc	r5, [r3], #-3938	; 0xf62
      94:	00657461 	rsbeq	r7, r5, r1, ror #8
      98:	6d745f5f 	ldclvs	15, cr5, [r4, #-380]!	; 0xfffffe84
      9c:	6365735f 	cmnvs	r5, #2080374785	; 0x7c000001
      a0:	6e6f6c00 	cdpvs	12, 6, cr6, cr15, cr0, {0}
      a4:	6f6c2067 	svcvs	0x006c2067
      a8:	6920676e 	stmdbvs	r0!, {r1, r2, r3, r5, r6, r8, r9, sl, sp, lr}
      ac:	5f00746e 	svcpl	0x0000746e
      b0:	66756275 			; <UNDEFINED> instruction: 0x66756275
      b4:	61547800 	cmpvs	r4, r0, lsl #16
      b8:	61486b73 	hvcvs	34483	; 0x86b3
      bc:	656c646e 	strbvs	r6, [ip, #-1134]!	; 0x46e
      c0:	61625f00 	cmnvs	r2, r0, lsl #30
      c4:	5f006573 	svcpl	0x00006573
      c8:	5f6d745f 	svcpl	0x006d745f
      cc:	72756f68 	rsbsvc	r6, r5, #416	; 0x1a0
      d0:	735f5f00 	cmpvc	pc, #0
      d4:	6f5f0066 	svcvs	0x005f0066
      d8:	78655f6e 	stmdavc	r5!, {r1, r2, r3, r5, r6, r8, r9, sl, fp, ip, lr}^
      dc:	615f7469 	cmpvs	pc, r9, ror #8
      e0:	00736772 	rsbseq	r6, r3, r2, ror r7
      e4:	6f6f635f 	svcvs	0x006f635f
      e8:	0065696b 	rsbeq	r6, r5, fp, ror #18
      ec:	67735f5f 			; <UNDEFINED> instruction: 0x67735f5f
      f0:	0065756c 	rsbeq	r7, r5, ip, ror #10
      f4:	72706d5f 	rsbsvc	r6, r0, #6080	; 0x17c0
      f8:	5f006365 	svcpl	0x00006365
      fc:	67616c66 	strbvs	r6, [r1, -r6, ror #24]!
     100:	682f0073 	stmdavs	pc!, {r0, r1, r4, r5, r6}	; <UNPREDICTABLE>
     104:	2f656d6f 	svccs	0x00656d6f
     108:	2f73696e 	svccs	0x0073696e
     10c:	336d7473 	cmncc	sp, #1929379840	; 0x73000000
     110:	72662f32 	rsbvc	r2, r6, #200	; 0xc8
     114:	74726565 	ldrbtvc	r6, [r2], #-1381	; 0x565
     118:	302f736f 	eorcc	r7, pc, pc, ror #6
     11c:	61622d30 	cmnvs	r2, r0, lsr sp
     120:	5f006573 	svcpl	0x00006573
     124:	69647473 	stmdbvs	r4!, {r0, r1, r4, r5, r6, sl, ip, sp, lr}^
     128:	625f006e 	subsvs	r0, pc, #110	; 0x6e
     12c:	69736b6c 	ldmdbvs	r3!, {r2, r3, r5, r6, r8, r9, fp, sp, lr}^
     130:	5f00657a 	svcpl	0x0000657a
     134:	62747663 	rsbsvs	r7, r4, #103809024	; 0x6300000
     138:	5f006675 	svcpl	0x00006675
     13c:	7366666f 	cmnvc	r6, #116391936	; 0x6f00000
     140:	5f007465 	svcpl	0x00007465
     144:	7273626d 	rsbsvc	r6, r3, #-805306362	; 0xd0000006
     148:	63776f74 	cmnvs	r7, #464	; 0x1d0
     14c:	74735f73 	ldrbtvc	r5, [r3], #-3955	; 0xf73
     150:	00657461 	rsbeq	r7, r5, r1, ror #8
     154:	72626d5f 	rsbvc	r6, r2, #6080	; 0x17c0
     158:	5f6e656c 	svcpl	0x006e656c
     15c:	74617473 	strbtvc	r7, [r1], #-1139	; 0x473
     160:	665f0065 	ldrbvs	r0, [pc], -r5, rrx
     164:	6772616e 	ldrbvs	r6, [r2, -lr, ror #2]!
     168:	665f0073 			; <UNDEFINED> instruction: 0x665f0073
     16c:	6900736e 	stmdbvs	r0, {r1, r2, r3, r5, r6, r8, r9, ip, sp, lr}
     170:	0072636e 	rsbseq	r6, r2, lr, ror #6
     174:	6769735f 			; <UNDEFINED> instruction: 0x6769735f
     178:	665f006e 	ldrbvs	r0, [pc], -lr, rrx
     17c:	6b636f6c 	blvs	18dbf34 <vector_table-0x67240cc>
     180:	5f00745f 	svcpl	0x0000745f
     184:	65647473 	strbvs	r7, [r4, #-1139]!	; 0x473
     188:	5f007272 	svcpl	0x00007272
     18c:	69676942 	stmdbvs	r7!, {r1, r6, r8, fp, sp, lr}^
     190:	5f00746e 	svcpl	0x0000746e
     194:	64616572 	strbtvs	r6, [r1], #-1394	; 0x572
     198:	65725f00 	ldrbvs	r5, [r2, #-3840]!	; 0xf00
     19c:	746c7573 	strbtvc	r7, [ip], #-1395	; 0x573
     1a0:	5f006b5f 	svcpl	0x00006b5f
     1a4:	006d745f 	rsbeq	r7, sp, pc, asr r4
     1a8:	5f6e6f5f 	svcpl	0x006e6f5f
     1ac:	74697865 	strbtvc	r7, [r9], #-2149	; 0x865
     1b0:	6772615f 			; <UNDEFINED> instruction: 0x6772615f
     1b4:	74705f73 	ldrbtvc	r5, [r0], #-3955	; 0xf73
     1b8:	5f5f0072 	svcpl	0x005f0072
     1bc:	62686377 	rsbvs	r6, r8, #-603979775	; 0xdc000001
     1c0:	54787000 	ldrbtpl	r7, [r8], #-0
     1c4:	006b7361 	rsbeq	r7, fp, r1, ror #6
     1c8:	6474735f 	ldrbtvs	r7, [r4], #-863	; 0x35f
     1cc:	0074756f 	rsbseq	r7, r4, pc, ror #10
     1d0:	7275635f 	rsbsvc	r6, r5, #2080374785	; 0x7c000001
     1d4:	746e6572 	strbtvc	r6, [lr], #-1394	; 0x572
     1d8:	7461635f 	strbtvc	r6, [r1], #-863	; 0x35f
     1dc:	726f6765 	rsbvc	r6, pc, #26476544	; 0x1940000
     1e0:	635f0079 	cmpvs	pc, #121	; 0x79
     1e4:	656c7476 	strbvs	r7, [ip, #-1142]!	; 0x476
     1e8:	725f006e 	subsvc	r0, pc, #110	; 0x6e
     1ec:	70003834 	andvc	r3, r0, r4, lsr r8
     1f0:	72615076 	rsbvc	r5, r1, #118	; 0x76
     1f4:	74656d61 	strbtvc	r6, [r5], #-3425	; 0xd61
     1f8:	00737265 	rsbseq	r7, r3, r5, ror #4
     1fc:	6b736174 	blvs	1cd87d4 <vector_table-0x632782c>
     200:	645f0031 	ldrbvs	r0, [pc], #-49	; 208 <vector_table-0x7fffdf8>
     204:	00617461 	rsbeq	r7, r1, r1, ror #8
     208:	6f696e5f 	svcvs	0x00696e5f
     20c:	76007362 	strvc	r7, [r0], -r2, ror #6
     210:	6c707041 	ldclvs	0, cr7, [r0], #-260	; 0xfffffefc
     214:	74616369 	strbtvc	r6, [r1], #-873	; 0x369
     218:	536e6f69 	cmnpl	lr, #420	; 0x1a4
     21c:	6b636174 	blvs	18d87f4 <vector_table-0x672780c>
     220:	7265764f 	rsbvc	r7, r5, #82837504	; 0x4f00000
     224:	776f6c66 	strbvc	r6, [pc, -r6, ror #24]!
     228:	6b6f6f48 	blvs	1bdbf50 <vector_table-0x64240b0>
     22c:	6f687300 	svcvs	0x00687300
     230:	75207472 	strvc	r7, [r0, #-1138]!	; 0x472
     234:	6769736e 	strbvs	r7, [r9, -lr, ror #6]!
     238:	2064656e 	rsbcs	r6, r4, lr, ror #10
     23c:	00746e69 	rsbseq	r6, r4, r9, ror #28
     240:	6769735f 			; <UNDEFINED> instruction: 0x6769735f
     244:	5f6c616e 	svcpl	0x006c616e
     248:	00667562 	rsbeq	r7, r6, r2, ror #10
     24c:	6373615f 	cmnvs	r3, #-1073741801	; 0xc0000017
     250:	656d6974 	strbvs	r6, [sp, #-2420]!	; 0x974
     254:	6675625f 			; <UNDEFINED> instruction: 0x6675625f
     258:	65725f00 	ldrbvs	r5, [r2, #-3840]!	; 0xf00
     25c:	746c7573 	strbtvc	r7, [ip], #-1395	; 0x573
     260:	775f5f00 	ldrbvc	r5, [pc, -r0, lsl #30]
     264:	77006863 	strvc	r6, [r0, -r3, ror #16]
     268:	5f746e69 	svcpl	0x00746e69
     26c:	6e5f0074 	mrcvs	0, 2, r0, cr15, cr4, {3}
     270:	00667562 	rsbeq	r7, r6, r2, ror #10
     274:	636f6c5f 	cmnvs	pc, #24320	; 0x5f00
     278:	665f006b 	ldrbvs	r0, [pc], -fp, rrx
     27c:	7367616c 	cmnvc	r7, #27
     280:	775f0032 	smmlarvc	pc, r2, r0, r0	; <UNPREDICTABLE>
     284:	65746972 	ldrbvs	r6, [r4, #-2418]!	; 0x972
     288:	745f5f00 	ldrbvc	r5, [pc], #-3840	; 290 <vector_table-0x7fffd70>
     28c:	65795f6d 	ldrbvs	r5, [r9, #-3949]!	; 0xf6d
     290:	5f007261 	svcpl	0x00007261
     294:	6373696d 	cmnvs	r3, #1785856	; 0x1b4000
     298:	73736100 	cmnvc	r3, #0
     29c:	5f747265 	svcpl	0x00747265
     2a0:	6c696166 	stfvse	f6, [r9], #-408	; 0xfffffe68
     2a4:	5f006465 	svcpl	0x00006465
     2a8:	5f6d745f 	svcpl	0x006d745f
     2ac:	006e6f6d 	rsbeq	r6, lr, sp, ror #30
     2b0:	6574615f 	ldrbvs	r6, [r4, #-351]!	; 0x15f
     2b4:	00746978 	rsbseq	r6, r4, r8, ror r9
     2b8:	64735f5f 	ldrbtvs	r5, [r3], #-3935	; 0xf5f
     2bc:	6e696469 	cdpvs	4, 6, cr6, cr9, cr9, {3}
     2c0:	5f007469 	svcpl	0x00007469
     2c4:	6d6d6167 	stfvse	f6, [sp, #-412]!	; 0xfffffe64
     2c8:	69735f61 	ldmdbvs	r3!, {r0, r5, r6, r8, r9, sl, fp, ip, lr}^
     2cc:	61676e67 	cmnvs	r7, r7, ror #28
     2d0:	665f006d 	ldrbvs	r0, [pc], -sp, rrx
     2d4:	6c656572 	cfstr64vs	mvdx6, [r5], #-456	; 0xfffffe38
     2d8:	00747369 	rsbseq	r7, r4, r9, ror #6
     2dc:	434f4c5f 	movtmi	r4, #64607	; 0xfc5f
     2e0:	45525f4b 	ldrbmi	r5, [r2, #-3915]	; 0xf4b
     2e4:	53525543 	cmppl	r2, #281018368	; 0x10c00000
     2e8:	5f455649 	svcpl	0x00455649
     2ec:	6e750054 	mrcvs	0, 3, r0, cr5, cr4, {2}
     2f0:	6e676973 	mcrvs	9, 3, r6, cr7, cr3, {3}
     2f4:	63206465 	teqvs	r0, #1694498816	; 0x65000000
     2f8:	00726168 	rsbseq	r6, r2, r8, ror #2
     2fc:	626f695f 	rsbvs	r6, pc, #1556480	; 0x17c000
     300:	68730073 	ldmdavs	r3!, {r0, r1, r4, r5, r6}^
     304:	2074726f 	rsbscs	r7, r4, pc, ror #4
     308:	00746e69 	rsbseq	r6, r4, r9, ror #28
     30c:	6d745f5f 	ldclvs	15, cr5, [r4, #-380]!	; 0xfffffe84
     310:	6164795f 	cmnvs	r4, pc, asr r9
     314:	5f5f0079 	svcpl	0x005f0079
     318:	66756273 			; <UNDEFINED> instruction: 0x66756273
     31c:	465f5f00 	ldrbmi	r5, [pc], -r0, lsl #30
     320:	00454c49 	subeq	r4, r5, r9, asr #24
     324:	73626d5f 	cmnvc	r2, #6080	; 0x17c0
     328:	65746174 	ldrbvs	r6, [r4, #-372]!	; 0x174
     32c:	5f00745f 	svcpl	0x0000745f
     330:	4946735f 	stmdbmi	r6, {r0, r1, r2, r3, r4, r6, r8, r9, ip, sp, lr}^
     334:	5f00454c 	svcpl	0x0000454c
     338:	7473626d 	ldrbtvc	r6, [r3], #-621	; 0x26d
     33c:	00657461 	rsbeq	r7, r5, r1, ror #8
     340:	6e61725f 	mcrvs	2, 3, r7, cr1, cr15, {2}
     344:	656e5f64 	strbvs	r5, [lr, #-3940]!	; 0xf64
     348:	5f007478 	svcpl	0x00007478
     34c:	656c626d 	strbvs	r6, [ip, #-621]!	; 0x26d
     350:	74735f6e 	ldrbtvc	r5, [r3], #-3950	; 0xf6e
     354:	00657461 	rsbeq	r7, r5, r1, ror #8
     358:	636e695f 	cmnvs	lr, #1556480	; 0x17c000
     35c:	6e695f00 	cdpvs	15, 6, cr5, cr9, cr0, {0}
     360:	635f0064 	cmpvs	pc, #100	; 0x64
     364:	65727275 	ldrbvs	r7, [r2, #-629]!	; 0x275
     368:	6c5f746e 	cfldrdvs	mvd7, [pc], {110}	; 0x6e
     36c:	6c61636f 	stclvs	3, cr6, [r1], #-444	; 0xfffffe44
     370:	5f5f0065 	svcpl	0x005f0065
     374:	61656c63 	cmnvs	r5, r3, ror #24
     378:	0070756e 	rsbseq	r7, r0, lr, ror #10
     37c:	78616d5f 	stmdavc	r1!, {r0, r1, r2, r3, r4, r6, r8, sl, fp, sp, lr}^
     380:	00736477 	rsbseq	r6, r3, r7, ror r4
     384:	6565735f 	strbvs	r7, [r5, #-863]!	; 0x35f
     388:	5f5f0064 	svcpl	0x005f0064
     38c:	6e756f63 	cdpvs	15, 7, cr6, cr5, cr3, {3}
     390:	5f5f0074 	svcpl	0x005f0074
     394:	756c6176 	strbvc	r6, [ip, #-374]!	; 0x176
     398:	735f0065 	cmpvc	pc, #101	; 0x65
     39c:	006b6565 	rsbeq	r6, fp, r5, ror #10
     3a0:	694c6c75 	stmdbvs	ip, {r0, r2, r4, r5, r6, sl, fp, sp, lr}^
     3a4:	5f00656e 	svcpl	0x0000656e
     3a8:	736f7066 	cmnvc	pc, #102	; 0x66
     3ac:	5f00745f 	svcpl	0x0000745f
     3b0:	6e727265 	cdpvs	2, 7, cr7, cr2, cr5, {3}
     3b4:	5f5f006f 	svcpl	0x005f006f
     3b8:	6d5f6d74 	ldclvs	13, cr6, [pc, #-464]	; 1f0 <vector_table-0x7fffe10>
     3bc:	5f006e69 	svcpl	0x00006e69
     3c0:	746c756d 	strbtvc	r7, [ip], #-1389	; 0x56d
     3c4:	74735f00 	ldrbtvc	r5, [r3], #-3840	; 0xf00
     3c8:	6b6f7472 	blvs	1bdd598 <vector_table-0x6422a68>
     3cc:	73616c5f 	cmnvc	r1, #24320	; 0x5f00
     3d0:	665f0074 			; <UNDEFINED> instruction: 0x665f0074
     3d4:	7079746e 	rsbsvc	r7, r9, lr, ror #8
     3d8:	5f007365 	svcpl	0x00007365
     3dc:	6373696d 	cmnvs	r3, #1785856	; 0x1b4000
     3e0:	6565725f 	strbvs	r7, [r5, #-607]!	; 0x25f
     3e4:	5f00746e 	svcpl	0x0000746e
     3e8:	00646461 	rsbeq	r6, r4, r1, ror #8
     3ec:	4c555f5f 	mrrcmi	15, 5, r5, r5, cr15	; <UNPREDICTABLE>
     3f0:	00676e6f 	rsbeq	r6, r7, pc, ror #28
     3f4:	7465675f 	strbtvc	r6, [r5], #-1887	; 0x75f
     3f8:	65746164 	ldrbvs	r6, [r4, #-356]!	; 0x164
     3fc:	7272655f 	rsbsvc	r6, r2, #398458880	; 0x17c00000
     400:	62735f00 	rsbsvs	r5, r3, #0
     404:	725f6b72 	subsvc	r6, pc, #116736	; 0x1c800
     408:	69665f00 	stmdbvs	r6!, {r8, r9, sl, fp, ip, lr}^
     40c:	5f00656c 	svcpl	0x0000656c
     410:	00736477 	rsbseq	r6, r3, r7, ror r4
     414:	6d745f5f 	ldclvs	15, cr5, [r4, #-380]!	; 0xfffffe84
     418:	6164775f 	cmnvs	r4, pc, asr r7
     41c:	675f0079 			; <UNDEFINED> instruction: 0x675f0079
     420:	0065756c 	rsbeq	r7, r5, ip, ror #10
     424:	61546370 	cmpvs	r4, r0, ror r3
     428:	614e6b73 	hvcvs	59059	; 0xe6b3
     42c:	5f00656d 	svcpl	0x0000656d
     430:	6134366c 	teqvs	r4, ip, ror #12
     434:	6675625f 			; <UNDEFINED> instruction: 0x6675625f
     438:	726f7700 	rsbvc	r7, pc, #0
     43c:	00632e6b 	rsbeq	r2, r3, fp, ror #28
     440:	6769735f 			; <UNDEFINED> instruction: 0x6769735f
     444:	6e75665f 	mrcvs	6, 3, r6, cr5, cr15, {2}
     448:	4e470063 	cdpmi	0, 4, cr0, cr7, cr3, {3}
     44c:	20432055 	subcs	r2, r3, r5, asr r0
     450:	2e352e34 	mrccs	14, 1, r2, cr5, cr4, {1}
     454:	5f5f0031 	svcpl	0x005f0031
     458:	695f6d74 	ldmdbvs	pc, {r2, r4, r5, r6, r8, sl, fp, sp, lr}^	; <UNPREDICTABLE>
     45c:	74736473 	ldrbtvc	r6, [r3], #-1139	; 0x473
     460:	6f6c5f00 	svcvs	0x006c5f00
     464:	746c6163 	strbtvc	r6, [ip], #-355	; 0x163
     468:	5f656d69 	svcpl	0x00656d69
     46c:	00667562 	rsbeq	r7, r6, r2, ror #10
     470:	6f6c635f 	svcvs	0x006c635f
     474:	5f006573 	svcpl	0x00006573
     478:	6f74626d 	svcvs	0x0074626d
     47c:	735f6377 	cmpvc	pc, #-603979775	; 0xdc000001
     480:	65746174 	ldrbvs	r6, [r4, #-372]!	; 0x174
     484:	35705f00 	ldrbcc	r5, [r0, #-3840]!	; 0xf00
     488:	75700073 	ldrbvc	r0, [r0, #-115]!	; 0x73
     48c:	6c694663 	stclvs	6, cr4, [r9], #-396	; 0xfffffe74
     490:	5f5f0065 	svcpl	0x005f0065
     494:	6d5f6d74 	ldclvs	13, cr6, [pc, #-464]	; 2cc <vector_table-0x7fffd34>
     498:	00796164 	rsbseq	r6, r9, r4, ror #2
     49c:	74636576 	strbtvc	r6, [r3], #-1398	; 0x576
     4a0:	745f726f 	ldrbvc	r7, [pc], #-623	; 4a8 <vector_table-0x7fffb58>
     4a4:	656c6261 	strbvs	r6, [ip, #-609]!	; 0x261
     4a8:	73657200 	cmnvc	r5, #0
     4ac:	685f7465 	ldmdavs	pc, {r0, r2, r5, r6, sl, ip, sp, lr}^	; <UNPREDICTABLE>
     4b0:	6c646e61 	stclvs	14, cr6, [r4], #-388	; 0xfffffe7c
     4b4:	73007265 	movwvc	r7, #613	; 0x265
     4b8:	74726174 	ldrbtvc	r6, [r2], #-372	; 0x174
     4bc:	632e7075 	teqvs	lr, #117	; 0x75
     4c0:	73655f00 	cmnvc	r5, #0
     4c4:	6b636174 	blvs	18d8a9c <vector_table-0x6727564>
     4c8:	694c7600 	stmdbvs	ip, {r9, sl, ip, sp, lr}^
     4cc:	6e497473 	mcrvs	4, 2, r7, cr9, cr3, {3}
     4d0:	61697469 	cmnvs	r9, r9, ror #8
     4d4:	6573696c 	ldrbvs	r6, [r3, #-2412]!	; 0x96c
     4d8:	694c7600 	stmdbvs	ip, {r9, sl, ip, sp, lr}^
     4dc:	6e497473 	mcrvs	4, 2, r7, cr9, cr3, {3}
     4e0:	74726573 	ldrbtvc	r6, [r2], #-1395	; 0x573
     4e4:	726f7000 	rsbvc	r7, pc, #0
     4e8:	63695474 	cmnvs	r9, #1946157056	; 0x74000000
     4ec:	7079546b 	rsbsvc	r5, r9, fp, ror #8
     4f0:	78700065 	ldmdavc	r0!, {r0, r2, r5, r6}^
     4f4:	76657250 			; <UNDEFINED> instruction: 0x76657250
     4f8:	73756f69 	cmnvc	r5, #420	; 0x1a4
     4fc:	4e787500 	cdpmi	5, 7, cr7, cr8, cr0, {0}
     500:	65626d75 	strbvs	r6, [r2, #-3445]!	; 0xd75
     504:	49664f72 	stmdbmi	r6!, {r1, r4, r5, r6, r8, r9, sl, fp, lr}^
     508:	736d6574 	cmnvc	sp, #486539264	; 0x1d000000
     50c:	694c7600 	stmdbvs	ip, {r9, sl, ip, sp, lr}^
     510:	65527473 	ldrbvs	r7, [r2, #-1139]	; 0x473
     514:	65766f6d 	ldrbvs	r6, [r6, #-3949]!	; 0xf6d
     518:	4f767000 	svcmi	0x00767000
     51c:	72656e77 	rsbvc	r6, r5, #1904	; 0x770
     520:	61567800 	cmpvs	r6, r0, lsl #16
     524:	4f65756c 	svcmi	0x0065756c
     528:	736e4966 	cmnvc	lr, #1671168	; 0x198000
     52c:	69747265 	ldmdbvs	r4!, {r0, r2, r5, r6, r9, ip, sp, lr}^
     530:	2e006e6f 	cdpcs	14, 0, cr6, cr0, cr15, {3}
     534:	72462f2e 	subvc	r2, r6, #184	; 0xb8
     538:	54526565 	ldrbpl	r6, [r2], #-1381	; 0x565
     53c:	3756534f 	ldrbcc	r5, [r6, -pc, asr #6]
     540:	312e312e 	teqcc	lr, lr, lsr #2
     544:	756f532f 	strbvc	r5, [pc, #-815]!	; 21d <vector_table-0x7fffde3>
     548:	2f656372 	svccs	0x00656372
     54c:	7473696c 	ldrbtvc	r6, [r3], #-2412	; 0x96c
     550:	7800632e 	stmdavc	r0, {r1, r2, r3, r5, r8, r9, sp, lr}
     554:	5453494c 	ldrbpl	r4, [r3], #-2380	; 0x94c
     558:	74497800 	strbvc	r7, [r9], #-2048	; 0x800
     55c:	61566d65 	cmpvs	r6, r5, ror #26
     560:	0065756c 	rsbeq	r7, r5, ip, ror #10
     564:	654e7870 	strbvs	r7, [lr, #-2160]	; 0x870
     568:	73694c77 	cmnvc	r9, #30464	; 0x7700
     56c:	65744974 	ldrbvs	r4, [r4, #-2420]!	; 0x974
     570:	4c78006d 	ldclmi	0, cr0, [r8], #-436	; 0xfffffe4c
     574:	5f545349 	svcpl	0x00545349
     578:	4d455449 	cfstrdmi	mvd5, [r5, #-292]	; 0xfffffedc
     57c:	694d7800 	stmdbvs	sp, {fp, ip, sp, lr}^
     580:	694c696e 	stmdbvs	ip, {r1, r2, r3, r5, r6, r8, fp, sp, lr}^
     584:	74497473 	strbvc	r7, [r9], #-1139	; 0x473
     588:	70006d65 	andvc	r6, r0, r5, ror #26
     58c:	6e6f4376 	mcrvs	3, 3, r4, cr15, cr6, {3}
     590:	6e696174 	mcrvs	1, 3, r6, cr9, cr4, {3}
     594:	70007265 	andvc	r7, r0, r5, ror #4
     598:	65744978 	ldrbvs	r4, [r4, #-2424]!	; 0x978
     59c:	6f746172 	svcvs	0x00746172
     5a0:	78700072 	ldmdavc	r0!, {r1, r4, r5, r6}^
     5a4:	7478654e 	ldrbtvc	r6, [r8], #-1358	; 0x54e
     5a8:	694c7600 	stmdbvs	ip, {r9, sl, ip, sp, lr}^
     5ac:	6e497473 	mcrvs	4, 2, r7, cr9, cr3, {3}
     5b0:	74726573 	ldrbtvc	r6, [r2], #-1395	; 0x573
     5b4:	00646e45 	rsbeq	r6, r4, r5, asr #28
     5b8:	74497870 	strbvc	r7, [r9], #-2160	; 0x870
     5bc:	6f546d65 	svcvs	0x00546d65
     5c0:	6f6d6552 	svcvs	0x006d6552
     5c4:	78006576 	stmdavc	r0, {r1, r2, r4, r5, r6, r8, sl, sp, lr}
     5c8:	7473694c 	ldrbtvc	r6, [r3], #-2380	; 0x94c
     5cc:	6d657449 	cfstrdvs	mvd7, [r5, #-292]!	; 0xfffffedc
     5d0:	4c787000 	ldclmi	0, cr7, [r8], #-0
     5d4:	00747369 	rsbseq	r7, r4, r9, ror #6
     5d8:	73694c78 	cmnvc	r9, #30720	; 0x7800
     5dc:	646e4574 	strbtvs	r4, [lr], #-1396	; 0x574
     5e0:	49787000 	ldmdbmi	r8!, {ip, sp, lr}^
     5e4:	006d6574 	rsbeq	r6, sp, r4, ror r5
     5e8:	6e497870 	mcrvs	8, 2, r7, cr9, cr0, {3}
     5ec:	00786564 	rsbseq	r6, r8, r4, ror #10
     5f0:	4e494d78 	mcrmi	13, 2, r4, cr9, cr8, {3}
     5f4:	494c5f49 	stmdbmi	ip, {r0, r3, r6, r8, r9, sl, fp, ip, lr}^
     5f8:	495f5453 	ldmdbmi	pc, {r0, r1, r4, r6, sl, ip, lr}^	; <UNPREDICTABLE>
     5fc:	004d4554 	subeq	r4, sp, r4, asr r5
     600:	73694c76 	cmnvc	r9, #30208	; 0x7600
     604:	696e4974 	stmdbvs	lr!, {r2, r4, r5, r6, r8, fp, lr}^
     608:	6c616974 	stclvs	9, cr6, [r1], #-464	; 0xfffffe30
     60c:	49657369 	stmdbmi	r5!, {r0, r3, r5, r6, r8, r9, ip, sp, lr}^
     610:	006d6574 	rsbeq	r6, sp, r4, ror r5
     614:	6e557870 	mrcvs	8, 2, r7, cr5, cr0, {3}
     618:	636f6c62 	cmnvs	pc, #25088	; 0x6200
     61c:	4364656b 	cmnmi	r4, #448790528	; 0x1ac00000
     620:	00424352 	subeq	r4, r2, r2, asr r3
     624:	65547870 	ldrbvs	r7, [r4, #-2160]	; 0x870
     628:	7600706d 	strvc	r7, [r0], -sp, rrx
     62c:	6f526f43 	svcvs	0x00526f43
     630:	6e697475 	mcrvs	4, 3, r7, cr9, cr5, {3}
     634:	64644165 	strbtvs	r4, [r4], #-357	; 0x165
     638:	65446f54 	strbvs	r6, [r4, #-3924]	; 0xf54
     63c:	6579616c 	ldrbvs	r6, [r9, #-364]!	; 0x16c
     640:	73694c64 	cmnvc	r9, #25600	; 0x6400
     644:	50780074 	rsbspl	r0, r8, r4, ror r0
     648:	65737361 	ldrbvs	r7, [r3, #-865]!	; 0x361
     64c:	63695464 	cmnvs	r9, #1677721600	; 0x64000000
     650:	7800736b 	stmdavc	r0, {r0, r1, r3, r5, r6, r8, r9, ip, sp, lr}
     654:	7473614c 	ldrbtvc	r6, [r3], #-332	; 0x14c
     658:	6b636954 	blvs	18dabb0 <vector_table-0x6725450>
     65c:	6e756f43 	cdpvs	15, 7, cr6, cr5, cr3, {2}
     660:	43780074 	cmnmi	r8, #116	; 0x74
     664:	756f526f 	strbvc	r5, [pc, #-623]!	; 3fd <vector_table-0x7fffc03>
     668:	656e6974 	strbvs	r6, [lr, #-2420]!	; 0x974
     66c:	6b636954 	blvs	18dabc4 <vector_table-0x672543c>
     670:	6e756f43 	cdpvs	15, 7, cr6, cr5, cr3, {2}
     674:	78700074 	ldmdavc	r0!, {r2, r4, r5, r6}^
     678:	736e6f43 	cmnvc	lr, #268	; 0x10c
     67c:	73694c74 	cmnvc	r9, #29696	; 0x7400
     680:	78750074 	ldmdavc	r5!, {r2, r4, r5, r6}^
     684:	43706f54 	cmnmi	r0, #336	; 0x150
     688:	756f526f 	strbvc	r5, [pc, #-623]!	; 421 <vector_table-0x7fffbdf>
     68c:	656e6974 	strbvs	r6, [lr, #-2420]!	; 0x974
     690:	64616552 	strbtvs	r6, [r1], #-1362	; 0x552
     694:	69725079 	ldmdbvs	r2!, {r0, r3, r4, r5, r6, ip, lr}^
     698:	7469726f 	strbtvc	r7, [r9], #-623	; 0x26f
     69c:	44780079 	ldrbtmi	r0, [r8], #-121	; 0x79
     6a0:	79616c65 	stmdbvc	r1!, {r0, r2, r5, r6, sl, fp, sp, lr}^
     6a4:	6f436465 	svcvs	0x00436465
     6a8:	74756f52 	ldrbtvc	r6, [r5], #-3922	; 0xf52
     6ac:	4c656e69 	stclmi	14, cr6, [r5], #-420	; 0xfffffe5c
     6b0:	31747369 	cmncc	r4, r9, ror #6
     6b4:	65447800 	strbvs	r7, [r4, #-2048]	; 0x800
     6b8:	6579616c 	ldrbvs	r6, [r9, #-364]!	; 0x16c
     6bc:	526f4364 	rsbpl	r4, pc, #-1879048191	; 0x90000001
     6c0:	6974756f 	ldmdbvs	r4!, {r0, r1, r2, r3, r5, r6, r8, sl, ip, sp, lr}^
     6c4:	694c656e 	stmdbvs	ip, {r1, r2, r3, r5, r6, r8, sl, sp, lr}^
     6c8:	00327473 	eorseq	r7, r2, r3, ror r4
     6cc:	43726f63 	cmnmi	r2, #396	; 0x18c
     6d0:	00424352 	subeq	r4, r2, r2, asr r3
     6d4:	52437870 	subpl	r7, r3, #7340032	; 0x700000
     6d8:	70004243 	andvc	r4, r0, r3, asr #4
     6dc:	526f4378 	rsbpl	r4, pc, #-536870911	; 0xe0000001
     6e0:	6974756f 	ldmdbvs	r4!, {r0, r1, r2, r3, r5, r6, r8, sl, ip, sp, lr}^
     6e4:	6f43656e 	svcvs	0x0043656e
     6e8:	63006564 	movwvs	r6, #1380	; 0x564
     6ec:	6f43726f 	svcvs	0x0043726f
     6f0:	74756f52 	ldrbtvc	r6, [r5], #-3922	; 0xf52
     6f4:	43656e69 	cmnmi	r5, #1680	; 0x690
     6f8:	72746e6f 	rsbsvc	r6, r4, #1776	; 0x6f0
     6fc:	6c426c6f 	mcrrvs	12, 6, r6, r2, cr15
     700:	006b636f 	rsbeq	r6, fp, pc, ror #6
     704:	526f4378 	rsbpl	r4, pc, #-536870911	; 0xe0000001
     708:	6974756f 	ldmdbvs	r4!, {r0, r1, r2, r3, r5, r6, r8, sl, ip, sp, lr}^
     70c:	6552656e 	ldrbvs	r6, [r2, #-1390]	; 0x56e
     710:	65766f6d 	ldrbvs	r6, [r6, #-3949]!	; 0xf6d
     714:	6d6f7246 	sfmvs	f7, 2, [pc, #-280]!	; 604 <vector_table-0x7fff9fc>
     718:	6e657645 	cdpvs	6, 6, cr7, cr5, cr5, {2}
     71c:	73694c74 	cmnvc	r9, #29696	; 0x7400
     720:	78700074 	ldmdavc	r0!, {r2, r4, r5, r6}^
     724:	7265764f 	rsbvc	r7, r5, #82837504	; 0x4f00000
     728:	776f6c66 	strbvc	r6, [pc, -r6, ror #24]!
     72c:	616c6544 	cmnvs	ip, r4, asr #10
     730:	43646579 	cmnmi	r4, #507510784	; 0x1e400000
     734:	756f526f 	strbvc	r5, [pc, #-623]!	; 4cd <vector_table-0x7fffb33>
     738:	656e6974 	strbvs	r6, [lr, #-2420]!	; 0x974
     73c:	7473694c 	ldrbtvc	r6, [r3], #-2380	; 0x94c
     740:	49787500 	ldmdbmi	r8!, {r8, sl, ip, sp, lr}^
     744:	7865646e 	stmdavc	r5!, {r1, r2, r3, r5, r6, sl, sp, lr}^
     748:	6f437800 	svcvs	0x00437800
     74c:	74756f52 	ldrbtvc	r6, [r5], #-3922	; 0xf52
     750:	43656e69 	cmnmi	r5, #1680	; 0x690
     754:	74616572 	strbtvc	r6, [r1], #-1394	; 0x572
     758:	72700065 	rsbsvc	r0, r0, #101	; 0x65
     75c:	65684376 	strbvs	r4, [r8, #-886]!	; 0x376
     760:	65506b63 	ldrbvs	r6, [r0, #-2915]	; 0xb63
     764:	6e69646e 	cdpvs	4, 6, cr6, cr9, cr14, {3}
     768:	61655267 	cmnvs	r5, r7, ror #4
     76c:	694c7964 	stmdbvs	ip, {r2, r5, r6, r8, fp, ip, sp, lr}^
     770:	70007473 	andvc	r7, r0, r3, ror r4
     774:	526f4378 	rsbpl	r4, pc, #-536870911	; 0xe0000001
     778:	6974756f 	ldmdbvs	r4!, {r0, r1, r2, r3, r5, r6, r8, sl, ip, sp, lr}^
     77c:	7546656e 	strbvc	r6, [r6, #-1390]	; 0x56e
     780:	6974636e 	ldmdbvs	r4!, {r1, r2, r3, r5, r6, r8, r9, sp, lr}^
     784:	75006e6f 	strvc	r6, [r0, #-3695]	; 0xe6f
     788:	69725078 	ldmdbvs	r2!, {r3, r4, r5, r6, ip, lr}^
     78c:	7469726f 	strbtvc	r7, [r9], #-623	; 0x26f
     790:	43780079 	cmnmi	r8, #121	; 0x79
     794:	756f526f 	strbvc	r5, [pc, #-623]!	; 52d <vector_table-0x7fffad3>
     798:	656e6974 	strbvs	r6, [lr, #-2420]!	; 0x974
     79c:	646e6148 	strbtvs	r6, [lr], #-328	; 0x148
     7a0:	7800656c 	stmdavc	r0, {r2, r3, r5, r6, r8, sl, sp, lr}
     7a4:	646e6550 	strbtvs	r6, [lr], #-1360	; 0x550
     7a8:	52676e69 	rsbpl	r6, r7, #1680	; 0x690
     7ac:	79646165 	stmdbvc	r4!, {r0, r2, r5, r6, r8, sp, lr}^
     7b0:	6f526f43 	svcvs	0x00526f43
     7b4:	6e697475 	mcrvs	4, 3, r7, cr9, cr5, {3}
     7b8:	73694c65 	cmnvc	r9, #25856	; 0x6500
     7bc:	2e2e0074 	mcrcs	0, 1, r0, cr14, cr4, {3}
     7c0:	6572462f 	ldrbvs	r4, [r2, #-1583]!	; 0x62f
     7c4:	4f545265 	svcmi	0x00545265
     7c8:	2e375653 	mrccs	6, 1, r5, cr7, cr3, {2}
     7cc:	2f312e31 	svccs	0x00312e31
     7d0:	72756f53 	rsbsvc	r6, r5, #332	; 0x14c
     7d4:	632f6563 	teqvs	pc, #415236096	; 0x18c00000
     7d8:	74756f72 	ldrbtvc	r6, [r5], #-3954	; 0xf72
     7dc:	2e656e69 	cdpcs	14, 6, cr6, cr5, cr9, {3}
     7e0:	78700063 	ldmdavc	r0!, {r0, r1, r5, r6}^
     7e4:	6e657645 	cdpvs	6, 6, cr7, cr5, cr5, {2}
     7e8:	73694c74 	cmnvc	r9, #29696	; 0x7400
     7ec:	78700074 	ldmdavc	r0!, {r2, r4, r5, r6}^
     7f0:	72727543 	rsbsvc	r7, r2, #281018368	; 0x10c00000
     7f4:	43746e65 	cmnmi	r4, #1616	; 0x650
     7f8:	756f526f 	strbvc	r5, [pc, #-623]!	; 591 <vector_table-0x7fffa6f>
     7fc:	656e6974 	strbvs	r6, [lr, #-2420]!	; 0x974
     800:	69547800 	ldmdbvs	r4, {fp, ip, sp, lr}^
     804:	6f54656d 	svcvs	0x0054656d
     808:	656b6157 	strbvs	r6, [fp, #-343]!	; 0x157
     80c:	6f437600 	svcvs	0x00437600
     810:	74756f52 	ldrbtvc	r6, [r5], #-3922	; 0xf52
     814:	53656e69 	cmnpl	r5, #1680	; 0x690
     818:	64656863 	strbtvs	r6, [r5], #-2147	; 0x863
     81c:	00656c75 	rsbeq	r6, r5, r5, ror ip
     820:	6f437870 	svcvs	0x00437870
     824:	74756f52 	ldrbtvc	r6, [r5], #-3922	; 0xf52
     828:	00656e69 	rsbeq	r6, r5, r9, ror #28
     82c:	74537875 	ldrbvc	r7, [r3], #-2165	; 0x875
     830:	00657461 	rsbeq	r7, r5, r1, ror #8
     834:	65447870 	strbvs	r7, [r4, #-2160]	; 0x870
     838:	6579616c 	ldrbvs	r6, [r9, #-364]!	; 0x16c
     83c:	526f4364 	rsbpl	r4, pc, #-1879048191	; 0x90000001
     840:	6974756f 	ldmdbvs	r4!, {r0, r1, r2, r3, r5, r6, r8, sl, ip, sp, lr}^
     844:	694c656e 	stmdbvs	ip, {r1, r2, r3, r5, r6, r8, sl, sp, lr}^
     848:	70007473 	andvc	r7, r0, r3, ror r4
     84c:	61655278 	smcvs	21800	; 0x5528
     850:	6f437964 	svcvs	0x00437964
     854:	74756f52 	ldrbtvc	r6, [r5], #-3922	; 0xf52
     858:	4c656e69 	stclmi	14, cr6, [r5], #-420	; 0xfffffe5c
     85c:	73747369 	cmnvc	r4, #-1543503871	; 0xa4000001
     860:	76727000 	ldrbtvc	r7, [r2], -r0
     864:	74696e49 	strbtvc	r6, [r9], #-3657	; 0xe49
     868:	696c6169 	stmdbvs	ip!, {r0, r3, r5, r6, r8, sp, lr}^
     86c:	6f436573 	svcvs	0x00436573
     870:	74756f52 	ldrbtvc	r6, [r5], #-3922	; 0xf52
     874:	4c656e69 	stclmi	14, cr6, [r5], #-420	; 0xfffffe5c
     878:	73747369 	cmnvc	r4, #-1543503871	; 0xa4000001
     87c:	69547800 	ldmdbvs	r4, {fp, ip, sp, lr}^
     880:	54736b63 	ldrbtpl	r6, [r3], #-2915	; 0xb63
     884:	6c65446f 	cfstrdvs	mvd4, [r5], #-444	; 0xfffffe44
     888:	78007961 	stmdavc	r0, {r0, r5, r6, r8, fp, ip, sp, lr}
     88c:	656e6547 	strbvs	r6, [lr, #-1351]!	; 0x547
     890:	4c636972 	stclmi	9, cr6, [r3], #-456	; 0xfffffe38
     894:	49747369 	ldmdbmi	r4!, {r0, r3, r5, r6, r8, r9, ip, sp, lr}^
     898:	006d6574 	rsbeq	r6, sp, r4, ror r5
     89c:	65764578 	ldrbvs	r4, [r6, #-1400]!	; 0x578
     8a0:	694c746e 	stmdbvs	ip, {r1, r2, r3, r5, r6, sl, ip, sp, lr}^
     8a4:	74497473 	strbvc	r7, [r9], #-1139	; 0x473
     8a8:	70006d65 	andvc	r6, r0, r5, ror #26
     8ac:	68437672 	stmdavs	r3, {r1, r4, r5, r6, r9, sl, ip, sp, lr}^
     8b0:	446b6365 	strbtmi	r6, [fp], #-869	; 0x365
     8b4:	79616c65 	stmdbvc	r1!, {r0, r2, r5, r6, sl, fp, sp, lr}^
     8b8:	694c6465 	stmdbvs	ip, {r0, r2, r5, r6, sl, sp, lr}^
     8bc:	63007473 	movwvs	r7, #1139	; 0x473
     8c0:	524f4372 	subpl	r4, pc, #-939524095	; 0xc8000001
     8c4:	4954554f 	ldmdbmi	r4, {r0, r1, r2, r3, r6, r8, sl, ip, lr}^
     8c8:	435f454e 	cmpmi	pc, #327155712	; 0x13800000
     8cc:	0045444f 	subeq	r4, r5, pc, asr #8
     8d0:	75516375 	ldrbvc	r6, [r1, #-885]	; 0x375
     8d4:	54657565 	strbtpl	r7, [r5], #-1381	; 0x565
     8d8:	00657079 	rsbeq	r7, r5, r9, ror r0
     8dc:	65755178 	ldrbvs	r5, [r5, #-376]!	; 0x178
     8e0:	65476575 	strbvs	r6, [r7, #-1397]	; 0x575
     8e4:	6972656e 	ldmdbvs	r2!, {r1, r2, r3, r5, r6, r8, sl, sp, lr}^
     8e8:	6e655363 	cdpvs	3, 6, cr5, cr5, cr3, {3}
     8ec:	6f724664 	svcvs	0x00724664
     8f0:	5253496d 	subspl	r4, r3, #1785856	; 0x1b4000
     8f4:	51787500 	cmnpl	r8, r0, lsl #10
     8f8:	65756575 	ldrbvs	r6, [r5, #-1397]!	; 0x575
     8fc:	7373654d 	cmnvc	r3, #322961408	; 0x13400000
     900:	73656761 	cmnvc	r5, #25427968	; 0x1840000
     904:	74696157 	strbtvc	r6, [r9], #-343	; 0x157
     908:	00676e69 	rsbeq	r6, r7, r9, ror #28
     90c:	657a6973 	ldrbvs	r6, [sl, #-2419]!	; 0x973
     910:	7000745f 	andvc	r7, r0, pc, asr r4
     914:	67694878 			; <UNDEFINED> instruction: 0x67694878
     918:	50726568 	rsbspl	r6, r2, r8, ror #10
     91c:	726f6972 	rsbvc	r6, pc, #1867776	; 0x1c8000
     920:	54797469 	ldrbtpl	r7, [r9], #-1129	; 0x469
     924:	576b7361 	strbpl	r7, [fp, -r1, ror #6]!
     928:	6e656b6f 	vnmulvs.f64	d22, d5, d31
     92c:	75517800 	ldrbvc	r7, [r1, #-2048]	; 0x800
     930:	49657565 	stmdbmi	r5!, {r0, r2, r5, r6, r8, sl, ip, sp, lr}^
     934:	65755173 	ldrbvs	r5, [r5, #-371]!	; 0x173
     938:	6d456575 	cfstr64vs	mvdx6, [r5, #-468]	; 0xfffffe2c
     93c:	46797470 			; <UNDEFINED> instruction: 0x46797470
     940:	496d6f72 	stmdbmi	sp!, {r1, r4, r5, r6, r8, r9, sl, fp, sp, lr}^
     944:	70005253 	andvc	r5, r0, r3, asr r2
     948:	73497672 	movtvc	r7, #38514	; 0x9672
     94c:	75657551 	strbvc	r7, [r5, #-1361]!	; 0x551
     950:	706d4565 	rsbvc	r4, sp, r5, ror #10
     954:	70007974 	andvc	r7, r0, r4, ror r9
     958:	6f437672 	svcvs	0x00437672
     95c:	61447970 	hvcvs	18320	; 0x4790
     960:	72466174 	subvc	r6, r6, #29
     964:	75516d6f 	ldrbvc	r6, [r1, #-3439]	; 0xd6f
     968:	00657565 	rsbeq	r7, r5, r5, ror #10
     96c:	654e7870 	strbvs	r7, [lr, #-2160]	; 0x870
     970:	65755177 	ldrbvs	r5, [r5, #-375]!	; 0x177
     974:	70006575 	andvc	r6, r0, r5, ror r5
     978:	6f437672 	svcvs	0x00437672
     97c:	61447970 	hvcvs	18320	; 0x4790
     980:	6f546174 	svcvs	0x00546174
     984:	75657551 	strbvc	r7, [r5, #-1361]!	; 0x551
     988:	54780065 	ldrbtpl	r0, [r8], #-101	; 0x65
     98c:	5f454d49 	svcpl	0x00454d49
     990:	0054554f 	subseq	r5, r4, pc, asr #10
     994:	65755178 	ldrbvs	r5, [r5, #-376]!	; 0x178
     998:	65476575 	strbvs	r6, [r7, #-1397]	; 0x575
     99c:	6972656e 	ldmdbvs	r2!, {r1, r2, r3, r5, r6, r8, sl, sp, lr}^
     9a0:	63655263 	cmnvs	r5, #805306374	; 0x30000006
     9a4:	65766965 	ldrbvs	r6, [r6, #-2405]!	; 0x965
     9a8:	4f637000 	svcmi	0x00637000
     9ac:	69676972 	stmdbvs	r7!, {r1, r4, r5, r6, r8, fp, sp, lr}^
     9b0:	526c616e 	rsbpl	r6, ip, #-2147483621	; 0x8000001b
     9b4:	50646165 	rsbpl	r6, r4, r5, ror #2
     9b8:	7469736f 	strbtvc	r7, [r9], #-879	; 0x36f
     9bc:	006e6f69 	rsbeq	r6, lr, r9, ror #30
     9c0:	65526370 	ldrbvs	r6, [r2, #-880]	; 0x370
     9c4:	72466461 	subvc	r6, r6, #1627389952	; 0x61000000
     9c8:	70006d6f 	andvc	r6, r0, pc, ror #26
     9cc:	73615478 	cmnvc	r1, #2013265920	; 0x78000000
     9d0:	6b6f576b 	blvs	1bd6784 <vector_table-0x642987c>
     9d4:	78006e65 	stmdavc	r0, {r0, r2, r5, r6, r9, sl, fp, sp, lr}
     9d8:	7265764f 	rsbvc	r7, r5, #82837504	; 0x4f00000
     9dc:	776f6c66 	strbvc	r6, [pc, -r6, ror #24]!
     9e0:	6e756f43 	cdpvs	15, 7, cr6, cr5, cr3, {2}
     9e4:	51760074 	cmnpl	r6, r4, ror r0
     9e8:	65756575 	ldrbvs	r6, [r5, #-1397]!	; 0x575
     9ec:	656c6544 	strbvs	r6, [ip, #-1348]!	; 0x544
     9f0:	70006574 	andvc	r6, r0, r4, ror r5
     9f4:	61654863 	cmnvs	r5, r3, ror #16
     9f8:	54780064 	ldrbtpl	r0, [r8], #-100	; 0x64
     9fc:	4f656d69 	svcmi	0x00656d69
     a00:	746e456e 	strbtvc	r4, [lr], #-1390	; 0x56e
     a04:	6e697265 	cdpvs	2, 6, cr7, cr9, cr5, {3}
     a08:	4a780067 	bmi	1e00bac <vector_table-0x61ff454>
     a0c:	50747375 	rsbspl	r7, r4, r5, ror r3
     a10:	696b6565 	stmdbvs	fp!, {r0, r2, r5, r6, r8, sl, sp, lr}^
     a14:	7800676e 	stmdavc	r0, {r1, r2, r3, r5, r6, r8, r9, sl, sp, lr}
     a18:	75657551 	strbvc	r7, [r5, #-1361]!	; 0x551
     a1c:	6e654765 	cdpvs	7, 6, cr4, cr5, cr5, {3}
     a20:	63697265 	cmnvs	r9, #1342177286	; 0x50000006
     a24:	646e6553 	strbtvs	r6, [lr], #-1363	; 0x553
     a28:	69547800 	ldmdbvs	r4, {fp, ip, sp, lr}^
     a2c:	754f656d 	strbvc	r6, [pc, #-1389]	; 4c7 <vector_table-0x7fffb39>
     a30:	70795474 	rsbsvc	r5, r9, r4, ror r4
     a34:	78750065 	ldmdavc	r5!, {r0, r2, r5, r6}^
     a38:	75746552 	ldrbvc	r6, [r4, #-1362]!	; 0x552
     a3c:	78006e72 	stmdavc	r0, {r1, r4, r5, r6, r9, sl, fp, sp, lr}
     a40:	75657551 	strbvc	r7, [r5, #-1361]!	; 0x551
     a44:	6e614865 	cdpvs	8, 6, cr4, cr1, cr5, {3}
     a48:	00656c64 	rsbeq	r6, r5, r4, ror #24
     a4c:	65755178 	ldrbvs	r5, [r5, #-376]!	; 0x178
     a50:	65526575 	ldrbvs	r6, [r2, #-1397]	; 0x575
     a54:	76696563 	strbtvc	r6, [r9], -r3, ror #10
     a58:	6f724665 	svcvs	0x00724665
     a5c:	5253496d 	subspl	r4, r3, #1785856	; 0x1b4000
     a60:	76727000 	ldrbtvc	r7, [r2], -r0
     a64:	75517349 	ldrbvc	r7, [r1, #-841]	; 0x349
     a68:	46657565 	strbtmi	r7, [r5], -r5, ror #10
     a6c:	006c6c75 	rsbeq	r6, ip, r5, ror ip
     a70:	654c7875 	strbvs	r7, [ip, #-2165]	; 0x875
     a74:	6874676e 	ldmdavs	r4!, {r1, r2, r3, r5, r6, r8, r9, sl, sp, lr}^
     a78:	51787500 	cmnpl	r8, r0, lsl #10
     a7c:	65756575 	ldrbvs	r6, [r5, #-1397]!	; 0x575
     a80:	676e654c 	strbvs	r6, [lr, -ip, asr #10]!
     a84:	78006874 	stmdavc	r0, {r2, r4, r5, r6, fp, sp, lr}
     a88:	6b736154 	blvs	1cd8fe0 <vector_table-0x6327020>
     a8c:	69615773 	stmdbvs	r1!, {r0, r1, r4, r5, r6, r8, r9, sl, ip, lr}^
     a90:	676e6974 			; <UNDEFINED> instruction: 0x676e6974
     a94:	65526f54 	ldrbvs	r6, [r2, #-3924]	; 0xf54
     a98:	76696563 	strbtvc	r6, [r9], -r3, ror #10
     a9c:	78750065 	ldmdavc	r5!, {r0, r2, r5, r6}^
     aa0:	75657551 	strbvc	r7, [r5, #-1361]!	; 0x551
     aa4:	73654d65 	cmnvc	r5, #6464	; 0x1940
     aa8:	65676173 	strbvs	r6, [r7, #-371]!	; 0x173
     aac:	69615773 	stmdbvs	r1!, {r0, r1, r4, r5, r6, r8, r9, sl, ip, lr}^
     ab0:	676e6974 			; <UNDEFINED> instruction: 0x676e6974
     ab4:	6d6f7246 	sfmvs	f7, 2, [pc, #-280]!	; 9a4 <vector_table-0x7fff65c>
     ab8:	00525349 	subseq	r5, r2, r9, asr #6
     abc:	74497670 	strbvc	r7, [r9], #-1648	; 0x670
     ac0:	6f546d65 	svcvs	0x00546d65
     ac4:	75657551 	strbvc	r7, [r5, #-1361]!	; 0x551
     ac8:	51780065 	cmnpl	r8, r5, rrx
     acc:	45554555 	ldrbmi	r4, [r5, #-1365]	; 0x555
     ad0:	6e457800 	cdpvs	8, 4, cr7, cr5, cr0, {0}
     ad4:	54797274 	ldrbtpl	r7, [r9], #-628	; 0x274
     ad8:	53656d69 	cmnpl	r5, #6720	; 0x1a40
     adc:	51007465 	tstpl	r0, r5, ror #8
     ae0:	65756575 	ldrbvs	r6, [r5, #-1397]!	; 0x575
     ae4:	69666544 	stmdbvs	r6!, {r2, r6, r8, sl, sp, lr}^
     ae8:	6974696e 	ldmdbvs	r4!, {r1, r2, r3, r5, r6, r8, fp, sp, lr}^
     aec:	78006e6f 	stmdavc	r0, {r0, r1, r2, r3, r5, r6, r9, sl, fp, sp, lr}
     af0:	75657551 	strbvc	r7, [r5, #-1361]!	; 0x551
     af4:	51734965 	cmnpl	r3, r5, ror #18
     af8:	65756575 	ldrbvs	r6, [r5, #-1397]!	; 0x575
     afc:	6c6c7546 	cfstr64vs	mvdx7, [ip], #-280	; 0xfffffee8
     b00:	6d6f7246 	sfmvs	f7, 2, [pc, #-280]!	; 9f0 <vector_table-0x7fff610>
     b04:	00525349 	subseq	r5, r2, r9, asr #6
     b08:	462f2e2e 	strtmi	r2, [pc], -lr, lsr #28
     b0c:	52656572 	rsbpl	r6, r5, #478150656	; 0x1c800000
     b10:	56534f54 	usaxpl	r4, r3, r4
     b14:	2e312e37 	mrccs	14, 1, r2, cr1, cr7, {1}
     b18:	6f532f31 	svcvs	0x00532f31
     b1c:	65637275 	strbvs	r7, [r3, #-629]!	; 0x275
     b20:	6575712f 	ldrbvs	r7, [r5, #-303]!	; 0x12f
     b24:	632e6575 	teqvs	lr, #490733568	; 0x1d400000
     b28:	78547800 	ldmdavc	r4, {fp, ip, sp, lr}^
     b2c:	6b636f4c 	blvs	18dc864 <vector_table-0x672379c>
     b30:	75517800 	ldrbvc	r7, [r1, #-2048]	; 0x800
     b34:	47657565 	strbmi	r7, [r5, -r5, ror #10]!
     b38:	72656e65 	rsbvc	r6, r5, #1616	; 0x650
     b3c:	72436369 	subvc	r6, r3, #-1543503871	; 0xa4000001
     b40:	65746165 	ldrbvs	r6, [r4, #-357]!	; 0x165
     b44:	53787500 	cmnpl	r8, #0
     b48:	64657661 	strbtvs	r7, [r5], #-1633	; 0x661
     b4c:	65746e49 	ldrbvs	r6, [r4, #-3657]!	; 0xe49
     b50:	70757272 	rsbsvc	r7, r5, r2, ror r2
     b54:	61745374 	cmnvs	r4, r4, ror r3
     b58:	00737574 	rsbseq	r7, r3, r4, ror r5
     b5c:	654d7875 	strbvs	r7, [sp, #-2165]	; 0x875
     b60:	67617373 			; <UNDEFINED> instruction: 0x67617373
     b64:	61577365 	cmpvs	r7, r5, ror #6
     b68:	6e697469 	cdpvs	4, 6, cr7, cr9, cr9, {3}
     b6c:	76700067 	ldrbtvc	r0, [r0], -r7, rrx
     b70:	66667542 	strbtvs	r7, [r6], -r2, asr #10
     b74:	78007265 	stmdavc	r0, {r0, r2, r5, r6, r9, ip, sp, lr}
     b78:	75657551 	strbvc	r7, [r5, #-1361]!	; 0x551
     b7c:	6e654765 	cdpvs	7, 6, cr4, cr5, cr5, {3}
     b80:	63697265 	cmnvs	r9, #1342177286	; 0x50000006
     b84:	65736552 	ldrbvs	r6, [r3, #-1362]!	; 0x552
     b88:	43780074 	cmnmi	r8, #116	; 0x74
     b8c:	5079706f 	rsbspl	r7, r9, pc, rrx
     b90:	7469736f 	strbtvc	r7, [r9], #-879	; 0x36f
     b94:	006e6f69 	rsbeq	r6, lr, r9, ror #30
     b98:	55767270 	ldrbpl	r7, [r6, #-624]!	; 0x270
     b9c:	636f6c6e 	cmnvs	pc, #28160	; 0x6e00
     ba0:	6575516b 	ldrbvs	r5, [r5, #-363]!	; 0x16b
     ba4:	78006575 	stmdavc	r0, {r0, r2, r4, r5, r6, r8, sl, sp, lr}
     ba8:	6f4c7852 	svcvs	0x004c7852
     bac:	70006b63 	andvc	r6, r0, r3, ror #22
     bb0:	69615463 	stmdbvs	r1!, {r0, r1, r5, r6, sl, ip, lr}^
     bb4:	5078006c 	rsbspl	r0, r8, ip, rrx
     bb8:	7469736f 	strbtvc	r7, [r9], #-879	; 0x36f
     bbc:	006e6f69 	rsbeq	r6, lr, r9, ror #30
     bc0:	73615478 	cmnvc	r1, #2013265920	; 0x78000000
     bc4:	6157736b 	cmpvs	r7, fp, ror #6
     bc8:	6e697469 	cdpvs	4, 6, cr7, cr9, cr9, {3}
     bcc:	536f5467 	cmnpl	pc, #1728053248	; 0x67000000
     bd0:	00646e65 	rsbeq	r6, r4, r5, ror #28
     bd4:	65755178 	ldrbvs	r5, [r5, #-376]!	; 0x178
     bd8:	69536575 	ldmdbvs	r3, {r0, r2, r4, r5, r6, r8, sl, sp, lr}^
     bdc:	6e49657a 	mcrvs	5, 2, r6, cr9, cr10, {3}
     be0:	65747942 	ldrbvs	r7, [r4, #-2370]!	; 0x942
     be4:	78700073 	ldmdavc	r0!, {r0, r1, r4, r5, r6}^
     be8:	75657551 	strbvc	r7, [r5, #-1361]!	; 0x551
     bec:	63700065 	cmnvs	r0, #101	; 0x65
     bf0:	74697257 	strbtvc	r7, [r9], #-599	; 0x257
     bf4:	006f5465 	rsbeq	r5, pc, r5, ror #8
     bf8:	74497875 	strbvc	r7, [r9], #-2165	; 0x875
     bfc:	69536d65 	ldmdbvs	r3, {r0, r2, r5, r6, r8, sl, fp, sp, lr}^
     c00:	7000657a 	andvc	r6, r0, sl, ror r5
     c04:	6e497672 	mcrvs	6, 2, r7, cr9, cr2, {3}
     c08:	61697469 	cmnvs	r9, r9, ror #8
     c0c:	6573696c 	ldrbvs	r6, [r3, #-2412]!	; 0x96c
     c10:	56424354 			; <UNDEFINED> instruction: 0x56424354
     c14:	61697261 	cmnvs	r9, r1, ror #4
     c18:	73656c62 	cmnvc	r5, #25088	; 0x6200
     c1c:	43787500 	cmnmi	r8, #0
     c20:	65727275 	ldrbvs	r7, [r2, #-629]!	; 0x275
     c24:	754e746e 	strbvc	r7, [lr, #-1134]	; 0x46e
     c28:	7265626d 	rsbvc	r6, r5, #-805306362	; 0xd0000006
     c2c:	6154664f 	cmpvs	r4, pc, asr #12
     c30:	00736b73 	rsbseq	r6, r3, r3, ror fp
     c34:	73615478 	cmnvc	r1, #2013265920	; 0x78000000
     c38:	6e65476b 	cdpvs	7, 6, cr4, cr5, cr11, {3}
     c3c:	63697265 	cmnvs	r9, #1342177286	; 0x50000006
     c40:	61657243 	cmnvs	r5, r3, asr #4
     c44:	78006574 	stmdavc	r0, {r2, r4, r5, r6, r8, sl, sp, lr}
     c48:	65726c41 	ldrbvs	r6, [r2, #-3137]!	; 0xc41
     c4c:	59796461 	ldmdbpl	r9!, {r0, r5, r6, sl, sp, lr}^
     c50:	646c6569 	strbtvs	r6, [ip], #-1385	; 0x569
     c54:	70006465 	andvc	r6, r0, r5, ror #8
     c58:	6d695478 	cfstrdvs	mvd5, [r9, #-480]!	; 0xfffffe20
     c5c:	74754f65 	ldrbtvc	r4, [r5], #-3941	; 0xf65
     c60:	61547600 	cmpvs	r4, r0, lsl #12
     c64:	65446b73 	strbvs	r6, [r4, #-2931]	; 0xb73
     c68:	0079616c 	rsbseq	r6, r9, ip, ror #2
     c6c:	546b7374 	strbtpl	r7, [fp], #-884	; 0x374
     c70:	436b7361 	cmnmi	fp, #-2080374783	; 0x84000001
     c74:	72746e6f 	rsbsvc	r6, r4, #1776	; 0x6f0
     c78:	6c426c6f 	mcrrvs	12, 6, r6, r2, cr15
     c7c:	006b636f 	rsbeq	r6, fp, pc, ror #6
     c80:	654e7870 	strbvs	r7, [lr, #-2160]	; 0x870
     c84:	42435477 	submi	r5, r3, #1996488704	; 0x77000000
     c88:	61547800 	cmpvs	r4, r0, lsl #16
     c8c:	65476b73 	strbvs	r6, [r7, #-2931]	; 0xb73
     c90:	63695474 	cmnvs	r9, #1946157056	; 0x74000000
     c94:	756f436b 	strbvc	r4, [pc, #-875]!	; 931 <vector_table-0x7fff6cf>
     c98:	7246746e 	subvc	r7, r6, #1845493760	; 0x6e000000
     c9c:	53496d6f 	movtpl	r6, #40303	; 0x9d6f
     ca0:	72700052 	rsbsvc	r0, r0, #82	; 0x52
     ca4:	6c6c4176 	stfvse	f4, [ip], #-472	; 0xfffffe28
     ca8:	7461636f 	strbtvc	r6, [r1], #-879	; 0x36f
     cac:	42435465 	submi	r5, r3, #1694498816	; 0x65000000
     cb0:	53646e41 	cmnpl	r4, #1040	; 0x410
     cb4:	6b636174 	blvs	18d928c <vector_table-0x6726d74>
     cb8:	53737500 	cmnpl	r3, #0
     cbc:	6b636174 	blvs	18d9294 <vector_table-0x6726d6c>
     cc0:	74706544 	ldrbtvc	r6, [r0], #-1348	; 0x544
     cc4:	75700068 	ldrbvc	r0, [r0, #-104]!	; 0x68
     cc8:	61745378 	cmnvs	r4, r8, ror r3
     ccc:	75426b63 	strbvc	r6, [r2, #-2915]	; 0xb63
     cd0:	72656666 	rsbvc	r6, r5, #106954752	; 0x6600000
     cd4:	61547600 	cmpvs	r4, r0, lsl #12
     cd8:	74536b73 	ldrbvc	r6, [r3], #-2931	; 0xb73
     cdc:	53747261 	cmnpl	r4, #268435462	; 0x10000006
     ce0:	64656863 	strbtvs	r6, [r5], #-2147	; 0x863
     ce4:	72656c75 	rsbvc	r6, r5, #29952	; 0x7500
     ce8:	61547600 	cmpvs	r4, r0, lsl #12
     cec:	6c506b73 	mrrcvs	11, 7, r6, r0, cr3
     cf0:	4f656361 	svcmi	0x00656361
     cf4:	6576456e 	ldrbvs	r4, [r6, #-1390]!	; 0x56e
     cf8:	694c746e 	stmdbvs	ip, {r1, r2, r3, r5, r6, sl, ip, sp, lr}^
     cfc:	75007473 	strvc	r7, [r0, #-1139]	; 0x473
     d00:	68635378 	stmdavs	r3!, {r3, r4, r5, r6, r8, r9, ip, lr}^
     d04:	6c756465 	cfldrdvs	mvd6, [r5], #-404	; 0xfffffe6c
     d08:	75537265 	ldrbvc	r7, [r3, #-613]	; 0x265
     d0c:	6e657073 	mcrvs	0, 3, r7, cr5, cr3, {3}
     d10:	00646564 	rsbeq	r6, r4, r4, ror #10
     d14:	462f2e2e 	strtmi	r2, [pc], -lr, lsr #28
     d18:	52656572 	rsbpl	r6, r5, #478150656	; 0x1c800000
     d1c:	56534f54 	usaxpl	r4, r3, r4
     d20:	2e312e37 	mrccs	14, 1, r2, cr1, cr7, {1}
     d24:	6f532f31 	svcvs	0x00532f31
     d28:	65637275 	strbvs	r7, [r3, #-629]!	; 0x275
     d2c:	7361742f 	cmnvc	r1, #788529152	; 0x2f000000
     d30:	632e736b 	teqvs	lr, #-1409286143	; 0xac000001
     d34:	43787000 	cmnmi	r8, #0
     d38:	74616572 	strbtvc	r6, [r1], #-1394	; 0x572
     d3c:	61546465 	cmpvs	r4, r5, ror #8
     d40:	70006b73 	andvc	r6, r0, r3, ror fp
     d44:	706f5478 	rsbvc	r5, pc, r8, ror r4	; <UNPREDICTABLE>
     d48:	7453664f 	ldrbvc	r6, [r3], #-1615	; 0x64f
     d4c:	006b6361 	rsbeq	r6, fp, r1, ror #6
     d50:	63695478 	cmnvs	r9, #2013265920	; 0x78000000
     d54:	756f436b 	strbvc	r4, [pc, #-875]!	; 9f1 <vector_table-0x7fff60f>
     d58:	7400746e 	strvc	r7, [r0], #-1134	; 0x46e
     d5c:	43546b73 	cmpmi	r4, #117760	; 0x1cc00
     d60:	78700042 	ldmdavc	r0!, {r1, r6}^
     d64:	00424354 	subeq	r4, r2, r4, asr r3
     d68:	65695978 	strbvs	r5, [r9, #-2424]!	; 0x978
     d6c:	6552646c 	ldrbvs	r6, [r2, #-1132]	; 0x46c
     d70:	72697571 	rsbvc	r7, r9, #473956352	; 0x1c400000
     d74:	70006465 	andvc	r6, r0, r5, ror #8
     d78:	72754378 	rsbsvc	r4, r5, #-536870911	; 0xe0000001
     d7c:	746e6572 	strbtvc	r6, [lr], #-1394	; 0x572
     d80:	00424354 	subeq	r4, r2, r4, asr r3
     d84:	4d454d78 	stclmi	13, cr4, [r5, #-480]	; 0xfffffe20
     d88:	5f59524f 	svcpl	0x0059524f
     d8c:	49474552 	stmdbmi	r7, {r1, r4, r6, r8, sl, lr}^
     d90:	78004e4f 	stmdavc	r0, {r0, r1, r2, r3, r6, r9, sl, fp, lr}
     d94:	7373694d 	cmnvc	r3, #1261568	; 0x134000
     d98:	69596465 	ldmdbvs	r9, {r0, r2, r5, r6, sl, sp, lr}^
     d9c:	00646c65 	rsbeq	r6, r4, r5, ror #24
     da0:	49767270 	ldmdbmi	r6!, {r4, r5, r6, r9, ip, sp, lr}^
     da4:	54656c64 	strbtpl	r6, [r5], #-3172	; 0xc64
     da8:	006b7361 	rsbeq	r7, fp, r1, ror #6
     dac:	73615476 	cmnvc	r1, #1979711488	; 0x76000000
     db0:	6977536b 	ldmdbvs	r7!, {r0, r1, r3, r5, r6, r8, r9, ip, lr}^
     db4:	43686374 	cmnmi	r8, #-805306367	; 0xd0000001
     db8:	65746e6f 	ldrbvs	r6, [r4, #-3695]!	; 0xe6f
     dbc:	70007478 	andvc	r7, r0, r8, ror r4
     dc0:	61745378 	cmnvs	r4, r8, ror r3
     dc4:	75006b63 	strvc	r6, [r0, #-2915]	; 0xb63
     dc8:	706f5478 	rsbvc	r5, pc, r8, ror r4	; <UNPREDICTABLE>
     dcc:	64657355 	strbtvs	r7, [r5], #-853	; 0x355
     dd0:	6f697250 	svcvs	0x00697250
     dd4:	79746972 	ldmdbvc	r4!, {r1, r4, r5, r6, r8, fp, sp, lr}^
     dd8:	4f787000 	svcmi	0x00787000
     ddc:	66726576 			; <UNDEFINED> instruction: 0x66726576
     de0:	44776f6c 	ldrbtmi	r6, [r7], #-3948	; 0xf6c
     de4:	79616c65 	stmdbvc	r1!, {r0, r2, r5, r6, sl, fp, sp, lr}^
     de8:	61546465 	cmpvs	r4, r5, ror #8
     dec:	694c6b73 	stmdbvs	ip, {r0, r1, r4, r5, r6, r8, r9, fp, sp, lr}^
     df0:	75007473 	strvc	r7, [r0, #-1139]	; 0x473
     df4:	7261506c 	rsbvc	r5, r1, #108	; 0x6c
     df8:	74656d61 	strbtvc	r6, [r5], #-3425	; 0xd61
     dfc:	00737265 	rsbseq	r7, r3, r5, ror #4
     e00:	67655278 			; <UNDEFINED> instruction: 0x67655278
     e04:	736e6f69 	cmnvc	lr, #420	; 0x1a4
     e08:	65507800 	ldrbvs	r7, [r0, #-2048]	; 0x800
     e0c:	6e69646e 	cdpvs	4, 6, cr6, cr9, cr14, {3}
     e10:	61655267 	cmnvs	r5, r7, ror #4
     e14:	694c7964 	stmdbvs	ip, {r2, r5, r6, r8, fp, ip, sp, lr}^
     e18:	70007473 	andvc	r7, r0, r3, ror r4
     e1c:	73615478 	cmnvc	r1, #2013265920	; 0x78000000
     e20:	646f436b 	strbtvs	r4, [pc], #-875	; e28 <vector_table-0x7fff1d8>
     e24:	4e780065 	cdpmi	0, 7, cr0, cr8, cr5, {3}
     e28:	54747865 	ldrbtpl	r7, [r4], #-2149	; 0x865
     e2c:	556b7361 	strbpl	r7, [fp, #-865]!	; 0x361
     e30:	6f6c626e 	svcvs	0x006c626e
     e34:	69546b63 	ldmdbvs	r4, {r0, r1, r5, r6, r8, r9, fp, sp, lr}^
     e38:	7500656d 	strvc	r6, [r0, #-1389]	; 0x56d
     e3c:	706f5478 	rsbvc	r5, pc, r8, ror r4	; <UNPREDICTABLE>
     e40:	64616552 	strbtvs	r6, [r1], #-1362	; 0x552
     e44:	69725079 	ldmdbvs	r2!, {r0, r3, r4, r5, r6, ip, lr}^
     e48:	7469726f 	strbtvc	r7, [r9], #-623	; 0x26f
     e4c:	6c750079 	ldclvs	0, cr0, [r5], #-484	; 0xfffffe1c
     e50:	676e654c 	strbvs	r6, [lr, -ip, asr #10]!
     e54:	6e496874 	mcrvs	8, 2, r6, cr9, cr4, {3}
     e58:	65747942 	ldrbvs	r7, [r4, #-2370]!	; 0x942
     e5c:	78700073 	ldmdavc	r0!, {r0, r1, r4, r5, r6}^
     e60:	6c626e55 	stclvs	14, cr6, [r2], #-340	; 0xfffffeac
     e64:	656b636f 	strbvs	r6, [fp, #-879]!	; 0x36f
     e68:	42435464 	submi	r5, r3, #1677721600	; 0x64000000
     e6c:	61547600 	cmpvs	r4, r0, lsl #12
     e70:	6e496b73 	vmovvs.8	d9[3], r6
     e74:	6d657263 	sfmvs	f7, 2, [r5, #-396]!	; 0xfffffe74
     e78:	54746e65 	ldrbtpl	r6, [r4], #-3685	; 0xe65
     e7c:	006b6369 	rsbeq	r6, fp, r9, ror #6
     e80:	68635378 	stmdavs	r3!, {r3, r4, r5, r6, r8, r9, ip, lr}^
     e84:	6c756465 	cfldrdvs	mvd6, [r5], #-404	; 0xfffffe6c
     e88:	75527265 	ldrbvc	r7, [r2, #-613]	; 0x265
     e8c:	6e696e6e 	cdpvs	14, 6, cr6, cr9, cr14, {3}
     e90:	54760067 	ldrbtpl	r0, [r6], #-103	; 0x67
     e94:	456b7361 	strbmi	r7, [fp, #-865]!	; 0x361
     e98:	6353646e 	cmpvs	r3, #1845493760	; 0x6e000000
     e9c:	75646568 	strbvc	r6, [r4, #-1384]!	; 0x568
     ea0:	0072656c 	rsbseq	r6, r2, ip, ror #10
     ea4:	73615478 	cmnvc	r1, #2013265920	; 0x78000000
     ea8:	7365526b 	cmnvc	r5, #-1342177274	; 0xb0000006
     eac:	41656d75 	smcmi	22229	; 0x56d5
     eb0:	76006c6c 	strvc	r6, [r0], -ip, ror #24
     eb4:	6b736154 	blvs	1cd940c <vector_table-0x6326bf4>
     eb8:	7373694d 	cmnvc	r3, #1261568	; 0x134000
     ebc:	69596465 	ldmdbvs	r9, {r0, r2, r5, r6, sl, sp, lr}^
     ec0:	00646c65 	rsbeq	r6, r4, r5, ror #24
     ec4:	43767270 	cmnmi	r6, #7
     ec8:	6b636568 	blvs	18da470 <vector_table-0x6725b90>
     ecc:	6b736154 	blvs	1cd9424 <vector_table-0x6326bdc>
     ed0:	69615773 	stmdbvs	r1!, {r0, r1, r4, r5, r6, r8, r9, sl, ip, lr}^
     ed4:	676e6974 			; <UNDEFINED> instruction: 0x676e6974
     ed8:	6d726554 	cfldr64vs	mvdx6, [r2, #-336]!	; 0xfffffeb0
     edc:	74616e69 	strbtvc	r6, [r1], #-3689	; 0xe69
     ee0:	006e6f69 	rsbeq	r6, lr, r9, ror #30
     ee4:	6d654d78 	stclvs	13, cr4, [r5, #-480]!	; 0xfffffe20
     ee8:	5279726f 	rsbspl	r7, r9, #-268435450	; 0xf0000006
     eec:	6f696765 	svcvs	0x00696765
     ef0:	7270006e 	rsbsvc	r0, r0, #110	; 0x6e
     ef4:	64644176 	strbtvs	r4, [r4], #-374	; 0x176
     ef8:	72727543 	rsbsvc	r7, r2, #281018368	; 0x10c00000
     efc:	54746e65 	ldrbtpl	r6, [r4], #-3685	; 0xe65
     f00:	546b7361 	strbtpl	r7, [fp], #-865	; 0x361
     f04:	6c65446f 	cfstrdvs	mvd4, [r5], #-444	; 0xfffffe44
     f08:	64657961 	strbtvs	r7, [r5], #-2401	; 0x961
     f0c:	7473694c 	ldrbtvc	r6, [r3], #-2380	; 0x94c
     f10:	61547800 	cmpvs	r4, r0, lsl #16
     f14:	65526b73 	ldrbvs	r6, [r2, #-2931]	; 0xb73
     f18:	65766f6d 	ldrbvs	r6, [r6, #-3949]!	; 0xf6d
     f1c:	6d6f7246 	sfmvs	f7, 2, [pc, #-280]!	; e0c <vector_table-0x7fff1f4>
     f20:	6e657645 	cdpvs	6, 6, cr7, cr5, cr5, {2}
     f24:	73694c74 	cmnvc	r9, #29696	; 0x7400
     f28:	64700074 	ldrbtvs	r0, [r0], #-116	; 0x74
     f2c:	4b534154 	blmi	14d1484 <vector_table-0x6b2eb7c>
     f30:	444f435f 	strbmi	r4, [pc], #-863	; f38 <vector_table-0x7fff0c8>
     f34:	54780045 	ldrbtpl	r0, [r8], #-69	; 0x45
     f38:	476b7361 	strbmi	r7, [fp, -r1, ror #6]!
     f3c:	69547465 	ldmdbvs	r4, {r0, r2, r5, r6, sl, ip, sp, lr}^
     f40:	6f436b63 	svcvs	0x00436b63
     f44:	00746e75 	rsbseq	r6, r4, r5, ror lr
     f48:	73615478 	cmnvc	r1, #2013265920	; 0x78000000
     f4c:	6568436b 	strbvs	r4, [r8, #-875]!	; 0x36b
     f50:	6f466b63 	svcvs	0x00466b63
     f54:	6d695472 	cfstrdvs	mvd5, [r9, #-456]!	; 0xfffffe38
     f58:	74754f65 	ldrbtvc	r4, [r5], #-3941	; 0xf65
     f5c:	54787500 	ldrbtpl	r7, [r8], #-1280	; 0x500
     f60:	4e6b7361 	cdpmi	3, 6, cr7, cr11, cr1, {3}
     f64:	65626d75 	strbvs	r6, [r2, #-3445]!	; 0xd75
     f68:	78700072 	ldmdavc	r0!, {r1, r4, r5, r6}^
     f6c:	64616552 	strbtvs	r6, [r1], #-1362	; 0x552
     f70:	73615479 	cmnvc	r1, #2030043136	; 0x79000000
     f74:	694c736b 	stmdbvs	ip, {r0, r1, r3, r5, r6, r8, r9, ip, sp, lr}^
     f78:	00737473 	rsbseq	r7, r3, r3, ror r4
     f7c:	61547875 	cmpvs	r4, r5, ror r8
     f80:	65476b73 	strbvs	r6, [r7, #-2931]	; 0xb73
     f84:	6d754e74 	ldclvs	14, cr4, [r5, #-464]!	; 0xfffffe30
     f88:	4f726562 	svcmi	0x00726562
     f8c:	73615466 	cmnvc	r1, #1711276032	; 0x66000000
     f90:	7800736b 	stmdavc	r0, {r0, r1, r3, r5, r6, r8, r9, ip, sp, lr}
     f94:	616c6544 	cmnvs	ip, r4, asr #10
     f98:	54646579 	strbtpl	r6, [r4], #-1401	; 0x579
     f9c:	4c6b7361 	stclmi	3, cr7, [fp], #-388	; 0xfffffe7c
     fa0:	31747369 	cmncc	r4, r9, ror #6
     fa4:	65447800 	strbvs	r7, [r4, #-2048]	; 0x800
     fa8:	6579616c 	ldrbvs	r6, [r9, #-364]!	; 0x16c
     fac:	73615464 	cmnvc	r1, #1677721600	; 0x64000000
     fb0:	73694c6b 	cmnvc	r9, #27392	; 0x6b00
     fb4:	78003274 	stmdavc	r0, {r2, r4, r5, r6, r9, ip, sp}
     fb8:	4f6d754e 	svcmi	0x006d754e
     fbc:	65764f66 	ldrbvs	r4, [r6, #-3942]!	; 0xf66
     fc0:	6f6c6672 	svcvs	0x006c6672
     fc4:	78007377 	stmdavc	r0, {r0, r1, r2, r4, r5, r6, r8, r9, ip, sp, lr}
     fc8:	6b636954 	blvs	18db520 <vector_table-0x6724ae0>
     fcc:	54760073 	ldrbtpl	r0, [r6], #-115	; 0x73
     fd0:	536b7361 	cmnpl	fp, #-2080374783	; 0x84000001
     fd4:	65707375 	ldrbvs	r7, [r0, #-885]!	; 0x375
     fd8:	6c41646e 	cfstrdvs	mvd6, [r1], {110}	; 0x6e
     fdc:	7875006c 	ldmdavc	r5!, {r2, r3, r5, r6}^
     fe0:	7373694d 	cmnvc	r3, #1261568	; 0x134000
     fe4:	69546465 	ldmdbvs	r4, {r0, r2, r5, r6, sl, sp, lr}^
     fe8:	00736b63 	rsbseq	r6, r3, r3, ror #22
     fec:	69547870 	ldmdbvs	r4, {r4, r5, r6, fp, ip, sp, lr}^
     ff0:	54736b63 	ldrbtpl	r6, [r3], #-2915	; 0xb63
     ff4:	6961576f 	stmdbvs	r1!, {r0, r1, r2, r3, r5, r6, r8, r9, sl, ip, lr}^
     ff8:	78700074 	ldmdavc	r0!, {r2, r4, r5, r6}^
     ffc:	616c6544 	cmnvs	ip, r4, asr #10
    1000:	54646579 	strbtpl	r6, [r4], #-1401	; 0x579
    1004:	4c6b7361 	stclmi	3, cr7, [fp], #-388	; 0xfffffe7c
    1008:	00747369 	rsbseq	r7, r4, r9, ror #6
    100c:	614e6370 	hvcvs	58928	; 0xe630
    1010:	7600656d 	strvc	r6, [r0], -sp, ror #10
    1014:	6b736154 	blvs	1cd956c <vector_table-0x6326a94>
    1018:	54746553 	ldrbtpl	r6, [r4], #-1363	; 0x553
    101c:	4f656d69 	svcmi	0x00656d69
    1020:	74537475 	ldrbvc	r7, [r3], #-1141	; 0x475
    1024:	00657461 	rsbeq	r7, r5, r1, ror #8
    1028:	61427670 	hvcvs	10080	; 0x2760
    102c:	64416573 	strbvs	r6, [r1], #-1395	; 0x573
    1030:	73657264 	cmnvc	r5, #1073741830	; 0x40000006
    1034:	72700073 	rsbsvc	r0, r0, #115	; 0x73
    1038:	696e4976 	stmdbvs	lr!, {r1, r2, r4, r5, r6, r8, fp, lr}^
    103c:	6c616974 	stclvs	9, cr6, [r1], #-464	; 0xfffffe30
    1040:	54657369 	strbtpl	r7, [r5], #-873	; 0x369
    1044:	4c6b7361 	stclmi	3, cr7, [fp], #-388	; 0xfffffe7c
    1048:	73747369 	cmnvc	r4, #-1543503871	; 0xa4000001
    104c:	2f2e2e00 	svccs	0x002e2e00
    1050:	65657246 	strbvs	r7, [r5, #-582]!	; 0x246
    1054:	534f5452 	movtpl	r5, #62546	; 0xf452
    1058:	312e3756 	teqcc	lr, r6, asr r7
    105c:	532f312e 	teqpl	pc, #-2147483637	; 0x8000000b
    1060:	6372756f 	cmnvs	r2, #465567744	; 0x1bc00000
    1064:	69742f65 	ldmdbvs	r4!, {r0, r2, r5, r6, r8, r9, sl, fp, sp}^
    1068:	7372656d 	cmnvc	r2, #457179136	; 0x1b400000
    106c:	7800632e 	stmdavc	r0, {r1, r2, r3, r5, r8, r9, sp, lr}
    1070:	74726f50 	ldrbtvc	r6, [r2], #-3920	; 0xf50
    1074:	54737953 	ldrbtpl	r7, [r3], #-2387	; 0x953
    1078:	486b6369 	stmdami	fp!, {r0, r3, r5, r6, r8, r9, sp, lr}^
    107c:	6c646e61 	stclvs	14, cr6, [r4], #-388	; 0xfffffe7c
    1080:	76007265 	strvc	r7, [r0], -r5, ror #4
    1084:	74726f50 	ldrbtvc	r6, [r2], #-3920	; 0xf50
    1088:	65746e45 	ldrbvs	r6, [r4, #-3653]!	; 0xe45
    108c:	69724372 	ldmdbvs	r2!, {r1, r4, r5, r6, r8, r9, lr}^
    1090:	61636974 	smcvs	13972	; 0x3694
    1094:	7870006c 	ldmdavc	r0!, {r2, r3, r5, r6}^
    1098:	65646f43 	strbvs	r6, [r4, #-3907]!	; 0xf43
    109c:	6f507800 	svcvs	0x00507800
    10a0:	65507472 	ldrbvs	r7, [r0, #-1138]	; 0x472
    10a4:	5653646e 	ldrbpl	r6, [r3], -lr, ror #8
    10a8:	646e6148 	strbtvs	r6, [lr], #-328	; 0x148
    10ac:	0072656c 	rsbseq	r6, r2, ip, ror #10
    10b0:	75446c75 	strbvc	r6, [r4, #-3189]	; 0xc75
    10b4:	00796d6d 	rsbseq	r6, r9, sp, ror #26
    10b8:	53767270 	cmnpl	r6, #7
    10bc:	70757465 	rsbsvc	r7, r5, r5, ror #8
    10c0:	656d6954 	strbvs	r6, [sp, #-2388]!	; 0x954
    10c4:	746e4972 	strbtvc	r4, [lr], #-2418	; 0x972
    10c8:	75727265 	ldrbvc	r7, [r2, #-613]!	; 0x265
    10cc:	76007470 			; <UNDEFINED> instruction: 0x76007470
    10d0:	74726f50 	ldrbtvc	r6, [r2], #-3920	; 0xf50
    10d4:	53646e45 	cmnpl	r4, #1104	; 0x450
    10d8:	64656863 	strbtvs	r6, [r5], #-2147	; 0x863
    10dc:	72656c75 	rsbvc	r6, r5, #29952	; 0x7500
    10e0:	6f507600 	svcvs	0x00507600
    10e4:	69597472 	ldmdbvs	r9, {r1, r4, r5, r6, sl, ip, sp, lr}^
    10e8:	46646c65 	strbtmi	r6, [r4], -r5, ror #24
    10ec:	496d6f72 	stmdbmi	sp!, {r1, r4, r5, r6, r8, r9, sl, fp, sp, lr}^
    10f0:	75005253 	strvc	r5, [r0, #-595]	; 0x253
    10f4:	69724378 	ldmdbvs	r2!, {r3, r4, r5, r6, r8, r9, lr}^
    10f8:	61636974 	smcvs	13972	; 0x3694
    10fc:	73654e6c 	cmnvc	r5, #1728	; 0x6c0
    1100:	676e6974 			; <UNDEFINED> instruction: 0x676e6974
    1104:	2f2e2e00 	svccs	0x002e2e00
    1108:	65657246 	strbvs	r7, [r5, #-582]!	; 0x246
    110c:	534f5452 	movtpl	r5, #62546	; 0xf452
    1110:	312e3756 	teqcc	lr, r6, asr r7
    1114:	532f312e 	teqpl	pc, #-2147483637	; 0x8000000b
    1118:	6372756f 	cmnvs	r2, #465567744	; 0x1bc00000
    111c:	6f702f65 	svcvs	0x00702f65
    1120:	62617472 	rsbvs	r7, r1, #1912602624	; 0x72000000
    1124:	472f656c 	strmi	r6, [pc, -ip, ror #10]!
    1128:	412f4343 	teqmi	pc, r3, asr #6
    112c:	435f4d52 	cmpmi	pc, #5248	; 0x1480
    1130:	702f334d 	eorvc	r3, pc, sp, asr #6
    1134:	2e74726f 	cdpcs	2, 7, cr7, cr4, cr15, {3}
    1138:	50760063 	rsbspl	r0, r6, r3, rrx
    113c:	5374726f 	cmnpl	r4, #-268435450	; 0xf0000006
    1140:	61484356 	cmpvs	r8, r6, asr r3
    1144:	656c646e 	strbvs	r6, [ip, #-1134]!	; 0x46e
    1148:	50760072 	rsbspl	r0, r6, r2, ror r0
    114c:	4574726f 	ldrbmi	r7, [r4, #-623]!	; 0x26f
    1150:	43746978 	cmnmi	r4, #1966080	; 0x1e0000
    1154:	69746972 	ldmdbvs	r4!, {r1, r4, r5, r6, r8, fp, sp, lr}^
    1158:	006c6163 	rsbeq	r6, ip, r3, ror #2
    115c:	50767270 	rsbspl	r7, r6, r0, ror r2
    1160:	5374726f 	cmnpl	r4, #-268435450	; 0xf0000006
    1164:	74726174 	ldrbtvc	r6, [r2], #-372	; 0x174
    1168:	73726946 	cmnvc	r2, #1146880	; 0x118000
    116c:	73615474 	cmnvc	r1, #1946157056	; 0x74000000
    1170:	5078006b 	rsbspl	r0, r8, fp, rrx
    1174:	5374726f 	cmnpl	r4, #-268435450	; 0xf0000006
    1178:	74726174 	ldrbtvc	r6, [r2], #-372	; 0x174
    117c:	65686353 	strbvs	r6, [r8, #-851]!	; 0x353
    1180:	656c7564 	strbvs	r7, [ip, #-1380]!	; 0x564
    1184:	78700072 	ldmdavc	r0!, {r1, r4, r5, r6}^
    1188:	74726f50 	ldrbtvc	r6, [r2], #-3920	; 0xf50
    118c:	74696e49 	strbtvc	r6, [r9], #-3657	; 0xe49
    1190:	696c6169 	stmdbvs	ip!, {r0, r3, r5, r6, r8, sp, lr}^
    1194:	74536573 	ldrbvc	r6, [r3], #-1395	; 0x573
    1198:	006b6361 	rsbeq	r6, fp, r1, ror #6
    119c:	654b6c75 	strbvs	r6, [fp, #-3189]	; 0xc75
    11a0:	6c656e72 	stclvs	14, cr6, [r5], #-456	; 0xfffffe38
    11a4:	6f697250 	svcvs	0x00697250
    11a8:	79746972 	ldmdbvc	r4!, {r1, r4, r5, r6, r8, fp, sp, lr}^
    11ac:	6f507600 	svcvs	0x00507600
    11b0:	6e497472 	mcrvs	4, 2, r7, cr9, cr2, {3}
    11b4:	61697469 	cmnvs	r9, r9, ror #8
    11b8:	6573696c 	ldrbvs	r6, [r3, #-2412]!	; 0x96c
    11bc:	636f6c42 	cmnvs	pc, #16896	; 0x4200
    11c0:	7800736b 	stmdavc	r0, {r0, r1, r3, r5, r6, r8, r9, ip, sp, lr}
    11c4:	74726f50 	ldrbtvc	r6, [r2], #-3920	; 0xf50
    11c8:	46746547 	ldrbtmi	r6, [r4], -r7, asr #10
    11cc:	48656572 	stmdami	r5!, {r1, r4, r5, r6, r8, sl, sp, lr}^
    11d0:	53706165 	cmnpl	r0, #1073741849	; 0x40000019
    11d4:	00657a69 	rsbeq	r7, r5, r9, ror #20
    11d8:	726f5076 	rsbvc	r5, pc, #118	; 0x76
    11dc:	65724674 	ldrbvs	r4, [r2, #-1652]!	; 0x674
    11e0:	76700065 	ldrbtvc	r0, [r0], -r5, rrx
    11e4:	75746552 	ldrbvc	r6, [r4, #-1362]!	; 0x552
    11e8:	78006e72 	stmdavc	r0, {r1, r4, r5, r6, r9, sl, fp, sp, lr}
    11ec:	7478654e 	ldrbtvc	r6, [r8], #-1358	; 0x54e
    11f0:	65657246 	strbvs	r7, [r5, #-582]!	; 0x246
    11f4:	65747942 	ldrbvs	r7, [r4, #-2370]!	; 0x942
    11f8:	54527800 	ldrbpl	r7, [r2], #-2048	; 0x800
    11fc:	485f534f 	ldmdami	pc, {r0, r1, r2, r3, r6, r8, r9, ip, lr}^	; <UNPREDICTABLE>
    1200:	00504145 	subseq	r4, r0, r5, asr #2
    1204:	462f2e2e 	strtmi	r2, [pc], -lr, lsr #28
    1208:	52656572 	rsbpl	r6, r5, #478150656	; 0x1c800000
    120c:	56534f54 	usaxpl	r4, r3, r4
    1210:	2e312e37 	mrccs	14, 1, r2, cr1, cr7, {1}
    1214:	6f532f31 	svcvs	0x00532f31
    1218:	65637275 	strbvs	r7, [r3, #-629]!	; 0x275
    121c:	726f702f 	rsbvc	r7, pc, #47	; 0x2f
    1220:	6c626174 	stfvse	f6, [r2], #-464	; 0xfffffe30
    1224:	654d2f65 	strbvs	r2, [sp, #-3941]	; 0xf65
    1228:	6e614d6d 	cdpvs	13, 6, cr4, cr1, cr13, {3}
    122c:	65682f67 	strbvs	r2, [r8, #-3943]!	; 0xf67
    1230:	315f7061 	cmpcc	pc, r1, rrx
    1234:	6400632e 	strvs	r6, [r0], #-814	; 0x32e
    1238:	6c62756f 	cfstr64vs	mvdx7, [r2], #-444	; 0xfffffe44
    123c:	76700065 	ldrbtvc	r0, [r0], -r5, rrx
    1240:	74726f50 	ldrbtvc	r6, [r2], #-3920	; 0xf50
    1244:	6c6c614d 	stfvse	f6, [ip], #-308	; 0xfffffecc
    1248:	7500636f 	strvc	r6, [r0, #-879]	; 0x36f
    124c:	61654863 	cmnvs	r5, r3, ror #16
    1250:	57780070 			; <UNDEFINED> instruction: 0x57780070
    1254:	65746e61 	ldrbvs	r6, [r4, #-3681]!	; 0xe61
    1258:	7a695364 	bvc	1a55ff0 <vector_table-0x65aa010>
    125c:	48780065 	ldmdami	r8!, {r0, r2, r5, r6}^
    1260:	00706165 	rsbseq	r6, r0, r5, ror #2
    1264:	6d754464 	cfldrdvs	mvd4, [r5, #-400]!	; 0xfffffe70
    1268:	Address 0x0000000000001268 is out of bounds.


Disassembly of section .comment:

00000000 <.comment>:
   0:	3a434347 	bcc	10d0d24 <vector_table-0x6f2f2dc>
   4:	6f532820 	svcvs	0x00532820
   8:	65637275 	strbvs	r7, [r3, #-629]!	; 0x275
   c:	47207972 			; <UNDEFINED> instruction: 0x47207972
  10:	4c202b2b 	stcmi	11, cr2, [r0], #-172	; 0xffffff54
  14:	20657469 	rsbcs	r7, r5, r9, ror #8
  18:	30313032 	eorscc	r3, r1, r2, lsr r0
  1c:	2d39302e 	ldccs	0, cr3, [r9, #-184]!	; 0xffffff48
  20:	20293135 	eorcs	r3, r9, r5, lsr r1
  24:	2e352e34 	mrccs	14, 1, r2, cr5, cr4, {1}
  28:	Address 0x0000000000000028 is out of bounds.


Disassembly of section .ARM.attributes:

00000000 <.ARM.attributes>:
   0:	00003041 	andeq	r3, r0, r1, asr #32
   4:	61656100 	cmnvs	r5, r0, lsl #2
   8:	01006962 	tsteq	r0, r2, ror #18
   c:	00000026 	andeq	r0, r0, r6, lsr #32
  10:	524f4305 	subpl	r4, pc, #335544320	; 0x14000000
  14:	2d584554 	cfldr64cs	mvdx4, [r8, #-336]	; 0xfffffeb0
  18:	0600334d 	streq	r3, [r0], -sp, asr #6
  1c:	094d070a 	stmdbeq	sp, {r1, r3, r8, r9, sl}^
  20:	14041202 	strne	r1, [r4], #-514	; 0x202
  24:	17011501 	strne	r1, [r1, -r1, lsl #10]
  28:	19011803 	stmdbne	r1, {r0, r1, fp, ip}
  2c:	1e011a01 	vmlane.f32	s2, s2, s2
  30:	Address 0x0000000000000030 is out of bounds.


Disassembly of section .debug_frame:

00000000 <.debug_frame>:
   0:	0000000c 	andeq	r0, r0, ip
   4:	ffffffff 			; <UNDEFINED> instruction: 0xffffffff
   8:	7c020001 	stcvc	0, cr0, [r2], {1}
   c:	000d0c0e 	andeq	r0, sp, lr, lsl #24
  10:	0000000c 	andeq	r0, r0, ip
  14:	00000000 	andeq	r0, r0, r0
  18:	08000040 	stmdaeq	r0, {r6}
  1c:	00000002 	andeq	r0, r0, r2
  20:	0000001c 	andeq	r0, r0, ip, lsl r0
  24:	00000000 	andeq	r0, r0, r0
  28:	08000042 	stmdaeq	r0, {r1, r6}
  2c:	0000002a 	andeq	r0, r0, sl, lsr #32
  30:	41180e41 	tstmi	r8, r1, asr #28
  34:	0284018e 	addeq	r0, r4, #-2147483613	; 0x80000023
  38:	04820383 	streq	r0, [r2], #899	; 0x383
  3c:	06800581 	streq	r0, [r0], r1, lsl #11
  40:	0000000c 	andeq	r0, r0, ip
  44:	00000000 	andeq	r0, r0, r0
  48:	0800006c 	stmdaeq	r0, {r2, r3, r5, r6}
  4c:	00000002 	andeq	r0, r0, r2
  50:	0000000c 	andeq	r0, r0, ip
  54:	00000000 	andeq	r0, r0, r0
  58:	0800006e 	stmdaeq	r0, {r1, r2, r3, r5, r6}
  5c:	00000002 	andeq	r0, r0, r2
  60:	0000000c 	andeq	r0, r0, ip
  64:	00000000 	andeq	r0, r0, r0
  68:	08000070 	stmdaeq	r0, {r4, r5, r6}
  6c:	00000004 	andeq	r0, r0, r4
  70:	0000000c 	andeq	r0, r0, ip
  74:	ffffffff 			; <UNDEFINED> instruction: 0xffffffff
  78:	7c020001 	stcvc	0, cr0, [r2], {1}
  7c:	000d0c0e 	andeq	r0, sp, lr, lsl #24
  80:	0000000c 	andeq	r0, r0, ip
  84:	00000070 	andeq	r0, r0, r0, ror r0
  88:	08000074 	stmdaeq	r0, {r2, r4, r5, r6}
  8c:	00000004 	andeq	r0, r0, r4
  90:	0000000c 	andeq	r0, r0, ip
  94:	ffffffff 			; <UNDEFINED> instruction: 0xffffffff
  98:	7c020001 	stcvc	0, cr0, [r2], {1}
  9c:	000d0c0e 	andeq	r0, sp, lr, lsl #24
  a0:	0000000c 	andeq	r0, r0, ip
  a4:	00000090 	muleq	r0, r0, r0
  a8:	08000078 	stmdaeq	r0, {r3, r4, r5, r6}
  ac:	00000016 	andeq	r0, r0, r6, lsl r0
  b0:	0000000c 	andeq	r0, r0, ip
  b4:	00000090 	muleq	r0, r0, r0
  b8:	0800008e 	stmdaeq	r0, {r1, r2, r3, r7}
  bc:	00000006 	andeq	r0, r0, r6
  c0:	0000000c 	andeq	r0, r0, ip
  c4:	00000090 	muleq	r0, r0, r0
  c8:	08000094 	stmdaeq	r0, {r2, r4, r7}
  cc:	0000001a 	andeq	r0, r0, sl, lsl r0
  d0:	00000014 	andeq	r0, r0, r4, lsl r0
  d4:	00000090 	muleq	r0, r0, r0
  d8:	080000ae 	stmdaeq	r0, {r1, r2, r3, r5, r7}
  dc:	00000032 	andeq	r0, r0, r2, lsr r0
  e0:	43080e42 	movwmi	r0, #36418	; 0x8e42
  e4:	0284018e 	addeq	r0, r4, #-2147483613	; 0x80000023
  e8:	0000000c 	andeq	r0, r0, ip
  ec:	00000090 	muleq	r0, r0, r0
  f0:	080000e0 	stmdaeq	r0, {r5, r6, r7}
  f4:	00000020 	andeq	r0, r0, r0, lsr #32
  f8:	0000000c 	andeq	r0, r0, ip
  fc:	ffffffff 			; <UNDEFINED> instruction: 0xffffffff
 100:	7c020001 	stcvc	0, cr0, [r2], {1}
 104:	000d0c0e 	andeq	r0, sp, lr, lsl #24
 108:	00000024 	andeq	r0, r0, r4, lsr #32
 10c:	000000f8 	strdeq	r0, [r0], -r8
 110:	08000100 	stmdaeq	r0, {r8}
 114:	000000b4 	strheq	r0, [r0], -r4
 118:	41280e42 	teqmi	r8, r2, asr #28
 11c:	028b018e 	addeq	r0, fp, #-2147483613	; 0x80000023
 120:	0489038a 	streq	r0, [r9], #906	; 0x38a
 124:	06870588 	streq	r0, [r7], r8, lsl #11
 128:	08850786 	stmeq	r5, {r1, r2, r7, r8, r9, sl}
 12c:	0a830984 	beq	fe0c2744 <_estack+0xde0be748>
 130:	00000018 	andeq	r0, r0, r8, lsl r0
 134:	000000f8 	strdeq	r0, [r0], -r8
 138:	080001b4 	stmdaeq	r0, {r2, r4, r5, r7, r8}
 13c:	0000003c 	andeq	r0, r0, ip, lsr r0
 140:	41100e41 	tstmi	r0, r1, asr #28
 144:	0286018e 	addeq	r0, r6, #-2147483613	; 0x80000023
 148:	04840385 	streq	r0, [r4], #901	; 0x385
 14c:	00000018 	andeq	r0, r0, r8, lsl r0
 150:	000000f8 	strdeq	r0, [r0], -r8
 154:	080001f0 	stmdaeq	r0, {r4, r5, r6, r7, r8}
 158:	00000118 	andeq	r0, r0, r8, lsl r1
 15c:	41100e41 	tstmi	r0, r1, asr #28
 160:	0286018e 	addeq	r0, r6, #-2147483613	; 0x80000023
 164:	04840385 	streq	r0, [r4], #901	; 0x385
 168:	00000018 	andeq	r0, r0, r8, lsl r0
 16c:	000000f8 	strdeq	r0, [r0], -r8
 170:	08000308 	stmdaeq	r0, {r3, r8, r9}
 174:	00000030 	andeq	r0, r0, r0, lsr r0
 178:	42100e41 	andsmi	r0, r0, #1040	; 0x410
 17c:	0286018e 	addeq	r0, r6, #-2147483613	; 0x80000023
 180:	04840385 	streq	r0, [r4], #901	; 0x385
 184:	0000000c 	andeq	r0, r0, ip
 188:	ffffffff 			; <UNDEFINED> instruction: 0xffffffff
 18c:	7c020001 	stcvc	0, cr0, [r2], {1}
 190:	000d0c0e 	andeq	r0, sp, lr, lsl #24
 194:	00000018 	andeq	r0, r0, r8, lsl r0
 198:	00000184 	andeq	r0, r0, r4, lsl #3
 19c:	08000338 	stmdaeq	r0, {r3, r4, r5, r8, r9}
 1a0:	00000026 	andeq	r0, r0, r6, lsr #32
 1a4:	410c0e41 	tstmi	ip, r1, asr #28
 1a8:	0285018e 	addeq	r0, r5, #-2147483613	; 0x80000023
 1ac:	00000384 	andeq	r0, r0, r4, lsl #7
 1b0:	00000014 	andeq	r0, r0, r4, lsl r0
 1b4:	00000184 	andeq	r0, r0, r4, lsl #3
 1b8:	0800035e 	stmdaeq	r0, {r1, r2, r3, r4, r6, r8, r9}
 1bc:	0000004a 	andeq	r0, r0, sl, asr #32
 1c0:	41080e43 	tstmi	r8, r3, asr #28
 1c4:	0284018e 	addeq	r0, r4, #-2147483613	; 0x80000023
 1c8:	00000014 	andeq	r0, r0, r4, lsl r0
 1cc:	00000184 	andeq	r0, r0, r4, lsl #3
 1d0:	080003a8 	stmdaeq	r0, {r3, r5, r7, r8, r9}
 1d4:	00000064 	andeq	r0, r0, r4, rrx
 1d8:	41080e41 	tstmi	r8, r1, asr #28
 1dc:	0284018e 	addeq	r0, r4, #-2147483613	; 0x80000023
 1e0:	00000014 	andeq	r0, r0, r4, lsl r0
 1e4:	00000184 	andeq	r0, r0, r4, lsl #3
 1e8:	0800040c 	stmdaeq	r0, {r2, r3, sl}
 1ec:	0000004a 	andeq	r0, r0, sl, asr #32
 1f0:	41080e42 	tstmi	r8, r2, asr #28
 1f4:	0284018e 	addeq	r0, r4, #-2147483613	; 0x80000023
 1f8:	0000001c 	andeq	r0, r0, ip, lsl r0
 1fc:	00000184 	andeq	r0, r0, r4, lsl #3
 200:	08000456 	stmdaeq	r0, {r1, r2, r4, r6, sl}
 204:	00000040 	andeq	r0, r0, r0, asr #32
 208:	41180e41 	tstmi	r8, r1, asr #28
 20c:	0287018e 	addeq	r0, r7, #-2147483613	; 0x80000023
 210:	04850386 	streq	r0, [r5], #902	; 0x386
 214:	06830584 	streq	r0, [r3], r4, lsl #11
 218:	00000024 	andeq	r0, r0, r4, lsr #32
 21c:	00000184 	andeq	r0, r0, r4, lsl #3
 220:	08000496 	stmdaeq	r0, {r1, r2, r4, r7, sl}
 224:	000000e0 	andeq	r0, r0, r0, ror #1
 228:	41280e42 	teqmi	r8, r2, asr #28
 22c:	0288018e 	addeq	r0, r8, #-2147483613	; 0x80000023
 230:	04860387 	streq	r0, [r6], #903	; 0x387
 234:	06840585 	streq	r0, [r4], r5, lsl #11
 238:	08820783 	stmeq	r2, {r0, r1, r7, r8, r9, sl}
 23c:	0a800981 	beq	fe002848 <_estack+0xddffe84c>
 240:	00000018 	andeq	r0, r0, r8, lsl r0
 244:	00000184 	andeq	r0, r0, r4, lsl #3
 248:	08000576 	stmdaeq	r0, {r1, r2, r4, r5, r6, r8, sl}
 24c:	00000052 	andeq	r0, r0, r2, asr r0
 250:	41100e41 	tstmi	r0, r1, asr #28
 254:	0285018e 	addeq	r0, r5, #-2147483613	; 0x80000023
 258:	04830384 	streq	r0, [r3], #900	; 0x384
 25c:	00000024 	andeq	r0, r0, r4, lsr #32
 260:	00000184 	andeq	r0, r0, r4, lsl #3
 264:	080005c8 	stmdaeq	r0, {r3, r6, r7, r8, sl}
 268:	000000f0 	strdeq	r0, [r0], -r0	; <UNPREDICTABLE>
 26c:	41280e42 	teqmi	r8, r2, asr #28
 270:	0288018e 	addeq	r0, r8, #-2147483613	; 0x80000023
 274:	04860387 	streq	r0, [r6], #903	; 0x387
 278:	06840585 	streq	r0, [r4], r5, lsl #11
 27c:	08820783 	stmeq	r2, {r0, r1, r7, r8, r9, sl}
 280:	0a800981 	beq	fe00288c <_estack+0xddffe890>
 284:	00000018 	andeq	r0, r0, r8, lsl r0
 288:	00000184 	andeq	r0, r0, r4, lsl #3
 28c:	080006b8 	stmdaeq	r0, {r3, r4, r5, r7, r9, sl}
 290:	0000004c 	andeq	r0, r0, ip, asr #32
 294:	41100e41 	tstmi	r0, r1, asr #28
 298:	0285018e 	addeq	r0, r5, #-2147483613	; 0x80000023
 29c:	04830384 	streq	r0, [r3], #900	; 0x384
 2a0:	00000014 	andeq	r0, r0, r4, lsl r0
 2a4:	00000184 	andeq	r0, r0, r4, lsl #3
 2a8:	08000704 	stmdaeq	r0, {r2, r8, r9, sl}
 2ac:	00000012 	andeq	r0, r0, r2, lsl r0
 2b0:	41080e41 	tstmi	r8, r1, asr #28
 2b4:	0284018e 	addeq	r0, r4, #-2147483613	; 0x80000023
 2b8:	0000000c 	andeq	r0, r0, ip
 2bc:	00000184 	andeq	r0, r0, r4, lsl #3
 2c0:	08000716 	stmdaeq	r0, {r1, r2, r4, r8, r9, sl}
 2c4:	00000004 	andeq	r0, r0, r4
 2c8:	00000014 	andeq	r0, r0, r4, lsl r0
 2cc:	00000184 	andeq	r0, r0, r4, lsl #3
 2d0:	0800071a 	stmdaeq	r0, {r1, r3, r4, r8, r9, sl}
 2d4:	00000014 	andeq	r0, r0, r4, lsl r0
 2d8:	41080e41 	tstmi	r8, r1, asr #28
 2dc:	0284018e 	addeq	r0, r4, #-2147483613	; 0x80000023
 2e0:	0000000c 	andeq	r0, r0, ip
 2e4:	00000184 	andeq	r0, r0, r4, lsl #3
 2e8:	0800072e 	stmdaeq	r0, {r1, r2, r3, r5, r8, r9, sl}
 2ec:	0000000c 	andeq	r0, r0, ip
 2f0:	0000000c 	andeq	r0, r0, ip
 2f4:	00000184 	andeq	r0, r0, r4, lsl #3
 2f8:	0800073a 	stmdaeq	r0, {r1, r3, r4, r5, r8, r9, sl}
 2fc:	0000000e 	andeq	r0, r0, lr
 300:	0000000c 	andeq	r0, r0, ip
 304:	ffffffff 			; <UNDEFINED> instruction: 0xffffffff
 308:	7c020001 	stcvc	0, cr0, [r2], {1}
 30c:	000d0c0e 	andeq	r0, sp, lr, lsl #24
 310:	00000014 	andeq	r0, r0, r4, lsl r0
 314:	00000300 	andeq	r0, r0, r0, lsl #6
 318:	08000748 	stmdaeq	r0, {r3, r6, r8, r9, sl}
 31c:	0000003c 	andeq	r0, r0, ip, lsr r0
 320:	42080e42 	andmi	r0, r8, #1056	; 0x420
 324:	0284018e 	addeq	r0, r4, #-2147483613	; 0x80000023
 328:	00000014 	andeq	r0, r0, r4, lsl r0
 32c:	00000300 	andeq	r0, r0, r0, lsl #6
 330:	08000784 	stmdaeq	r0, {r2, r7, r8, r9, sl}
 334:	00000014 	andeq	r0, r0, r4, lsl r0
 338:	41080e41 	tstmi	r8, r1, asr #28
 33c:	0283018e 	addeq	r0, r3, #-2147483613	; 0x80000023
 340:	00000024 	andeq	r0, r0, r4, lsr #32
 344:	00000300 	andeq	r0, r0, r0, lsl #6
 348:	08000798 	stmdaeq	r0, {r3, r4, r7, r8, r9, sl}
 34c:	0000017c 	andeq	r0, r0, ip, ror r1
 350:	41280e42 	teqmi	r8, r2, asr #28
 354:	028b018e 	addeq	r0, fp, #-2147483613	; 0x80000023
 358:	0489038a 	streq	r0, [r9], #906	; 0x38a
 35c:	06870588 	streq	r0, [r7], r8, lsl #11
 360:	08850786 	stmeq	r5, {r1, r2, r7, r8, r9, sl}
 364:	0a830984 	beq	fe0c297c <_estack+0xde0be980>
 368:	0000001c 	andeq	r0, r0, ip, lsl r0
 36c:	00000300 	andeq	r0, r0, r0, lsl #6
 370:	08000914 	stmdaeq	r0, {r2, r4, r8, fp}
 374:	00000048 	andeq	r0, r0, r8, asr #32
 378:	41180e41 	tstmi	r8, r1, asr #28
 37c:	0284018e 	addeq	r0, r4, #-2147483613	; 0x80000023
 380:	04820383 	streq	r0, [r2], #899	; 0x383
 384:	06800581 	streq	r0, [r0], r1, lsl #11
 388:	0000000c 	andeq	r0, r0, ip
 38c:	00000300 	andeq	r0, r0, r0, lsl #6
 390:	0800095c 	stmdaeq	r0, {r2, r3, r4, r6, r8, fp}
 394:	00000018 	andeq	r0, r0, r8, lsl r0
 398:	0000000c 	andeq	r0, r0, ip
 39c:	00000300 	andeq	r0, r0, r0, lsl #6
 3a0:	08000974 	stmdaeq	r0, {r2, r4, r5, r6, r8, fp}
 3a4:	00000014 	andeq	r0, r0, r4, lsl r0
 3a8:	00000014 	andeq	r0, r0, r4, lsl r0
 3ac:	00000300 	andeq	r0, r0, r0, lsl #6
 3b0:	08000988 	stmdaeq	r0, {r3, r7, r8, fp}
 3b4:	00000018 	andeq	r0, r0, r8, lsl r0
 3b8:	8e080e41 	cdphi	14, 0, cr0, cr8, cr1, {2}
 3bc:	00028401 	andeq	r8, r2, r1, lsl #8
 3c0:	0000000c 	andeq	r0, r0, ip
 3c4:	00000300 	andeq	r0, r0, r0, lsl #6
 3c8:	080009a0 	stmdaeq	r0, {r5, r7, r8, fp}
 3cc:	0000001c 	andeq	r0, r0, ip, lsl r0
 3d0:	0000000c 	andeq	r0, r0, ip
 3d4:	00000300 	andeq	r0, r0, r0, lsl #6
 3d8:	080009bc 	stmdaeq	r0, {r2, r3, r4, r5, r7, r8, fp}
 3dc:	0000000c 	andeq	r0, r0, ip
 3e0:	0000001c 	andeq	r0, r0, ip, lsl r0
 3e4:	00000300 	andeq	r0, r0, r0, lsl #6
 3e8:	080009c8 	stmdaeq	r0, {r3, r6, r7, r8, fp}
 3ec:	000000b4 	strheq	r0, [r0], -r4
 3f0:	41180e41 	tstmi	r8, r1, asr #28
 3f4:	0287018e 	addeq	r0, r7, #-2147483613	; 0x80000023
 3f8:	04850386 	streq	r0, [r5], #902	; 0x386
 3fc:	06830584 	streq	r0, [r3], r4, lsl #11
 400:	0000001c 	andeq	r0, r0, ip, lsl r0
 404:	00000300 	andeq	r0, r0, r0, lsl #6
 408:	08000a7c 	stmdaeq	r0, {r2, r3, r4, r5, r6, r9, fp}
 40c:	000000c0 	andeq	r0, r0, r0, asr #1
 410:	41180e42 	tstmi	r8, r2, asr #28
 414:	0288018e 	addeq	r0, r8, #-2147483613	; 0x80000023
 418:	04860387 	streq	r0, [r6], #903	; 0x387
 41c:	06840585 	streq	r0, [r4], r5, lsl #11
 420:	00000018 	andeq	r0, r0, r8, lsl r0
 424:	00000300 	andeq	r0, r0, r0, lsl #6
 428:	08000b3c 	stmdaeq	r0, {r2, r3, r4, r5, r8, r9, fp}
 42c:	00000030 	andeq	r0, r0, r0, lsr r0
 430:	41100e41 	tstmi	r0, r1, asr #28
 434:	0286018e 	addeq	r0, r6, #-2147483613	; 0x80000023
 438:	04840385 	streq	r0, [r4], #901	; 0x385
 43c:	00000018 	andeq	r0, r0, r8, lsl r0
 440:	00000300 	andeq	r0, r0, r0, lsl #6
 444:	08000b6c 	stmdaeq	r0, {r2, r3, r5, r6, r8, r9, fp}
 448:	0000005c 	andeq	r0, r0, ip, asr r0
 44c:	440c0e42 	strmi	r0, [ip], #-3650	; 0xe42
 450:	0285018e 	addeq	r0, r5, #-2147483613	; 0x80000023
 454:	00000384 	andeq	r0, r0, r4, lsl #7
 458:	00000018 	andeq	r0, r0, r8, lsl r0
 45c:	00000300 	andeq	r0, r0, r0, lsl #6
 460:	08000bc8 	stmdaeq	r0, {r3, r6, r7, r8, r9, fp}
 464:	00000024 	andeq	r0, r0, r4, lsr #32
 468:	41100e41 	tstmi	r0, r1, asr #28
 46c:	0286018e 	addeq	r0, r6, #-2147483613	; 0x80000023
 470:	04840385 	streq	r0, [r4], #901	; 0x385
 474:	00000018 	andeq	r0, r0, r8, lsl r0
 478:	00000300 	andeq	r0, r0, r0, lsl #6
 47c:	08000bec 	stmdaeq	r0, {r2, r3, r5, r6, r7, r8, r9, fp}
 480:	0000005c 	andeq	r0, r0, ip, asr r0
 484:	42100e41 	andsmi	r0, r0, #1040	; 0x410
 488:	0286018e 	addeq	r0, r6, #-2147483613	; 0x80000023
 48c:	04840385 	streq	r0, [r4], #901	; 0x385
 490:	0000000c 	andeq	r0, r0, ip
 494:	00000300 	andeq	r0, r0, r0, lsl #6
 498:	08000c48 	stmdaeq	r0, {r3, r6, sl, fp}
 49c:	00000014 	andeq	r0, r0, r4, lsl r0
 4a0:	00000018 	andeq	r0, r0, r8, lsl r0
 4a4:	00000300 	andeq	r0, r0, r0, lsl #6
 4a8:	08000c5c 	stmdaeq	r0, {r2, r3, r4, r6, sl, fp}
 4ac:	00000050 	andeq	r0, r0, r0, asr r0
 4b0:	41100e41 	tstmi	r0, r1, asr #28
 4b4:	0285018e 	addeq	r0, r5, #-2147483613	; 0x80000023
 4b8:	04830384 	streq	r0, [r3], #900	; 0x384
 4bc:	0000000c 	andeq	r0, r0, ip
 4c0:	00000300 	andeq	r0, r0, r0, lsl #6
 4c4:	08000cac 	stmdaeq	r0, {r2, r3, r5, r7, sl, fp}
 4c8:	00000010 	andeq	r0, r0, r0, lsl r0
 4cc:	0000000c 	andeq	r0, r0, ip
 4d0:	ffffffff 			; <UNDEFINED> instruction: 0xffffffff
 4d4:	7c020001 	stcvc	0, cr0, [r2], {1}
 4d8:	000d0c0e 	andeq	r0, sp, lr, lsl #24
 4dc:	0000000c 	andeq	r0, r0, ip
 4e0:	000004cc 	andeq	r0, r0, ip, asr #9
 4e4:	08000cbc 	stmdaeq	r0, {r2, r3, r4, r5, r7, sl, fp}
 4e8:	00000010 	andeq	r0, r0, r0, lsl r0
 4ec:	00000014 	andeq	r0, r0, r4, lsl r0
 4f0:	000004cc 	andeq	r0, r0, ip, asr #9
 4f4:	08000ccc 	stmdaeq	r0, {r2, r3, r6, r7, sl, fp}
 4f8:	00000020 	andeq	r0, r0, r0, lsr #32
 4fc:	43080e41 	movwmi	r0, #36417	; 0x8e41
 500:	0284018e 	addeq	r0, r4, #-2147483613	; 0x80000023
 504:	0000000c 	andeq	r0, r0, ip
 508:	000004cc 	andeq	r0, r0, ip, asr #9
 50c:	08000cec 	stmdaeq	r0, {r2, r3, r5, r6, r7, sl, fp}
 510:	00000020 	andeq	r0, r0, r0, lsr #32
 514:	00000014 	andeq	r0, r0, r4, lsl r0
 518:	000004cc 	andeq	r0, r0, ip, asr #9
 51c:	08000d0c 	stmdaeq	r0, {r2, r3, r8, sl, fp}
 520:	0000003c 	andeq	r0, r0, ip, lsr r0
 524:	42080e42 	andmi	r0, r8, #1056	; 0x420
 528:	0284018e 	addeq	r0, r4, #-2147483613	; 0x80000023
 52c:	0000000c 	andeq	r0, r0, ip
 530:	000004cc 	andeq	r0, r0, ip, asr #9
 534:	08000d48 	stmdaeq	r0, {r3, r6, r8, sl, fp}
 538:	00000002 	andeq	r0, r0, r2
 53c:	0000000c 	andeq	r0, r0, ip
 540:	000004cc 	andeq	r0, r0, ip, asr #9
 544:	08000d4a 	stmdaeq	r0, {r1, r3, r6, r8, sl, fp}
 548:	0000000e 	andeq	r0, r0, lr
 54c:	0000000c 	andeq	r0, r0, ip
 550:	000004cc 	andeq	r0, r0, ip, asr #9
 554:	08000d58 	stmdaeq	r0, {r3, r4, r6, r8, sl, fp}
 558:	00000018 	andeq	r0, r0, r8, lsl r0
 55c:	0000000c 	andeq	r0, r0, ip
 560:	000004cc 	andeq	r0, r0, ip, asr #9
 564:	08000d70 	stmdaeq	r0, {r4, r5, r6, r8, sl, fp}
 568:	00000018 	andeq	r0, r0, r8, lsl r0
 56c:	0000000c 	andeq	r0, r0, ip
 570:	000004cc 	andeq	r0, r0, ip, asr #9
 574:	08000d88 	stmdaeq	r0, {r3, r7, r8, sl, fp}
 578:	0000003c 	andeq	r0, r0, ip, lsr r0
 57c:	00000014 	andeq	r0, r0, r4, lsl r0
 580:	000004cc 	andeq	r0, r0, ip, asr #9
 584:	08000dc4 	stmdaeq	r0, {r2, r6, r7, r8, sl, fp}
 588:	00000024 	andeq	r0, r0, r4, lsr #32
 58c:	41080e41 	tstmi	r8, r1, asr #28
 590:	0283018e 	addeq	r0, r3, #-2147483613	; 0x80000023
 594:	0000000c 	andeq	r0, r0, ip
 598:	ffffffff 			; <UNDEFINED> instruction: 0xffffffff
 59c:	7c020001 	stcvc	0, cr0, [r2], {1}
 5a0:	000d0c0e 	andeq	r0, sp, lr, lsl #24
 5a4:	00000018 	andeq	r0, r0, r8, lsl r0
 5a8:	00000594 	muleq	r0, r4, r5
 5ac:	08000dec 	stmdaeq	r0, {r2, r3, r5, r6, r7, r8, sl, fp}
 5b0:	0000003c 	andeq	r0, r0, ip, lsr r0
 5b4:	41100e43 	tstmi	r0, r3, asr #28
 5b8:	0285018e 	addeq	r0, r5, #-2147483613	; 0x80000023
 5bc:	04830384 	streq	r0, [r3], #900	; 0x384
 5c0:	0000000c 	andeq	r0, r0, ip
 5c4:	00000594 	muleq	r0, r4, r5
 5c8:	08000e28 	stmdaeq	r0, {r3, r5, r9, sl, fp}
 5cc:	00000002 	andeq	r0, r0, r2
 5d0:	0000000c 	andeq	r0, r0, ip
 5d4:	00000594 	muleq	r0, r4, r5
 5d8:	08000e2a 	stmdaeq	r0, {r1, r3, r5, r9, sl, fp}
 5dc:	0000000e 	andeq	r0, r0, lr
 5e0:	0000000c 	andeq	r0, r0, ip
 5e4:	00000594 	muleq	r0, r4, r5
 5e8:	08000e38 	stmdaeq	r0, {r3, r4, r5, r9, sl, fp}
 5ec:	00000010 	andeq	r0, r0, r0, lsl r0
 5f0:	0000000c 	andeq	r0, r0, ip
 5f4:	ffffffff 			; <UNDEFINED> instruction: 0xffffffff
 5f8:	7c020001 	stcvc	0, cr0, [r2], {1}
 5fc:	000d0c0e 	andeq	r0, sp, lr, lsl #24
 600:	0000001c 	andeq	r0, r0, ip, lsl r0
 604:	000005f0 	strdeq	r0, [r0], -r0	; <UNPREDICTABLE>
 608:	08000e48 	stmdaeq	r0, {r3, r6, r9, sl, fp}
 60c:	00000150 	andeq	r0, r0, r0, asr r1
 610:	41140e43 	tstmi	r4, r3, asr #28
 614:	02870188 	addeq	r0, r7, #34	; 0x22
 618:	04850386 	streq	r0, [r5], #902	; 0x386
 61c:	00000584 	andeq	r0, r0, r4, lsl #11
 620:	0000000c 	andeq	r0, r0, ip
 624:	ffffffff 			; <UNDEFINED> instruction: 0xffffffff
 628:	7c020001 	stcvc	0, cr0, [r2], {1}
 62c:	000d0c0e 	andeq	r0, sp, lr, lsl #24
 630:	00000018 	andeq	r0, r0, r8, lsl r0
 634:	00000620 	andeq	r0, r0, r0, lsr #12
 638:	08000f98 	stmdaeq	r0, {r3, r4, r7, r8, r9, sl, fp}
 63c:	000000b4 	strheq	r0, [r0], -r4
 640:	410c0e43 	tstmi	ip, r3, asr #28
 644:	02850186 	addeq	r0, r5, #-2147483615	; 0x80000021
 648:	00000384 	andeq	r0, r0, r4, lsl #7
 64c:	0000000c 	andeq	r0, r0, ip
 650:	ffffffff 			; <UNDEFINED> instruction: 0xffffffff
 654:	7c020001 	stcvc	0, cr0, [r2], {1}
 658:	000d0c0e 	andeq	r0, sp, lr, lsl #24
 65c:	00000018 	andeq	r0, r0, r8, lsl r0
 660:	0000064c 	andeq	r0, r0, ip, asr #12
 664:	0800104c 	stmdaeq	r0, {r2, r3, r6, ip}
 668:	0000007a 	andeq	r0, r0, sl, ror r0
 66c:	430c0e46 	movwmi	r0, #52806	; 0xce46
 670:	02850186 	addeq	r0, r5, #-2147483615	; 0x80000021
 674:	00000384 	andeq	r0, r0, r4, lsl #7

Disassembly of section .debug_ranges:

00000000 <.debug_ranges>:
   0:	000001d8 	ldrdeq	r0, [r0], -r8
   4:	000001da 	ldrdeq	r0, [r0], -sl
   8:	000001dc 	ldrdeq	r0, [r0], -ip
   c:	000001f8 	strdeq	r0, [r0], -r8
	...
  18:	00000056 	andeq	r0, r0, r6, asr r0
  1c:	00000058 	andeq	r0, r0, r8, asr r0
  20:	000001b4 			; <UNDEFINED> instruction: 0x000001b4
  24:	000001bc 			; <UNDEFINED> instruction: 0x000001bc
  28:	00000068 	andeq	r0, r0, r8, rrx
  2c:	0000009e 	muleq	r0, lr, r0
	...
  38:	00000056 	andeq	r0, r0, r6, asr r0
  3c:	00000058 	andeq	r0, r0, r8, asr r0
  40:	000001b4 			; <UNDEFINED> instruction: 0x000001b4
  44:	000001bc 			; <UNDEFINED> instruction: 0x000001bc
  48:	00000068 	andeq	r0, r0, r8, rrx
  4c:	0000009e 	muleq	r0, lr, r0
	...
  58:	000000a0 	andeq	r0, r0, r0, lsr #1
  5c:	000000a4 	andeq	r0, r0, r4, lsr #1
  60:	000000da 	ldrdeq	r0, [r0], -sl
  64:	000000e4 	andeq	r0, r0, r4, ror #1
  68:	000000ae 	andeq	r0, r0, lr, lsr #1
  6c:	000000d6 	ldrdeq	r0, [r0], -r6
  70:	000000a6 	andeq	r0, r0, r6, lsr #1
  74:	000000aa 	andeq	r0, r0, sl, lsr #1
	...
  80:	00000356 	andeq	r0, r0, r6, asr r3
  84:	000003dc 	ldrdeq	r0, [r0], -ip
  88:	000003e0 	andeq	r0, r0, r0, ror #7
  8c:	000003e2 	andeq	r0, r0, r2, ror #7
	...
